
target/release/app:     file format elf64-x86-64

Sections:
Idx Name          Size      VMA               LMA               File off  Algn
  0 .interp       0000001c  0000000000000318  0000000000000318  00000318  2**0
                  CONTENTS, ALLOC, LOAD, READONLY, DATA
  1 .note.gnu.property 00000030  0000000000000338  0000000000000338  00000338  2**3
                  CONTENTS, ALLOC, LOAD, READONLY, DATA
  2 .note.gnu.build-id 00000024  0000000000000368  0000000000000368  00000368  2**2
                  CONTENTS, ALLOC, LOAD, READONLY, DATA
  3 .note.ABI-tag 00000020  000000000000038c  000000000000038c  0000038c  2**2
                  CONTENTS, ALLOC, LOAD, READONLY, DATA
  4 .gnu.hash     00000038  00000000000003b0  00000000000003b0  000003b0  2**3
                  CONTENTS, ALLOC, LOAD, READONLY, DATA
  5 .dynsym       000005d0  00000000000003e8  00000000000003e8  000003e8  2**3
                  CONTENTS, ALLOC, LOAD, READONLY, DATA
  6 .dynstr       000002c8  00000000000009b8  00000000000009b8  000009b8  2**0
                  CONTENTS, ALLOC, LOAD, READONLY, DATA
  7 .gnu.version  0000007c  0000000000000c80  0000000000000c80  00000c80  2**1
                  CONTENTS, ALLOC, LOAD, READONLY, DATA
  8 .gnu.version_r 00000090  0000000000000d00  0000000000000d00  00000d00  2**3
                  CONTENTS, ALLOC, LOAD, READONLY, DATA
  9 .rela.dyn     00000588  0000000000000d90  0000000000000d90  00000d90  2**3
                  CONTENTS, ALLOC, LOAD, READONLY, DATA
 10 .rela.plt     000004e0  0000000000001318  0000000000001318  00001318  2**3
                  CONTENTS, ALLOC, LOAD, READONLY, DATA
 11 .init         0000001b  0000000000002000  0000000000002000  00002000  2**2
                  CONTENTS, ALLOC, LOAD, READONLY, CODE
 12 .plt          00000350  0000000000002020  0000000000002020  00002020  2**4
                  CONTENTS, ALLOC, LOAD, READONLY, CODE
 13 .plt.got      00000010  0000000000002370  0000000000002370  00002370  2**4
                  CONTENTS, ALLOC, LOAD, READONLY, CODE
 14 .plt.sec      00000340  0000000000002380  0000000000002380  00002380  2**4
                  CONTENTS, ALLOC, LOAD, READONLY, CODE
 15 .text         0000c412  00000000000026c0  00000000000026c0  000026c0  2**4
                  CONTENTS, ALLOC, LOAD, READONLY, CODE
 16 .fini         0000000d  000000000000ead4  000000000000ead4  0000ead4  2**2
                  CONTENTS, ALLOC, LOAD, READONLY, CODE
 17 .rodata       000028e8  000000000000f000  000000000000f000  0000f000  2**5
                  CONTENTS, ALLOC, LOAD, READONLY, DATA
 18 .eh_frame_hdr 0000021c  00000000000118e8  00000000000118e8  000118e8  2**2
                  CONTENTS, ALLOC, LOAD, READONLY, DATA
 19 .eh_frame     00000b48  0000000000011b08  0000000000011b08  00011b08  2**3
                  CONTENTS, ALLOC, LOAD, READONLY, DATA
 20 .init_array   00000008  0000000000013bf0  0000000000013bf0  00012bf0  2**3
                  CONTENTS, ALLOC, LOAD, DATA
 21 .fini_array   00000008  0000000000013bf8  0000000000013bf8  00012bf8  2**3
                  CONTENTS, ALLOC, LOAD, DATA
 22 .dynamic      00000220  0000000000013c00  0000000000013c00  00012c00  2**3
                  CONTENTS, ALLOC, LOAD, DATA
 23 .got          000001e0  0000000000013e20  0000000000013e20  00012e20  2**3
                  CONTENTS, ALLOC, LOAD, DATA
 24 .data         000001a4  0000000000014000  0000000000014000  00013000  2**5
                  CONTENTS, ALLOC, LOAD, DATA
 25 .bss          000000c0  00000000000141c0  00000000000141c0  000131a4  2**5
                  ALLOC
 26 .comment      0000002b  0000000000000000  0000000000000000  000131a4  2**0
                  CONTENTS, READONLY
 27 .debug_aranges 00000140  0000000000000000  0000000000000000  000131cf  2**0
                  CONTENTS, READONLY, DEBUGGING, OCTETS
 28 .debug_info   00011b68  0000000000000000  0000000000000000  0001330f  2**0
                  CONTENTS, READONLY, DEBUGGING, OCTETS
 29 .debug_abbrev 00001875  0000000000000000  0000000000000000  00024e77  2**0
                  CONTENTS, READONLY, DEBUGGING, OCTETS
 30 .debug_line   0000dfbd  0000000000000000  0000000000000000  000266ec  2**0
                  CONTENTS, READONLY, DEBUGGING, OCTETS
 31 .debug_str    000034bb  0000000000000000  0000000000000000  000346a9  2**0
                  CONTENTS, READONLY, DEBUGGING, OCTETS
 32 .debug_line_str 000003b2  0000000000000000  0000000000000000  00037b64  2**0
                  CONTENTS, READONLY, DEBUGGING, OCTETS
 33 .debug_loclists 00012b2e  0000000000000000  0000000000000000  00037f16  2**0
                  CONTENTS, READONLY, DEBUGGING, OCTETS
 34 .debug_rnglists 00004d0a  0000000000000000  0000000000000000  0004aa44  2**0
                  CONTENTS, READONLY, DEBUGGING, OCTETS

Disassembly of section .init:

0000000000002000 <_init>:
    2000:	f3 0f 1e fa          	endbr64
    2004:	48 83 ec 08          	sub    $0x8,%rsp
    2008:	48 8b 05 d9 1f 01 00 	mov    0x11fd9(%rip),%rax        # 13fe8 <__gmon_start__@Base>
    200f:	48 85 c0             	test   %rax,%rax
    2012:	74 02                	je     2016 <_init+0x16>
    2014:	ff d0                	call   *%rax
    2016:	48 83 c4 08          	add    $0x8,%rsp
    201a:	c3                   	ret

Disassembly of section .plt:

0000000000002020 <.plt>:
    2020:	ff 35 02 1e 01 00    	push   0x11e02(%rip)        # 13e28 <_GLOBAL_OFFSET_TABLE_+0x8>
    2026:	ff 25 04 1e 01 00    	jmp    *0x11e04(%rip)        # 13e30 <_GLOBAL_OFFSET_TABLE_+0x10>
    202c:	0f 1f 40 00          	nopl   0x0(%rax)
    2030:	f3 0f 1e fa          	endbr64
    2034:	68 00 00 00 00       	push   $0x0
    2039:	e9 e2 ff ff ff       	jmp    2020 <_init+0x20>
    203e:	66 90                	xchg   %ax,%ax
    2040:	f3 0f 1e fa          	endbr64
    2044:	68 01 00 00 00       	push   $0x1
    2049:	e9 d2 ff ff ff       	jmp    2020 <_init+0x20>
    204e:	66 90                	xchg   %ax,%ax
    2050:	f3 0f 1e fa          	endbr64
    2054:	68 02 00 00 00       	push   $0x2
    2059:	e9 c2 ff ff ff       	jmp    2020 <_init+0x20>
    205e:	66 90                	xchg   %ax,%ax
    2060:	f3 0f 1e fa          	endbr64
    2064:	68 03 00 00 00       	push   $0x3
    2069:	e9 b2 ff ff ff       	jmp    2020 <_init+0x20>
    206e:	66 90                	xchg   %ax,%ax
    2070:	f3 0f 1e fa          	endbr64
    2074:	68 04 00 00 00       	push   $0x4
    2079:	e9 a2 ff ff ff       	jmp    2020 <_init+0x20>
    207e:	66 90                	xchg   %ax,%ax
    2080:	f3 0f 1e fa          	endbr64
    2084:	68 05 00 00 00       	push   $0x5
    2089:	e9 92 ff ff ff       	jmp    2020 <_init+0x20>
    208e:	66 90                	xchg   %ax,%ax
    2090:	f3 0f 1e fa          	endbr64
    2094:	68 06 00 00 00       	push   $0x6
    2099:	e9 82 ff ff ff       	jmp    2020 <_init+0x20>
    209e:	66 90                	xchg   %ax,%ax
    20a0:	f3 0f 1e fa          	endbr64
    20a4:	68 07 00 00 00       	push   $0x7
    20a9:	e9 72 ff ff ff       	jmp    2020 <_init+0x20>
    20ae:	66 90                	xchg   %ax,%ax
    20b0:	f3 0f 1e fa          	endbr64
    20b4:	68 08 00 00 00       	push   $0x8
    20b9:	e9 62 ff ff ff       	jmp    2020 <_init+0x20>
    20be:	66 90                	xchg   %ax,%ax
    20c0:	f3 0f 1e fa          	endbr64
    20c4:	68 09 00 00 00       	push   $0x9
    20c9:	e9 52 ff ff ff       	jmp    2020 <_init+0x20>
    20ce:	66 90                	xchg   %ax,%ax
    20d0:	f3 0f 1e fa          	endbr64
    20d4:	68 0a 00 00 00       	push   $0xa
    20d9:	e9 42 ff ff ff       	jmp    2020 <_init+0x20>
    20de:	66 90                	xchg   %ax,%ax
    20e0:	f3 0f 1e fa          	endbr64
    20e4:	68 0b 00 00 00       	push   $0xb
    20e9:	e9 32 ff ff ff       	jmp    2020 <_init+0x20>
    20ee:	66 90                	xchg   %ax,%ax
    20f0:	f3 0f 1e fa          	endbr64
    20f4:	68 0c 00 00 00       	push   $0xc
    20f9:	e9 22 ff ff ff       	jmp    2020 <_init+0x20>
    20fe:	66 90                	xchg   %ax,%ax
    2100:	f3 0f 1e fa          	endbr64
    2104:	68 0d 00 00 00       	push   $0xd
    2109:	e9 12 ff ff ff       	jmp    2020 <_init+0x20>
    210e:	66 90                	xchg   %ax,%ax
    2110:	f3 0f 1e fa          	endbr64
    2114:	68 0e 00 00 00       	push   $0xe
    2119:	e9 02 ff ff ff       	jmp    2020 <_init+0x20>
    211e:	66 90                	xchg   %ax,%ax
    2120:	f3 0f 1e fa          	endbr64
    2124:	68 0f 00 00 00       	push   $0xf
    2129:	e9 f2 fe ff ff       	jmp    2020 <_init+0x20>
    212e:	66 90                	xchg   %ax,%ax
    2130:	f3 0f 1e fa          	endbr64
    2134:	68 10 00 00 00       	push   $0x10
    2139:	e9 e2 fe ff ff       	jmp    2020 <_init+0x20>
    213e:	66 90                	xchg   %ax,%ax
    2140:	f3 0f 1e fa          	endbr64
    2144:	68 11 00 00 00       	push   $0x11
    2149:	e9 d2 fe ff ff       	jmp    2020 <_init+0x20>
    214e:	66 90                	xchg   %ax,%ax
    2150:	f3 0f 1e fa          	endbr64
    2154:	68 12 00 00 00       	push   $0x12
    2159:	e9 c2 fe ff ff       	jmp    2020 <_init+0x20>
    215e:	66 90                	xchg   %ax,%ax
    2160:	f3 0f 1e fa          	endbr64
    2164:	68 13 00 00 00       	push   $0x13
    2169:	e9 b2 fe ff ff       	jmp    2020 <_init+0x20>
    216e:	66 90                	xchg   %ax,%ax
    2170:	f3 0f 1e fa          	endbr64
    2174:	68 14 00 00 00       	push   $0x14
    2179:	e9 a2 fe ff ff       	jmp    2020 <_init+0x20>
    217e:	66 90                	xchg   %ax,%ax
    2180:	f3 0f 1e fa          	endbr64
    2184:	68 15 00 00 00       	push   $0x15
    2189:	e9 92 fe ff ff       	jmp    2020 <_init+0x20>
    218e:	66 90                	xchg   %ax,%ax
    2190:	f3 0f 1e fa          	endbr64
    2194:	68 16 00 00 00       	push   $0x16
    2199:	e9 82 fe ff ff       	jmp    2020 <_init+0x20>
    219e:	66 90                	xchg   %ax,%ax
    21a0:	f3 0f 1e fa          	endbr64
    21a4:	68 17 00 00 00       	push   $0x17
    21a9:	e9 72 fe ff ff       	jmp    2020 <_init+0x20>
    21ae:	66 90                	xchg   %ax,%ax
    21b0:	f3 0f 1e fa          	endbr64
    21b4:	68 18 00 00 00       	push   $0x18
    21b9:	e9 62 fe ff ff       	jmp    2020 <_init+0x20>
    21be:	66 90                	xchg   %ax,%ax
    21c0:	f3 0f 1e fa          	endbr64
    21c4:	68 19 00 00 00       	push   $0x19
    21c9:	e9 52 fe ff ff       	jmp    2020 <_init+0x20>
    21ce:	66 90                	xchg   %ax,%ax
    21d0:	f3 0f 1e fa          	endbr64
    21d4:	68 1a 00 00 00       	push   $0x1a
    21d9:	e9 42 fe ff ff       	jmp    2020 <_init+0x20>
    21de:	66 90                	xchg   %ax,%ax
    21e0:	f3 0f 1e fa          	endbr64
    21e4:	68 1b 00 00 00       	push   $0x1b
    21e9:	e9 32 fe ff ff       	jmp    2020 <_init+0x20>
    21ee:	66 90                	xchg   %ax,%ax
    21f0:	f3 0f 1e fa          	endbr64
    21f4:	68 1c 00 00 00       	push   $0x1c
    21f9:	e9 22 fe ff ff       	jmp    2020 <_init+0x20>
    21fe:	66 90                	xchg   %ax,%ax
    2200:	f3 0f 1e fa          	endbr64
    2204:	68 1d 00 00 00       	push   $0x1d
    2209:	e9 12 fe ff ff       	jmp    2020 <_init+0x20>
    220e:	66 90                	xchg   %ax,%ax
    2210:	f3 0f 1e fa          	endbr64
    2214:	68 1e 00 00 00       	push   $0x1e
    2219:	e9 02 fe ff ff       	jmp    2020 <_init+0x20>
    221e:	66 90                	xchg   %ax,%ax
    2220:	f3 0f 1e fa          	endbr64
    2224:	68 1f 00 00 00       	push   $0x1f
    2229:	e9 f2 fd ff ff       	jmp    2020 <_init+0x20>
    222e:	66 90                	xchg   %ax,%ax
    2230:	f3 0f 1e fa          	endbr64
    2234:	68 20 00 00 00       	push   $0x20
    2239:	e9 e2 fd ff ff       	jmp    2020 <_init+0x20>
    223e:	66 90                	xchg   %ax,%ax
    2240:	f3 0f 1e fa          	endbr64
    2244:	68 21 00 00 00       	push   $0x21
    2249:	e9 d2 fd ff ff       	jmp    2020 <_init+0x20>
    224e:	66 90                	xchg   %ax,%ax
    2250:	f3 0f 1e fa          	endbr64
    2254:	68 22 00 00 00       	push   $0x22
    2259:	e9 c2 fd ff ff       	jmp    2020 <_init+0x20>
    225e:	66 90                	xchg   %ax,%ax
    2260:	f3 0f 1e fa          	endbr64
    2264:	68 23 00 00 00       	push   $0x23
    2269:	e9 b2 fd ff ff       	jmp    2020 <_init+0x20>
    226e:	66 90                	xchg   %ax,%ax
    2270:	f3 0f 1e fa          	endbr64
    2274:	68 24 00 00 00       	push   $0x24
    2279:	e9 a2 fd ff ff       	jmp    2020 <_init+0x20>
    227e:	66 90                	xchg   %ax,%ax
    2280:	f3 0f 1e fa          	endbr64
    2284:	68 25 00 00 00       	push   $0x25
    2289:	e9 92 fd ff ff       	jmp    2020 <_init+0x20>
    228e:	66 90                	xchg   %ax,%ax
    2290:	f3 0f 1e fa          	endbr64
    2294:	68 26 00 00 00       	push   $0x26
    2299:	e9 82 fd ff ff       	jmp    2020 <_init+0x20>
    229e:	66 90                	xchg   %ax,%ax
    22a0:	f3 0f 1e fa          	endbr64
    22a4:	68 27 00 00 00       	push   $0x27
    22a9:	e9 72 fd ff ff       	jmp    2020 <_init+0x20>
    22ae:	66 90                	xchg   %ax,%ax
    22b0:	f3 0f 1e fa          	endbr64
    22b4:	68 28 00 00 00       	push   $0x28
    22b9:	e9 62 fd ff ff       	jmp    2020 <_init+0x20>
    22be:	66 90                	xchg   %ax,%ax
    22c0:	f3 0f 1e fa          	endbr64
    22c4:	68 29 00 00 00       	push   $0x29
    22c9:	e9 52 fd ff ff       	jmp    2020 <_init+0x20>
    22ce:	66 90                	xchg   %ax,%ax
    22d0:	f3 0f 1e fa          	endbr64
    22d4:	68 2a 00 00 00       	push   $0x2a
    22d9:	e9 42 fd ff ff       	jmp    2020 <_init+0x20>
    22de:	66 90                	xchg   %ax,%ax
    22e0:	f3 0f 1e fa          	endbr64
    22e4:	68 2b 00 00 00       	push   $0x2b
    22e9:	e9 32 fd ff ff       	jmp    2020 <_init+0x20>
    22ee:	66 90                	xchg   %ax,%ax
    22f0:	f3 0f 1e fa          	endbr64
    22f4:	68 2c 00 00 00       	push   $0x2c
    22f9:	e9 22 fd ff ff       	jmp    2020 <_init+0x20>
    22fe:	66 90                	xchg   %ax,%ax
    2300:	f3 0f 1e fa          	endbr64
    2304:	68 2d 00 00 00       	push   $0x2d
    2309:	e9 12 fd ff ff       	jmp    2020 <_init+0x20>
    230e:	66 90                	xchg   %ax,%ax
    2310:	f3 0f 1e fa          	endbr64
    2314:	68 2e 00 00 00       	push   $0x2e
    2319:	e9 02 fd ff ff       	jmp    2020 <_init+0x20>
    231e:	66 90                	xchg   %ax,%ax
    2320:	f3 0f 1e fa          	endbr64
    2324:	68 2f 00 00 00       	push   $0x2f
    2329:	e9 f2 fc ff ff       	jmp    2020 <_init+0x20>
    232e:	66 90                	xchg   %ax,%ax
    2330:	f3 0f 1e fa          	endbr64
    2334:	68 30 00 00 00       	push   $0x30
    2339:	e9 e2 fc ff ff       	jmp    2020 <_init+0x20>
    233e:	66 90                	xchg   %ax,%ax
    2340:	f3 0f 1e fa          	endbr64
    2344:	68 31 00 00 00       	push   $0x31
    2349:	e9 d2 fc ff ff       	jmp    2020 <_init+0x20>
    234e:	66 90                	xchg   %ax,%ax
    2350:	f3 0f 1e fa          	endbr64
    2354:	68 32 00 00 00       	push   $0x32
    2359:	e9 c2 fc ff ff       	jmp    2020 <_init+0x20>
    235e:	66 90                	xchg   %ax,%ax
    2360:	f3 0f 1e fa          	endbr64
    2364:	68 33 00 00 00       	push   $0x33
    2369:	e9 b2 fc ff ff       	jmp    2020 <_init+0x20>
    236e:	66 90                	xchg   %ax,%ax

Disassembly of section .plt.got:

0000000000002370 <__cxa_finalize@plt>:
    2370:	f3 0f 1e fa          	endbr64
    2374:	ff 25 66 1c 01 00    	jmp    *0x11c66(%rip)        # 13fe0 <__cxa_finalize@GLIBC_2.2.5>
    237a:	66 0f 1f 44 00 00    	nopw   0x0(%rax,%rax,1)

Disassembly of section .plt.sec:

0000000000002380 <select@plt>:
    2380:	f3 0f 1e fa          	endbr64
    2384:	ff 25 ae 1a 01 00    	jmp    *0x11aae(%rip)        # 13e38 <select@GLIBC_2.2.5>
    238a:	66 0f 1f 44 00 00    	nopw   0x0(%rax,%rax,1)

0000000000002390 <memcpy@plt>:
    2390:	f3 0f 1e fa          	endbr64
    2394:	ff 25 a6 1a 01 00    	jmp    *0x11aa6(%rip)        # 13e40 <memcpy@GLIBC_2.14>
    239a:	66 0f 1f 44 00 00    	nopw   0x0(%rax,%rax,1)

00000000000023a0 <ioctl@plt>:
    23a0:	f3 0f 1e fa          	endbr64
    23a4:	ff 25 9e 1a 01 00    	jmp    *0x11a9e(%rip)        # 13e48 <ioctl@GLIBC_2.2.5>
    23aa:	66 0f 1f 44 00 00    	nopw   0x0(%rax,%rax,1)

00000000000023b0 <__isoc99_fscanf@plt>:
    23b0:	f3 0f 1e fa          	endbr64
    23b4:	ff 25 96 1a 01 00    	jmp    *0x11a96(%rip)        # 13e50 <__isoc99_fscanf@GLIBC_2.7>
    23ba:	66 0f 1f 44 00 00    	nopw   0x0(%rax,%rax,1)

00000000000023c0 <free@plt>:
    23c0:	f3 0f 1e fa          	endbr64
    23c4:	ff 25 8e 1a 01 00    	jmp    *0x11a8e(%rip)        # 13e58 <free@GLIBC_2.2.5>
    23ca:	66 0f 1f 44 00 00    	nopw   0x0(%rax,%rax,1)

00000000000023d0 <Mix_PlayingMusic@plt>:
    23d0:	f3 0f 1e fa          	endbr64
    23d4:	ff 25 86 1a 01 00    	jmp    *0x11a86(%rip)        # 13e60 <Mix_PlayingMusic@Base>
    23da:	66 0f 1f 44 00 00    	nopw   0x0(%rax,%rax,1)

00000000000023e0 <close@plt>:
    23e0:	f3 0f 1e fa          	endbr64
    23e4:	ff 25 7e 1a 01 00    	jmp    *0x11a7e(%rip)        # 13e68 <close@GLIBC_2.2.5>
    23ea:	66 0f 1f 44 00 00    	nopw   0x0(%rax,%rax,1)

00000000000023f0 <__fprintf_chk@plt>:
    23f0:	f3 0f 1e fa          	endbr64
    23f4:	ff 25 76 1a 01 00    	jmp    *0x11a76(%rip)        # 13e70 <__fprintf_chk@GLIBC_2.3.4>
    23fa:	66 0f 1f 44 00 00    	nopw   0x0(%rax,%rax,1)

0000000000002400 <ftell@plt>:
    2400:	f3 0f 1e fa          	endbr64
    2404:	ff 25 6e 1a 01 00    	jmp    *0x11a6e(%rip)        # 13e78 <ftell@GLIBC_2.2.5>
    240a:	66 0f 1f 44 00 00    	nopw   0x0(%rax,%rax,1)

0000000000002410 <__stack_chk_fail@plt>:
    2410:	f3 0f 1e fa          	endbr64
    2414:	ff 25 66 1a 01 00    	jmp    *0x11a66(%rip)        # 13e80 <__stack_chk_fail@GLIBC_2.4>
    241a:	66 0f 1f 44 00 00    	nopw   0x0(%rax,%rax,1)

0000000000002420 <perror@plt>:
    2420:	f3 0f 1e fa          	endbr64
    2424:	ff 25 5e 1a 01 00    	jmp    *0x11a5e(%rip)        # 13e88 <perror@GLIBC_2.2.5>
    242a:	66 0f 1f 44 00 00    	nopw   0x0(%rax,%rax,1)

0000000000002430 <memset@plt>:
    2430:	f3 0f 1e fa          	endbr64
    2434:	ff 25 56 1a 01 00    	jmp    *0x11a56(%rip)        # 13e90 <memset@GLIBC_2.2.5>
    243a:	66 0f 1f 44 00 00    	nopw   0x0(%rax,%rax,1)

0000000000002440 <SDL_Quit@plt>:
    2440:	f3 0f 1e fa          	endbr64
    2444:	ff 25 4e 1a 01 00    	jmp    *0x11a4e(%rip)        # 13e98 <SDL_Quit@Base>
    244a:	66 0f 1f 44 00 00    	nopw   0x0(%rax,%rax,1)

0000000000002450 <signal@plt>:
    2450:	f3 0f 1e fa          	endbr64
    2454:	ff 25 46 1a 01 00    	jmp    *0x11a46(%rip)        # 13ea0 <signal@GLIBC_2.2.5>
    245a:	66 0f 1f 44 00 00    	nopw   0x0(%rax,%rax,1)

0000000000002460 <getc@plt>:
    2460:	f3 0f 1e fa          	endbr64
    2464:	ff 25 3e 1a 01 00    	jmp    *0x11a3e(%rip)        # 13ea8 <getc@GLIBC_2.2.5>
    246a:	66 0f 1f 44 00 00    	nopw   0x0(%rax,%rax,1)

0000000000002470 <fclose@plt>:
    2470:	f3 0f 1e fa          	endbr64
    2474:	ff 25 36 1a 01 00    	jmp    *0x11a36(%rip)        # 13eb0 <fclose@GLIBC_2.2.5>
    247a:	66 0f 1f 44 00 00    	nopw   0x0(%rax,%rax,1)

0000000000002480 <open@plt>:
    2480:	f3 0f 1e fa          	endbr64
    2484:	ff 25 2e 1a 01 00    	jmp    *0x11a2e(%rip)        # 13eb8 <open@GLIBC_2.2.5>
    248a:	66 0f 1f 44 00 00    	nopw   0x0(%rax,%rax,1)

0000000000002490 <SDL_Delay@plt>:
    2490:	f3 0f 1e fa          	endbr64
    2494:	ff 25 26 1a 01 00    	jmp    *0x11a26(%rip)        # 13ec0 <SDL_Delay@Base>
    249a:	66 0f 1f 44 00 00    	nopw   0x0(%rax,%rax,1)

00000000000024a0 <sqrt@plt>:
    24a0:	f3 0f 1e fa          	endbr64
    24a4:	ff 25 1e 1a 01 00    	jmp    *0x11a1e(%rip)        # 13ec8 <sqrt@GLIBC_2.2.5>
    24aa:	66 0f 1f 44 00 00    	nopw   0x0(%rax,%rax,1)

00000000000024b0 <fflush@plt>:
    24b0:	f3 0f 1e fa          	endbr64
    24b4:	ff 25 16 1a 01 00    	jmp    *0x11a16(%rip)        # 13ed0 <fflush@GLIBC_2.2.5>
    24ba:	66 0f 1f 44 00 00    	nopw   0x0(%rax,%rax,1)

00000000000024c0 <__memcpy_chk@plt>:
    24c0:	f3 0f 1e fa          	endbr64
    24c4:	ff 25 0e 1a 01 00    	jmp    *0x11a0e(%rip)        # 13ed8 <__memcpy_chk@GLIBC_2.3.4>
    24ca:	66 0f 1f 44 00 00    	nopw   0x0(%rax,%rax,1)

00000000000024d0 <fread@plt>:
    24d0:	f3 0f 1e fa          	endbr64
    24d4:	ff 25 06 1a 01 00    	jmp    *0x11a06(%rip)        # 13ee0 <fread@GLIBC_2.2.5>
    24da:	66 0f 1f 44 00 00    	nopw   0x0(%rax,%rax,1)

00000000000024e0 <tcsetattr@plt>:
    24e0:	f3 0f 1e fa          	endbr64
    24e4:	ff 25 fe 19 01 00    	jmp    *0x119fe(%rip)        # 13ee8 <tcsetattr@GLIBC_2.2.5>
    24ea:	66 0f 1f 44 00 00    	nopw   0x0(%rax,%rax,1)

00000000000024f0 <Mix_LoadMUS@plt>:
    24f0:	f3 0f 1e fa          	endbr64
    24f4:	ff 25 f6 19 01 00    	jmp    *0x119f6(%rip)        # 13ef0 <Mix_LoadMUS@Base>
    24fa:	66 0f 1f 44 00 00    	nopw   0x0(%rax,%rax,1)

0000000000002500 <tcgetattr@plt>:
    2500:	f3 0f 1e fa          	endbr64
    2504:	ff 25 ee 19 01 00    	jmp    *0x119ee(%rip)        # 13ef8 <tcgetattr@GLIBC_2.2.5>
    250a:	66 0f 1f 44 00 00    	nopw   0x0(%rax,%rax,1)

0000000000002510 <Mix_PlayMusic@plt>:
    2510:	f3 0f 1e fa          	endbr64
    2514:	ff 25 e6 19 01 00    	jmp    *0x119e6(%rip)        # 13f00 <Mix_PlayMusic@Base>
    251a:	66 0f 1f 44 00 00    	nopw   0x0(%rax,%rax,1)

0000000000002520 <exit@plt>:
    2520:	f3 0f 1e fa          	endbr64
    2524:	ff 25 de 19 01 00    	jmp    *0x119de(%rip)        # 13f08 <exit@GLIBC_2.2.5>
    252a:	66 0f 1f 44 00 00    	nopw   0x0(%rax,%rax,1)

0000000000002530 <Mix_CloseAudio@plt>:
    2530:	f3 0f 1e fa          	endbr64
    2534:	ff 25 d6 19 01 00    	jmp    *0x119d6(%rip)        # 13f10 <Mix_CloseAudio@Base>
    253a:	66 0f 1f 44 00 00    	nopw   0x0(%rax,%rax,1)

0000000000002540 <read@plt>:
    2540:	f3 0f 1e fa          	endbr64
    2544:	ff 25 ce 19 01 00    	jmp    *0x119ce(%rip)        # 13f18 <read@GLIBC_2.2.5>
    254a:	66 0f 1f 44 00 00    	nopw   0x0(%rax,%rax,1)

0000000000002550 <__strcpy_chk@plt>:
    2550:	f3 0f 1e fa          	endbr64
    2554:	ff 25 c6 19 01 00    	jmp    *0x119c6(%rip)        # 13f20 <__strcpy_chk@GLIBC_2.3.4>
    255a:	66 0f 1f 44 00 00    	nopw   0x0(%rax,%rax,1)

0000000000002560 <strcmp@plt>:
    2560:	f3 0f 1e fa          	endbr64
    2564:	ff 25 be 19 01 00    	jmp    *0x119be(%rip)        # 13f28 <strcmp@GLIBC_2.2.5>
    256a:	66 0f 1f 44 00 00    	nopw   0x0(%rax,%rax,1)

0000000000002570 <Mix_FreeMusic@plt>:
    2570:	f3 0f 1e fa          	endbr64
    2574:	ff 25 b6 19 01 00    	jmp    *0x119b6(%rip)        # 13f30 <Mix_FreeMusic@Base>
    257a:	66 0f 1f 44 00 00    	nopw   0x0(%rax,%rax,1)

0000000000002580 <sincos@plt>:
    2580:	f3 0f 1e fa          	endbr64
    2584:	ff 25 ae 19 01 00    	jmp    *0x119ae(%rip)        # 13f38 <sincos@GLIBC_2.2.5>
    258a:	66 0f 1f 44 00 00    	nopw   0x0(%rax,%rax,1)

0000000000002590 <Mix_HaltMusic@plt>:
    2590:	f3 0f 1e fa          	endbr64
    2594:	ff 25 a6 19 01 00    	jmp    *0x119a6(%rip)        # 13f40 <Mix_HaltMusic@Base>
    259a:	66 0f 1f 44 00 00    	nopw   0x0(%rax,%rax,1)

00000000000025a0 <strtol@plt>:
    25a0:	f3 0f 1e fa          	endbr64
    25a4:	ff 25 9e 19 01 00    	jmp    *0x1199e(%rip)        # 13f48 <strtol@GLIBC_2.2.5>
    25aa:	66 0f 1f 44 00 00    	nopw   0x0(%rax,%rax,1)

00000000000025b0 <__cxa_atexit@plt>:
    25b0:	f3 0f 1e fa          	endbr64
    25b4:	ff 25 96 19 01 00    	jmp    *0x11996(%rip)        # 13f50 <__cxa_atexit@GLIBC_2.2.5>
    25ba:	66 0f 1f 44 00 00    	nopw   0x0(%rax,%rax,1)

00000000000025c0 <malloc@plt>:
    25c0:	f3 0f 1e fa          	endbr64
    25c4:	ff 25 8e 19 01 00    	jmp    *0x1198e(%rip)        # 13f58 <malloc@GLIBC_2.2.5>
    25ca:	66 0f 1f 44 00 00    	nopw   0x0(%rax,%rax,1)

00000000000025d0 <puts@plt>:
    25d0:	f3 0f 1e fa          	endbr64
    25d4:	ff 25 86 19 01 00    	jmp    *0x11986(%rip)        # 13f60 <puts@GLIBC_2.2.5>
    25da:	66 0f 1f 44 00 00    	nopw   0x0(%rax,%rax,1)

00000000000025e0 <__memset_chk@plt>:
    25e0:	f3 0f 1e fa          	endbr64
    25e4:	ff 25 7e 19 01 00    	jmp    *0x1197e(%rip)        # 13f68 <__memset_chk@GLIBC_2.3.4>
    25ea:	66 0f 1f 44 00 00    	nopw   0x0(%rax,%rax,1)

00000000000025f0 <write@plt>:
    25f0:	f3 0f 1e fa          	endbr64
    25f4:	ff 25 76 19 01 00    	jmp    *0x11976(%rip)        # 13f70 <write@GLIBC_2.2.5>
    25fa:	66 0f 1f 44 00 00    	nopw   0x0(%rax,%rax,1)

0000000000002600 <__printf_chk@plt>:
    2600:	f3 0f 1e fa          	endbr64
    2604:	ff 25 6e 19 01 00    	jmp    *0x1196e(%rip)        # 13f78 <__printf_chk@GLIBC_2.3.4>
    260a:	66 0f 1f 44 00 00    	nopw   0x0(%rax,%rax,1)

0000000000002610 <Mix_AllocateChannels@plt>:
    2610:	f3 0f 1e fa          	endbr64
    2614:	ff 25 66 19 01 00    	jmp    *0x11966(%rip)        # 13f80 <Mix_AllocateChannels@Base>
    261a:	66 0f 1f 44 00 00    	nopw   0x0(%rax,%rax,1)

0000000000002620 <SDL_GetError@plt>:
    2620:	f3 0f 1e fa          	endbr64
    2624:	ff 25 5e 19 01 00    	jmp    *0x1195e(%rip)        # 13f88 <SDL_GetError@Base>
    262a:	66 0f 1f 44 00 00    	nopw   0x0(%rax,%rax,1)

0000000000002630 <usleep@plt>:
    2630:	f3 0f 1e fa          	endbr64
    2634:	ff 25 56 19 01 00    	jmp    *0x11956(%rip)        # 13f90 <usleep@GLIBC_2.2.5>
    263a:	66 0f 1f 44 00 00    	nopw   0x0(%rax,%rax,1)

0000000000002640 <fwrite@plt>:
    2640:	f3 0f 1e fa          	endbr64
    2644:	ff 25 4e 19 01 00    	jmp    *0x1194e(%rip)        # 13f98 <fwrite@GLIBC_2.2.5>
    264a:	66 0f 1f 44 00 00    	nopw   0x0(%rax,%rax,1)

0000000000002650 <SDL_GetTicks@plt>:
    2650:	f3 0f 1e fa          	endbr64
    2654:	ff 25 46 19 01 00    	jmp    *0x11946(%rip)        # 13fa0 <SDL_GetTicks@Base>
    265a:	66 0f 1f 44 00 00    	nopw   0x0(%rax,%rax,1)

0000000000002660 <putchar@plt>:
    2660:	f3 0f 1e fa          	endbr64
    2664:	ff 25 3e 19 01 00    	jmp    *0x1193e(%rip)        # 13fa8 <putchar@GLIBC_2.2.5>
    266a:	66 0f 1f 44 00 00    	nopw   0x0(%rax,%rax,1)

0000000000002670 <Mix_OpenAudio@plt>:
    2670:	f3 0f 1e fa          	endbr64
    2674:	ff 25 36 19 01 00    	jmp    *0x11936(%rip)        # 13fb0 <Mix_OpenAudio@Base>
    267a:	66 0f 1f 44 00 00    	nopw   0x0(%rax,%rax,1)

0000000000002680 <fseek@plt>:
    2680:	f3 0f 1e fa          	endbr64
    2684:	ff 25 2e 19 01 00    	jmp    *0x1192e(%rip)        # 13fb8 <fseek@GLIBC_2.2.5>
    268a:	66 0f 1f 44 00 00    	nopw   0x0(%rax,%rax,1)

0000000000002690 <fopen@plt>:
    2690:	f3 0f 1e fa          	endbr64
    2694:	ff 25 26 19 01 00    	jmp    *0x11926(%rip)        # 13fc0 <fopen@GLIBC_2.2.5>
    269a:	66 0f 1f 44 00 00    	nopw   0x0(%rax,%rax,1)

00000000000026a0 <SDL_Init@plt>:
    26a0:	f3 0f 1e fa          	endbr64
    26a4:	ff 25 1e 19 01 00    	jmp    *0x1191e(%rip)        # 13fc8 <SDL_Init@Base>
    26aa:	66 0f 1f 44 00 00    	nopw   0x0(%rax,%rax,1)

00000000000026b0 <system@plt>:
    26b0:	f3 0f 1e fa          	endbr64
    26b4:	ff 25 16 19 01 00    	jmp    *0x11916(%rip)        # 13fd0 <system@GLIBC_2.2.5>
    26ba:	66 0f 1f 44 00 00    	nopw   0x0(%rax,%rax,1)

Disassembly of section .text:

00000000000026c0 <init_hardware.cold>:

// Abre o dispositivo /dev/mydev apenas uma vez 
int init_hardware() { 
    int fd = open("/dev/mydev", O_RDWR); 
    if (fd == -1) { 
        perror("Falha ao abrir /dev/mydev"); 
    26c0:	48 8d 3d 39 cb 00 00 	lea    0xcb39(%rip),%rdi        # f200 <_IO_stdin_used+0x200>
    26c7:	e8 54 fd ff ff       	call   2420 <perror@plt>
    26cc:	e9 73 b7 00 00       	jmp    de44 <init_hardware+0xd4>

00000000000026d1 <read_pbuttons.cold>:
    if (fd == -1) return 0; 
    
    uint32_t buttons = 0; 
    
    if (ioctl(fd, RD_PBUTTONS) < 0) { 
        perror("ioctl RD_PBUTTONS falhou"); 
    26d1:	48 8d 3d 42 cb 00 00 	lea    0xcb42(%rip),%rdi        # f21a <_IO_stdin_used+0x21a>
    26d8:	e8 43 fd ff ff       	call   2420 <perror@plt>
    if (fd == -1) return 0; 
    26dd:	31 c0                	xor    %eax,%eax
    26df:	e9 2e b9 00 00       	jmp    e012 <read_pbuttons+0x62>

00000000000026e4 <carregar_nivel.cold>:
} 

void carregar_nivel(GameState *state) { 
    FILE *file = fopen(LEVEL_FILENAME, "r"); 
    if (!file) { 
        perror("Não foi possível abrir o arquivo de nível"); 
    26e4:	48 8d 3d cd cd 00 00 	lea    0xcdcd(%rip),%rdi        # f4b8 <_IO_stdin_used+0x4b8>
    26eb:	e8 30 fd ff ff       	call   2420 <perror@plt>
        exit(1); 
    26f0:	bf 01 00 00 00       	mov    $0x1,%edi
    26f5:	e8 26 fe ff ff       	call   2520 <exit@plt>

00000000000026fa <process_input.cold>:
        perror("ioctl RD_PBUTTONS falhou"); 
    26fa:	48 8d 3d 19 cb 00 00 	lea    0xcb19(%rip),%rdi        # f21a <_IO_stdin_used+0x21a>
    2701:	e8 1a fd ff ff       	call   2420 <perror@plt>
    2706:	e9 8d bd 00 00       	jmp    e498 <process_input+0x158>
    270b:	0f 1f 44 00 00       	nopl   0x0(%rax,%rax,1)

0000000000002710 <main>:
int main() { 
    2710:	f3 0f 1e fa          	endbr64
    2714:	41 56                	push   %r14
    2716:	41 55                	push   %r13
    2718:	41 54                	push   %r12
    271a:	55                   	push   %rbp
    271b:	53                   	push   %rbx
    271c:	4c 8d 9c 24 00 50 ff 	lea    -0xb000(%rsp),%r11
    2723:	ff 
    2724:	48 81 ec 00 10 00 00 	sub    $0x1000,%rsp
    272b:	48 83 0c 24 00       	orq    $0x0,(%rsp)
    2730:	4c 39 dc             	cmp    %r11,%rsp
    2733:	75 ef                	jne    2724 <main+0x14>
    2735:	48 81 ec 60 0c 00 00 	sub    $0xc60,%rsp
    signal(SIGINT, handle_sigint);
    273c:	bf 02 00 00 00       	mov    $0x2,%edi
    2741:	48 8d 35 88 b1 00 00 	lea    0xb188(%rip),%rsi        # d8d0 <handle_sigint>
int main() { 
    2748:	64 48 8b 04 25 28 00 	mov    %fs:0x28,%rax
    274f:	00 00 
    2751:	48 89 84 24 58 bc 00 	mov    %rax,0xbc58(%rsp)
    2758:	00 
    2759:	31 c0                	xor    %eax,%eax
    signal(SIGINT, handle_sigint);
    275b:	e8 f0 fc ff ff       	call   2450 <signal@plt>
    enableRawMode(); 
    2760:	31 c0                	xor    %eax,%eax
    2762:	e8 a9 b4 00 00       	call   dc10 <enableRawMode>
    init_terminal(); 
    2767:	31 c0                	xor    %eax,%eax
    2769:	e8 c2 b5 00 00       	call   dd30 <init_terminal>
    if (SDL_Init(SDL_INIT_AUDIO | SDL_INIT_TIMER) < 0) { 
    276e:	bf 11 00 00 00       	mov    $0x11,%edi
    2773:	e8 28 ff ff ff       	call   26a0 <SDL_Init@plt>
    2778:	85 c0                	test   %eax,%eax
    277a:	0f 88 07 05 00 00    	js     2c87 <main+0x577>
    if (Mix_OpenAudio(44100, MIX_DEFAULT_FORMAT, 2, 4096) < 0) { 
    2780:	b9 00 10 00 00       	mov    $0x1000,%ecx
    2785:	ba 02 00 00 00       	mov    $0x2,%edx
    278a:	be 10 80 00 00       	mov    $0x8010,%esi
    278f:	bf 44 ac 00 00       	mov    $0xac44,%edi
    2794:	e8 d7 fe ff ff       	call   2670 <Mix_OpenAudio@plt>
    2799:	85 c0                	test   %eax,%eax
    279b:	0f 88 bd 04 00 00    	js     2c5e <main+0x54e>
    Mix_AllocateChannels(16); 
    27a1:	bf 10 00 00 00       	mov    $0x10,%edi
   case no work is done at all.  We detect these problems by referring
   non-existing functions.  */
__fortify_function void *
__NTH (memset (void *__dest, int __ch, size_t __len))
{
  return __builtin___memset_chk (__dest, __ch, __len,
    27a6:	48 8d ac 24 a0 00 00 	lea    0xa0(%rsp),%rbp
    27ad:	00 
    27ae:	e8 5d fe ff ff       	call   2610 <Mix_AllocateChannels@plt>
    27b3:	ba b0 bb 00 00       	mov    $0xbbb0,%edx
    27b8:	31 f6                	xor    %esi,%esi
    27ba:	48 89 ef             	mov    %rbp,%rdi
    27bd:	e8 6e fc ff ff       	call   2430 <memset@plt>
    game_state.fd_hardware = init_hardware(); 
    27c2:	31 c0                	xor    %eax,%eax
    27c4:	e8 a7 b5 00 00       	call   dd70 <init_hardware>
    27c9:	89 84 24 4c bc 00 00 	mov    %eax,0xbc4c(%rsp)
    if (game_state.fd_hardware == -1) { 
    27d0:	83 f8 ff             	cmp    $0xffffffff,%eax
    27d3:	0f 84 61 04 00 00    	je     2c3a <main+0x52a>
    AudioData *audio_data = load_mp3_file(arquivo_musica); 
    27d9:	4c 8d 25 c9 ca 00 00 	lea    0xcac9(%rip),%r12        # f2a9 <_IO_stdin_used+0x2a9>
    27e0:	4c 89 e7             	mov    %r12,%rdi
    27e3:	e8 d8 79 00 00       	call   a1c0 <load_mp3_file>
    27e8:	48 89 c3             	mov    %rax,%rbx
    if (!audio_data) { 
    27eb:	48 85 c0             	test   %rax,%rax
    27ee:	0f 84 1f 04 00 00    	je     2c13 <main+0x503>
    analyze_audio_to_file(audio_data, LEVEL_FILENAME); 
    27f4:	48 89 c7             	mov    %rax,%rdi
    27f7:	48 8d 35 44 ca 00 00 	lea    0xca44(%rip),%rsi        # f242 <_IO_stdin_used+0x242>
    27fe:	e8 3d 7c 00 00       	call   a440 <analyze_audio_to_file>
    free_audio_data(audio_data); 
    2803:	48 89 df             	mov    %rbx,%rdi
    2806:	e8 05 7c 00 00       	call   a410 <free_audio_data>
    carregar_nivel(&game_state); 
    280b:	48 89 ef             	mov    %rbp,%rdi
    280e:	e8 ed b8 00 00       	call   e100 <carregar_nivel>
    state->score = 0; 
    2813:	66 0f 6f 05 65 ef 00 	movdqa 0xef65(%rip),%xmm0        # 11780 <g_pow43+0x360>
    281a:	00 
    for (int i = 0; i < state->note_count; i++) { 
    281b:	8b 9c 24 40 bc 00 00 	mov    0xbc40(%rsp),%ebx
    state->musica_playing = 0; 
    2822:	c7 84 24 b4 00 00 00 	movl   $0x0,0xb4(%rsp)
    2829:	00 00 00 00 
    state->score = 0; 
    282d:	0f 29 84 24 a0 00 00 	movaps %xmm0,0xa0(%rsp)
    2834:	00 
    for (int i = 0; i < state->note_count; i++) { 
    2835:	85 db                	test   %ebx,%ebx
    2837:	7e 54                	jle    288d <main+0x17d>
    2839:	83 fb 01             	cmp    $0x1,%ebx
    283c:	0f 84 8f 03 00 00    	je     2bd1 <main+0x4c1>
    2842:	89 da                	mov    %ebx,%edx
    2844:	48 89 e8             	mov    %rbp,%rax
    2847:	d1 ea                	shr    $1,%edx
    2849:	48 8d 14 52          	lea    (%rdx,%rdx,2),%rdx
    284d:	48 c1 e2 04          	shl    $0x4,%rdx
    2851:	48 01 ea             	add    %rbp,%rdx
    2854:	0f 1f 40 00          	nopl   0x0(%rax)
        state->level_notes[i].foi_processada = 0; 
    2858:	48 c7 40 30 00 00 00 	movq   $0x0,0x30(%rax)
    285f:	00 
    2860:	48 83 c0 30          	add    $0x30,%rax
    2864:	48 c7 40 18 00 00 00 	movq   $0x0,0x18(%rax)
    286b:	00 
    for (int i = 0; i < state->note_count; i++) { 
    286c:	48 39 c2             	cmp    %rax,%rdx
    286f:	75 e7                	jne    2858 <main+0x148>
    2871:	f6 c3 01             	test   $0x1,%bl
    2874:	74 17                	je     288d <main+0x17d>
    2876:	89 d8                	mov    %ebx,%eax
    2878:	83 e0 fe             	and    $0xfffffffe,%eax
        state->level_notes[i].foi_processada = 0; 
    287b:	48 98                	cltq
    287d:	48 8d 04 40          	lea    (%rax,%rax,2),%rax
    2881:	48 c7 84 c4 d0 00 00 	movq   $0x0,0xd0(%rsp,%rax,8)
    2888:	00 00 00 00 00 
      if (__OPEN_NEEDS_MODE (__oflag) && __va_arg_pack_len () < 1)
	{
	  __open_missing_mode ();
	  return __open_2 (__path, __oflag);
	}
      return __open_alias (__path, __oflag, __va_arg_pack ());
    288d:	be 00 08 00 00       	mov    $0x800,%esi
    2892:	31 c0                	xor    %eax,%eax
    2894:	48 8d 3d 98 c9 00 00 	lea    0xc998(%rip),%rdi        # f233 <_IO_stdin_used+0x233>
    state->fd_pbuttons = -1; 
    289b:	c7 84 24 48 bc 00 00 	movl   $0xffffffff,0xbc48(%rsp)
    28a2:	ff ff ff ff 
    28a6:	e8 d5 fb ff ff       	call   2480 <open@plt>
    28ab:	41 89 c5             	mov    %eax,%r13d
    if (joy_fd == -1) { 
    28ae:	83 f8 ff             	cmp    $0xffffffff,%eax
    28b1:	0f 84 09 03 00 00    	je     2bc0 <main+0x4b0>
    game_state.musica = Mix_LoadMUS(arquivo_musica); 
    28b7:	4c 89 e7             	mov    %r12,%rdi
    game_state.joy_fd = init_joystick(&game_state); 
    28ba:	44 89 ac 24 44 bc 00 	mov    %r13d,0xbc44(%rsp)
    28c1:	00 
    game_state.musica = Mix_LoadMUS(arquivo_musica); 
    28c2:	e8 29 fc ff ff       	call   24f0 <Mix_LoadMUS@plt>
    28c7:	48 89 84 24 b8 00 00 	mov    %rax,0xb8(%rsp)
    28ce:	00 
    28cf:	49 89 c5             	mov    %rax,%r13
    if (game_state.musica == NULL) { 
    28d2:	48 85 c0             	test   %rax,%rax
    28d5:	0f 84 02 03 00 00    	je     2bdd <main+0x4cd>
    if (system("clear") != 0) { 
    28db:	48 8d 3d 70 c9 00 00 	lea    0xc970(%rip),%rdi        # f252 <_IO_stdin_used+0x252>
    28e2:	e8 c9 fd ff ff       	call   26b0 <system@plt>
    28e7:	85 c0                	test   %eax,%eax
    28e9:	0f 85 88 02 00 00    	jne    2b77 <main+0x467>
}

__fortify_function int
printf (const char *__restrict __fmt, ...)
{
  return __printf_chk (__USE_FORTIFY_LEVEL - 1, __fmt, __va_arg_pack ());
    28ef:	48 8d 3d cb c9 00 00 	lea    0xc9cb(%rip),%rdi        # f2c1 <_IO_stdin_used+0x2c1>
    for (int i = 3; i > 0; i--) { 
    28f6:	41 bc 03 00 00 00    	mov    $0x3,%r12d
    28fc:	4c 8d 35 d3 c9 00 00 	lea    0xc9d3(%rip),%r14        # f2d6 <_IO_stdin_used+0x2d6>
    2903:	e8 c8 fc ff ff       	call   25d0 <puts@plt>
    2908:	44 89 e2             	mov    %r12d,%edx
    290b:	4c 89 f6             	mov    %r14,%rsi
    290e:	bf 02 00 00 00       	mov    $0x2,%edi
    2913:	31 c0                	xor    %eax,%eax
    2915:	e8 e6 fc ff ff       	call   2600 <__printf_chk@plt>
        fflush(stdout); 
    291a:	48 8b 3d 9f 18 01 00 	mov    0x1189f(%rip),%rdi        # 141c0 <stdout@GLIBC_2.2.5>
    2921:	e8 8a fb ff ff       	call   24b0 <fflush@plt>
        SDL_Delay(1000); 
    2926:	bf e8 03 00 00       	mov    $0x3e8,%edi
    292b:	e8 60 fb ff ff       	call   2490 <SDL_Delay@plt>
    for (int i = 3; i > 0; i--) { 
    2930:	41 83 ec 01          	sub    $0x1,%r12d
    2934:	75 d2                	jne    2908 <main+0x1f8>
    2936:	48 8d 3d ac c9 00 00 	lea    0xc9ac(%rip),%rdi        # f2e9 <_IO_stdin_used+0x2e9>
    293d:	e8 8e fc ff ff       	call   25d0 <puts@plt>
    if (Mix_PlayMusic(game_state.musica, 1) == -1) { 
    2942:	be 01 00 00 00       	mov    $0x1,%esi
    2947:	4c 89 ef             	mov    %r13,%rdi
    294a:	e8 c1 fb ff ff       	call   2510 <Mix_PlayMusic@plt>
    294f:	83 f8 ff             	cmp    $0xffffffff,%eax
    2952:	0f 84 41 02 00 00    	je     2b99 <main+0x489>
        game_state.musica_playing = 1; 
    2958:	c7 84 24 b4 00 00 00 	movl   $0x1,0xb4(%rsp)
    295f:	01 00 00 00 
    game_state.start_time = SDL_GetTicks(); 
    2963:	e8 e8 fc ff ff       	call   2650 <SDL_GetTicks@plt>
    SDL_Delay(50); 
    2968:	bf 32 00 00 00       	mov    $0x32,%edi
    game_state.start_time = SDL_GetTicks(); 
    296d:	89 84 24 b0 00 00 00 	mov    %eax,0xb0(%rsp)
    SDL_Delay(50); 
    2974:	e8 17 fb ff ff       	call   2490 <SDL_Delay@plt>
        game_state.level_notes[game_state.note_count - 1].timestamp + 2.0f : 5.0f; 
    2979:	f3 0f 10 25 9b c7 00 	movss  0xc79b(%rip),%xmm4        # f11c <_IO_stdin_used+0x11c>
    2980:	00 
    2981:	66 41 0f 7e e5       	movd   %xmm4,%r13d
    2986:	85 db                	test   %ebx,%ebx
    2988:	7e 1f                	jle    29a9 <main+0x299>
    298a:	8d 43 ff             	lea    -0x1(%rbx),%eax
    298d:	f3 0f 10 05 8b c7 00 	movss  0xc78b(%rip),%xmm0        # f120 <_IO_stdin_used+0x120>
    2994:	00 
    2995:	48 98                	cltq
    2997:	48 6b c0 18          	imul   $0x18,%rax,%rax
    299b:	f3 0f 58 84 04 c0 00 	addss  0xc0(%rsp,%rax,1),%xmm0
    29a2:	00 00 
    29a4:	66 41 0f 7e c5       	movd   %xmm0,%r13d
    while (!game_state.game_over && game_state.musica_playing && !game_should_exit) { 
    29a9:	31 c0                	xor    %eax,%eax
    29ab:	eb 59                	jmp    2a06 <main+0x2f6>
    29ad:	0f 1f 00             	nopl   (%rax)
        render_game(&game_state, tempo_decorrido); 
    29b0:	66 49 0f 6e c6       	movq   %r14,%xmm0
    29b5:	48 89 ef             	mov    %rbp,%rdi
    29b8:	e8 e3 bc 00 00       	call   e6a0 <render_game>
        if (!Mix_PlayingMusic()) { 
    29bd:	e8 0e fa ff ff       	call   23d0 <Mix_PlayingMusic@plt>
    29c2:	85 c0                	test   %eax,%eax
    29c4:	75 0b                	jne    29d1 <main+0x2c1>
            game_state.musica_playing = 0; 
    29c6:	c7 84 24 b4 00 00 00 	movl   $0x0,0xb4(%rsp)
    29cd:	00 00 00 00 
        Uint32 frame_time = SDL_GetTicks() - frame_start; 
    29d1:	e8 7a fc ff ff       	call   2650 <SDL_GetTicks@plt>
    29d6:	89 c2                	mov    %eax,%edx
    29d8:	29 da                	sub    %ebx,%edx
        if (frame_time < FRAME_DELAY) { 
    29da:	83 fa 0f             	cmp    $0xf,%edx
    29dd:	0f 86 9d 00 00 00    	jbe    2a80 <main+0x370>
        if (tempo_decorrido > tempo_final_do_nivel) { 
    29e3:	66 41 0f 6e ed       	movd   %r13d,%xmm5
    29e8:	66 0f ef c0          	pxor   %xmm0,%xmm0
    29ec:	66 49 0f 6e d6       	movq   %r14,%xmm2
    29f1:	f3 0f 5a c5          	cvtss2sd %xmm5,%xmm0
    29f5:	66 0f 2f d0          	comisd %xmm0,%xmm2
    29f9:	0f 87 5a 01 00 00    	ja     2b59 <main+0x449>
    while (!game_state.game_over && game_state.musica_playing && !game_should_exit) { 
    29ff:	8b 84 24 ac 00 00 00 	mov    0xac(%rsp),%eax
    2a06:	85 c0                	test   %eax,%eax
    2a08:	0f 85 56 01 00 00    	jne    2b64 <main+0x454>
    2a0e:	8b 94 24 b4 00 00 00 	mov    0xb4(%rsp),%edx
    2a15:	85 d2                	test   %edx,%edx
    2a17:	74 76                	je     2a8f <main+0x37f>
    2a19:	8b 05 01 18 01 00    	mov    0x11801(%rip),%eax        # 14220 <game_should_exit>
    2a1f:	85 c0                	test   %eax,%eax
    2a21:	75 6c                	jne    2a8f <main+0x37f>
        Uint32 frame_start = SDL_GetTicks(); 
    2a23:	e8 28 fc ff ff       	call   2650 <SDL_GetTicks@plt>
        double tempo_decorrido = (double)(frame_start - game_state.start_time) / 1000.0; 
    2a28:	66 0f ef c0          	pxor   %xmm0,%xmm0
        Uint32 frame_start = SDL_GetTicks(); 
    2a2c:	89 c3                	mov    %eax,%ebx
        double tempo_decorrido = (double)(frame_start - game_state.start_time) / 1000.0; 
    2a2e:	2b 84 24 b0 00 00 00 	sub    0xb0(%rsp),%eax
    2a35:	f2 48 0f 2a c0       	cvtsi2sd %rax,%xmm0
    2a3a:	f2 0f 5e 05 f6 ed 00 	divsd  0xedf6(%rip),%xmm0        # 11838 <g_pow43+0x418>
    2a41:	00 
        if (tempo_decorrido > 0.5f) { 
    2a42:	66 0f 2f 05 e6 ed 00 	comisd 0xede6(%rip),%xmm0        # 11830 <g_pow43+0x410>
    2a49:	00 
        double tempo_decorrido = (double)(frame_start - game_state.start_time) / 1000.0; 
    2a4a:	66 49 0f 7e c6       	movq   %xmm0,%r14
        if (tempo_decorrido > 0.5f) { 
    2a4f:	0f 86 5b ff ff ff    	jbe    29b0 <main+0x2a0>
            process_input(&game_state, tempo_decorrido - 0.5f); 
    2a55:	f2 0f 5c 05 d3 ed 00 	subsd  0xedd3(%rip),%xmm0        # 11830 <g_pow43+0x410>
    2a5c:	00 
    2a5d:	48 89 ef             	mov    %rbp,%rdi
    2a60:	f2 0f 11 44 24 08    	movsd  %xmm0,0x8(%rsp)
    2a66:	e8 d5 b8 00 00       	call   e340 <process_input>
            update_game(&game_state, tempo_decorrido - 0.5f); 
    2a6b:	f2 0f 10 44 24 08    	movsd  0x8(%rsp),%xmm0
    2a71:	48 89 ef             	mov    %rbp,%rdi
    2a74:	e8 07 bb 00 00       	call   e580 <update_game>
    2a79:	e9 32 ff ff ff       	jmp    29b0 <main+0x2a0>
    2a7e:	66 90                	xchg   %ax,%ax
            SDL_Delay(FRAME_DELAY - frame_time); 
    2a80:	8d 7b 10             	lea    0x10(%rbx),%edi
    2a83:	29 c7                	sub    %eax,%edi
    2a85:	e8 06 fa ff ff       	call   2490 <SDL_Delay@plt>
    2a8a:	e9 54 ff ff ff       	jmp    29e3 <main+0x2d3>
    if (game_state.game_over || game_should_exit) { 
    2a8f:	8b 05 8b 17 01 00    	mov    0x1178b(%rip),%eax        # 14220 <game_should_exit>
    2a95:	85 c0                	test   %eax,%eax
    2a97:	0f 85 c7 00 00 00    	jne    2b64 <main+0x454>
    2a9d:	4c 8d 6c 24 10       	lea    0x10(%rsp),%r13
    2aa2:	48 8d 5c 24 20       	lea    0x20(%rsp),%rbx
    struct timeval tv = {0, 0}; 
    2aa7:	66 0f ef c9          	pxor   %xmm1,%xmm1
    2aab:	eb 27                	jmp    2ad4 <main+0x3c4>
    2aad:	0f 1f 00             	nopl   (%rax)
        if (game_should_exit) break; // Sai se Ctrl+C foi pressionado
    2ab0:	8b 05 6a 17 01 00    	mov    0x1176a(%rip),%eax        # 14220 <game_should_exit>
    2ab6:	85 c0                	test   %eax,%eax
    2ab8:	75 6d                	jne    2b27 <main+0x417>
        render_game(&game_state, 0); 
    2aba:	66 0f ef c0          	pxor   %xmm0,%xmm0
    2abe:	48 89 ef             	mov    %rbp,%rdi
    2ac1:	e8 da bb 00 00       	call   e6a0 <render_game>
        SDL_Delay(100); 
    2ac6:	bf 64 00 00 00       	mov    $0x64,%edi
    2acb:	e8 c0 f9 ff ff       	call   2490 <SDL_Delay@plt>
    2ad0:	66 0f ef c9          	pxor   %xmm1,%xmm1
    FD_SET(STDIN_FILENO, &fds); 
    2ad4:	66 0f 6f 1d b4 ec 00 	movdqa 0xecb4(%rip),%xmm3        # 11790 <g_pow43+0x370>
    2adb:	00 
    return select(STDIN_FILENO + 1, &fds, NULL, NULL, &tv) > 0; 
    2adc:	31 c9                	xor    %ecx,%ecx
    2ade:	31 d2                	xor    %edx,%edx
    2ae0:	4d 89 e8             	mov    %r13,%r8
    2ae3:	48 89 de             	mov    %rbx,%rsi
    2ae6:	bf 01 00 00 00       	mov    $0x1,%edi
    struct timeval tv = {0, 0}; 
    2aeb:	0f 29 4c 24 10       	movaps %xmm1,0x10(%rsp)
    FD_SET(STDIN_FILENO, &fds); 
    2af0:	0f 29 5c 24 20       	movaps %xmm3,0x20(%rsp)
    2af5:	0f 29 4c 24 30       	movaps %xmm1,0x30(%rsp)
    2afa:	0f 29 4c 24 40       	movaps %xmm1,0x40(%rsp)
    2aff:	0f 29 4c 24 50       	movaps %xmm1,0x50(%rsp)
    2b04:	0f 29 4c 24 60       	movaps %xmm1,0x60(%rsp)
    2b09:	0f 29 4c 24 70       	movaps %xmm1,0x70(%rsp)
    2b0e:	0f 29 8c 24 80 00 00 	movaps %xmm1,0x80(%rsp)
    2b15:	00 
    2b16:	0f 29 8c 24 90 00 00 	movaps %xmm1,0x90(%rsp)
    2b1d:	00 
    return select(STDIN_FILENO + 1, &fds, NULL, NULL, &tv) > 0; 
    2b1e:	e8 5d f8 ff ff       	call   2380 <select@plt>
    while (!kbhit()) { 
    2b23:	85 c0                	test   %eax,%eax
    2b25:	7e 89                	jle    2ab0 <main+0x3a0>
    finalizar_jogo(&game_state); 
    2b27:	48 89 ef             	mov    %rbp,%rdi
    2b2a:	e8 11 bf 00 00       	call   ea40 <finalizar_jogo>
} 
    2b2f:	48 8b 84 24 58 bc 00 	mov    0xbc58(%rsp),%rax
    2b36:	00 
    2b37:	64 48 2b 04 25 28 00 	sub    %fs:0x28,%rax
    2b3e:	00 00 
    2b40:	0f 85 92 00 00 00    	jne    2bd8 <main+0x4c8>
    2b46:	48 81 c4 60 bc 00 00 	add    $0xbc60,%rsp
    2b4d:	44 89 e0             	mov    %r12d,%eax
    2b50:	5b                   	pop    %rbx
    2b51:	5d                   	pop    %rbp
    2b52:	41 5c                	pop    %r12
    2b54:	41 5d                	pop    %r13
    2b56:	41 5e                	pop    %r14
    2b58:	c3                   	ret
            game_state.game_over = 1; 
    2b59:	c7 84 24 ac 00 00 00 	movl   $0x1,0xac(%rsp)
    2b60:	01 00 00 00 
        Mix_HaltMusic(); 
    2b64:	e8 27 fa ff ff       	call   2590 <Mix_HaltMusic@plt>
        game_state.musica_playing = 0; 
    2b69:	31 c0                	xor    %eax,%eax
    2b6b:	89 84 24 b4 00 00 00 	mov    %eax,0xb4(%rsp)
    2b72:	e9 26 ff ff ff       	jmp    2a9d <main+0x38d>
  return __fprintf_chk (__stream, __USE_FORTIFY_LEVEL - 1, __fmt,
    2b77:	48 8b 0d 62 16 01 00 	mov    0x11662(%rip),%rcx        # 141e0 <stderr@GLIBC_2.2.5>
    2b7e:	ba 15 00 00 00       	mov    $0x15,%edx
    2b83:	be 01 00 00 00       	mov    $0x1,%esi
    2b88:	48 8d 3d c9 c6 00 00 	lea    0xc6c9(%rip),%rdi        # f258 <_IO_stdin_used+0x258>
    2b8f:	e8 ac fa ff ff       	call   2640 <fwrite@plt>
    2b94:	e9 56 fd ff ff       	jmp    28ef <main+0x1df>
        fprintf(stderr, "Erro ao tocar musica: %s\n", Mix_GetError()); 
    2b99:	e8 82 fa ff ff       	call   2620 <SDL_GetError@plt>
    2b9e:	48 8b 3d 3b 16 01 00 	mov    0x1163b(%rip),%rdi        # 141e0 <stderr@GLIBC_2.2.5>
    2ba5:	be 02 00 00 00       	mov    $0x2,%esi
    2baa:	48 8d 15 40 c7 00 00 	lea    0xc740(%rip),%rdx        # f2f1 <_IO_stdin_used+0x2f1>
    2bb1:	48 89 c1             	mov    %rax,%rcx
    2bb4:	31 c0                	xor    %eax,%eax
    2bb6:	e8 35 f8 ff ff       	call   23f0 <__fprintf_chk@plt>
    2bbb:	e9 a3 fd ff ff       	jmp    2963 <main+0x253>
  return __printf_chk (__USE_FORTIFY_LEVEL - 1, __fmt, __va_arg_pack ());
    2bc0:	48 8d 3d c1 c8 00 00 	lea    0xc8c1(%rip),%rdi        # f488 <_IO_stdin_used+0x488>
    2bc7:	e8 04 fa ff ff       	call   25d0 <puts@plt>
    2bcc:	e9 e6 fc ff ff       	jmp    28b7 <main+0x1a7>
    for (int i = 0; i < state->note_count; i++) { 
    2bd1:	31 c0                	xor    %eax,%eax
    2bd3:	e9 a3 fc ff ff       	jmp    287b <main+0x16b>
} 
    2bd8:	e8 33 f8 ff ff       	call   2410 <__stack_chk_fail@plt>
        fprintf(stderr, "Não foi possível carregar a música '%s': %s\n", arquivo_musica, Mix_GetError()); 
    2bdd:	e8 3e fa ff ff       	call   2620 <SDL_GetError@plt>
  return __fprintf_chk (__stream, __USE_FORTIFY_LEVEL - 1, __fmt,
    2be2:	48 8b 3d f7 15 01 00 	mov    0x115f7(%rip),%rdi        # 141e0 <stderr@GLIBC_2.2.5>
    2be9:	4c 89 e1             	mov    %r12,%rcx
    2bec:	48 8d 15 2d cb 00 00 	lea    0xcb2d(%rip),%rdx        # f720 <_IO_stdin_used+0x720>
    2bf3:	49 89 c0             	mov    %rax,%r8
    2bf6:	be 02 00 00 00       	mov    $0x2,%esi
    2bfb:	31 c0                	xor    %eax,%eax
    2bfd:	e8 ee f7 ff ff       	call   23f0 <__fprintf_chk@plt>
        finalizar_jogo(&game_state); 
    2c02:	48 89 ef             	mov    %rbp,%rdi
    2c05:	e8 36 be 00 00       	call   ea40 <finalizar_jogo>
        return -1; 
    2c0a:	41 83 cc ff          	or     $0xffffffff,%r12d
    2c0e:	e9 1c ff ff ff       	jmp    2b2f <main+0x41f>
    2c13:	48 8b 0d c6 15 01 00 	mov    0x115c6(%rip),%rcx        # 141e0 <stderr@GLIBC_2.2.5>
    2c1a:	ba 27 00 00 00       	mov    $0x27,%edx
    2c1f:	be 01 00 00 00       	mov    $0x1,%esi
    2c24:	48 8d 3d cd ca 00 00 	lea    0xcacd(%rip),%rdi        # f6f8 <_IO_stdin_used+0x6f8>
    2c2b:	e8 10 fa ff ff       	call   2640 <fwrite@plt>
        finalizar_jogo(&game_state); 
    2c30:	48 89 ef             	mov    %rbp,%rdi
    2c33:	e8 08 be 00 00       	call   ea40 <finalizar_jogo>
        return -1; 
    2c38:	eb d0                	jmp    2c0a <main+0x4fa>
    2c3a:	48 8b 0d 9f 15 01 00 	mov    0x1159f(%rip),%rcx        # 141e0 <stderr@GLIBC_2.2.5>
    2c41:	ba 69 00 00 00       	mov    $0x69,%edx
    2c46:	be 01 00 00 00       	mov    $0x1,%esi
    2c4b:	48 8d 3d 36 ca 00 00 	lea    0xca36(%rip),%rdi        # f688 <_IO_stdin_used+0x688>
    2c52:	e8 e9 f9 ff ff       	call   2640 <fwrite@plt>
        SDL_Quit(); 
    2c57:	e8 e4 f7 ff ff       	call   2440 <SDL_Quit@plt>
        return -1; 
    2c5c:	eb ac                	jmp    2c0a <main+0x4fa>
        fprintf(stderr, "Não foi possível inicializar o SDL_mixer: %s\n", Mix_GetError()); 
    2c5e:	e8 bd f9 ff ff       	call   2620 <SDL_GetError@plt>
    2c63:	48 8b 3d 76 15 01 00 	mov    0x11576(%rip),%rdi        # 141e0 <stderr@GLIBC_2.2.5>
    2c6a:	be 02 00 00 00       	mov    $0x2,%esi
    2c6f:	48 8d 15 e2 c9 00 00 	lea    0xc9e2(%rip),%rdx        # f658 <_IO_stdin_used+0x658>
    2c76:	48 89 c1             	mov    %rax,%rcx
    2c79:	31 c0                	xor    %eax,%eax
    2c7b:	e8 70 f7 ff ff       	call   23f0 <__fprintf_chk@plt>
        SDL_Quit(); 
    2c80:	e8 bb f7 ff ff       	call   2440 <SDL_Quit@plt>
        return -1; 
    2c85:	eb 83                	jmp    2c0a <main+0x4fa>
        fprintf(stderr, "Não foi possível inicializar o SDL: %s\n", SDL_GetError()); 
    2c87:	e8 94 f9 ff ff       	call   2620 <SDL_GetError@plt>
    2c8c:	48 8b 3d 4d 15 01 00 	mov    0x1154d(%rip),%rdi        # 141e0 <stderr@GLIBC_2.2.5>
    2c93:	be 02 00 00 00       	mov    $0x2,%esi
    2c98:	48 8d 15 89 c9 00 00 	lea    0xc989(%rip),%rdx        # f628 <_IO_stdin_used+0x628>
    2c9f:	48 89 c1             	mov    %rax,%rcx
    2ca2:	31 c0                	xor    %eax,%eax
    2ca4:	e8 47 f7 ff ff       	call   23f0 <__fprintf_chk@plt>
        return -1; 
    2ca9:	e9 5c ff ff ff       	jmp    2c0a <main+0x4fa>
    2cae:	66 90                	xchg   %ax,%ax

0000000000002cb0 <_start>:
    2cb0:	f3 0f 1e fa          	endbr64
    2cb4:	31 ed                	xor    %ebp,%ebp
    2cb6:	49 89 d1             	mov    %rdx,%r9
    2cb9:	5e                   	pop    %rsi
    2cba:	48 89 e2             	mov    %rsp,%rdx
    2cbd:	48 83 e4 f0          	and    $0xfffffffffffffff0,%rsp
    2cc1:	50                   	push   %rax
    2cc2:	54                   	push   %rsp
    2cc3:	45 31 c0             	xor    %r8d,%r8d
    2cc6:	31 c9                	xor    %ecx,%ecx
    2cc8:	48 8d 3d 41 fa ff ff 	lea    -0x5bf(%rip),%rdi        # 2710 <main>
    2ccf:	ff 15 23 13 01 00    	call   *0x11323(%rip)        # 13ff8 <__libc_start_main@GLIBC_2.34>
    2cd5:	f4                   	hlt
    2cd6:	66 2e 0f 1f 84 00 00 	cs nopw 0x0(%rax,%rax,1)
    2cdd:	00 00 00 

0000000000002ce0 <deregister_tm_clones>:
    2ce0:	48 8d 3d c1 14 01 00 	lea    0x114c1(%rip),%rdi        # 141a8 <__TMC_END__>
    2ce7:	48 8d 05 ba 14 01 00 	lea    0x114ba(%rip),%rax        # 141a8 <__TMC_END__>
    2cee:	48 39 f8             	cmp    %rdi,%rax
    2cf1:	74 15                	je     2d08 <deregister_tm_clones+0x28>
    2cf3:	48 8b 05 de 12 01 00 	mov    0x112de(%rip),%rax        # 13fd8 <_ITM_deregisterTMCloneTable@Base>
    2cfa:	48 85 c0             	test   %rax,%rax
    2cfd:	74 09                	je     2d08 <deregister_tm_clones+0x28>
    2cff:	ff e0                	jmp    *%rax
    2d01:	0f 1f 80 00 00 00 00 	nopl   0x0(%rax)
    2d08:	c3                   	ret
    2d09:	0f 1f 80 00 00 00 00 	nopl   0x0(%rax)

0000000000002d10 <register_tm_clones>:
    2d10:	48 8d 3d 91 14 01 00 	lea    0x11491(%rip),%rdi        # 141a8 <__TMC_END__>
    2d17:	48 8d 35 8a 14 01 00 	lea    0x1148a(%rip),%rsi        # 141a8 <__TMC_END__>
    2d1e:	48 29 fe             	sub    %rdi,%rsi
    2d21:	48 89 f0             	mov    %rsi,%rax
    2d24:	48 c1 ee 3f          	shr    $0x3f,%rsi
    2d28:	48 c1 f8 03          	sar    $0x3,%rax
    2d2c:	48 01 c6             	add    %rax,%rsi
    2d2f:	48 d1 fe             	sar    $1,%rsi
    2d32:	74 14                	je     2d48 <register_tm_clones+0x38>
    2d34:	48 8b 05 b5 12 01 00 	mov    0x112b5(%rip),%rax        # 13ff0 <_ITM_registerTMCloneTable@Base>
    2d3b:	48 85 c0             	test   %rax,%rax
    2d3e:	74 08                	je     2d48 <register_tm_clones+0x38>
    2d40:	ff e0                	jmp    *%rax
    2d42:	66 0f 1f 44 00 00    	nopw   0x0(%rax,%rax,1)
    2d48:	c3                   	ret
    2d49:	0f 1f 80 00 00 00 00 	nopl   0x0(%rax)

0000000000002d50 <__do_global_dtors_aux>:
    2d50:	f3 0f 1e fa          	endbr64
    2d54:	80 3d 9d 14 01 00 00 	cmpb   $0x0,0x1149d(%rip)        # 141f8 <completed.0>
    2d5b:	75 2b                	jne    2d88 <__do_global_dtors_aux+0x38>
    2d5d:	55                   	push   %rbp
    2d5e:	48 83 3d 7a 12 01 00 	cmpq   $0x0,0x1127a(%rip)        # 13fe0 <__cxa_finalize@GLIBC_2.2.5>
    2d65:	00 
    2d66:	48 89 e5             	mov    %rsp,%rbp
    2d69:	74 0c                	je     2d77 <__do_global_dtors_aux+0x27>
    2d6b:	48 8b 3d 96 12 01 00 	mov    0x11296(%rip),%rdi        # 14008 <__dso_handle>
    2d72:	e8 f9 f5 ff ff       	call   2370 <__cxa_finalize@plt>
    2d77:	e8 64 ff ff ff       	call   2ce0 <deregister_tm_clones>
    2d7c:	c6 05 75 14 01 00 01 	movb   $0x1,0x11475(%rip)        # 141f8 <completed.0>
    2d83:	5d                   	pop    %rbp
    2d84:	c3                   	ret
    2d85:	0f 1f 00             	nopl   (%rax)
    2d88:	c3                   	ret
    2d89:	0f 1f 80 00 00 00 00 	nopl   0x0(%rax)

0000000000002d90 <frame_dummy>:
    2d90:	f3 0f 1e fa          	endbr64
    2d94:	e9 77 ff ff ff       	jmp    2d10 <register_tm_clones>
    2d99:	0f 1f 80 00 00 00 00 	nopl   0x0(%rax)

0000000000002da0 <hdr_compare>:
    2da0:	31 c0                	xor    %eax,%eax
    2da2:	80 3e ff             	cmpb   $0xff,(%rsi)
    2da5:	74 09                	je     2db0 <hdr_compare+0x10>
    2da7:	c3                   	ret
    2da8:	0f 1f 84 00 00 00 00 	nopl   0x0(%rax,%rax,1)
    2daf:	00 
    2db0:	0f b6 56 01          	movzbl 0x1(%rsi),%edx
    2db4:	89 d1                	mov    %edx,%ecx
    2db6:	f7 d1                	not    %ecx
    2db8:	81 e1 f0 00 00 00    	and    $0xf0,%ecx
    2dbe:	74 50                	je     2e10 <hdr_compare+0x70>
    2dc0:	89 d1                	mov    %edx,%ecx
    2dc2:	83 e1 fe             	and    $0xfffffffe,%ecx
    2dc5:	80 f9 e2             	cmp    $0xe2,%cl
    2dc8:	75 dd                	jne    2da7 <hdr_compare+0x7>
    2dca:	0f b6 4e 02          	movzbl 0x2(%rsi),%ecx
    2dce:	31 c0                	xor    %eax,%eax
    2dd0:	89 ce                	mov    %ecx,%esi
    2dd2:	40 c0 ee 04          	shr    $0x4,%sil
    2dd6:	40 80 fe 0f          	cmp    $0xf,%sil
    2dda:	74 cb                	je     2da7 <hdr_compare+0x7>
    2ddc:	89 ce                	mov    %ecx,%esi
    2dde:	f7 d6                	not    %esi
    2de0:	83 e6 0c             	and    $0xc,%esi
    2de3:	74 c2                	je     2da7 <hdr_compare+0x7>
    2de5:	32 57 01             	xor    0x1(%rdi),%dl
    2de8:	80 fa 01             	cmp    $0x1,%dl
    2deb:	77 ba                	ja     2da7 <hdr_compare+0x7>
    2ded:	0f b6 57 02          	movzbl 0x2(%rdi),%edx
    2df1:	89 d6                	mov    %edx,%esi
    2df3:	31 ce                	xor    %ecx,%esi
    2df5:	83 e6 0c             	and    $0xc,%esi
    2df8:	75 ad                	jne    2da7 <hdr_compare+0x7>
    2dfa:	80 fa 0f             	cmp    $0xf,%dl
    2dfd:	0f 97 c0             	seta   %al
    2e00:	80 f9 0f             	cmp    $0xf,%cl
    2e03:	0f 96 c2             	setbe  %dl
    2e06:	31 d0                	xor    %edx,%eax
    2e08:	0f b6 c0             	movzbl %al,%eax
    2e0b:	c3                   	ret
    2e0c:	0f 1f 40 00          	nopl   0x0(%rax)
    2e10:	f6 c2 06             	test   $0x6,%dl
    2e13:	75 b5                	jne    2dca <hdr_compare+0x2a>
    2e15:	c3                   	ret
    2e16:	66 2e 0f 1f 84 00 00 	cs nopw 0x0(%rax,%rax,1)
    2e1d:	00 00 00 

0000000000002e20 <hdr_frame_bytes>:
    2e20:	53                   	push   %rbx
    2e21:	0f b6 57 01          	movzbl 0x1(%rdi),%edx
    2e25:	41 ba 80 01 00 00    	mov    $0x180,%r10d
    2e2b:	41 89 d0             	mov    %edx,%r8d
    2e2e:	41 83 e0 06          	and    $0x6,%r8d
    2e32:	41 80 f8 06          	cmp    $0x6,%r8b
    2e36:	74 16                	je     2e4e <hdr_frame_bytes+0x2e>
    2e38:	89 d0                	mov    %edx,%eax
    2e3a:	41 ba 80 04 00 00    	mov    $0x480,%r10d
    2e40:	83 e0 0e             	and    $0xe,%eax
    2e43:	3c 02                	cmp    $0x2,%al
    2e45:	b8 40 02 00 00       	mov    $0x240,%eax
    2e4a:	44 0f 44 d0          	cmove  %eax,%r10d
    2e4e:	0f b6 7f 02          	movzbl 0x2(%rdi),%edi
    2e52:	41 89 d1             	mov    %edx,%r9d
    2e55:	31 c0                	xor    %eax,%eax
    2e57:	89 d1                	mov    %edx,%ecx
    2e59:	41 89 fb             	mov    %edi,%r11d
    2e5c:	41 c0 eb 04          	shr    $0x4,%r11b
    2e60:	41 83 e3 0f          	and    $0xf,%r11d
    2e64:	41 83 e1 08          	and    $0x8,%r9d
    2e68:	0f 95 c0             	setne  %al
    2e6b:	d0 e9                	shr    $1,%cl
    2e6d:	48 8d 1c 40          	lea    (%rax,%rax,2),%rbx
    2e71:	83 e1 03             	and    $0x3,%ecx
    2e74:	40 c0 ef 02          	shr    $0x2,%dil
    2e78:	83 e9 01             	sub    $0x1,%ecx
    2e7b:	48 89 d8             	mov    %rbx,%rax
    2e7e:	83 e7 03             	and    $0x3,%edi
    2e81:	48 63 c9             	movslq %ecx,%rcx
    2e84:	48 c1 e0 04          	shl    $0x4,%rax
    2e88:	48 29 d8             	sub    %rbx,%rax
    2e8b:	48 89 cb             	mov    %rcx,%rbx
    2e8e:	48 c1 e3 04          	shl    $0x4,%rbx
    2e92:	48 29 cb             	sub    %rcx,%rbx
    2e95:	48 8d 0d 44 e4 00 00 	lea    0xe444(%rip),%rcx        # 112e0 <halfrate.26>
    2e9c:	48 01 d8             	add    %rbx,%rax
    2e9f:	5b                   	pop    %rbx
    2ea0:	48 01 c8             	add    %rcx,%rax
    2ea3:	42 0f b6 04 18       	movzbl (%rax,%r11,1),%eax
    2ea8:	01 c0                	add    %eax,%eax
    2eaa:	41 0f af c2          	imul   %r10d,%eax
    2eae:	6b c0 7d             	imul   $0x7d,%eax,%eax
    2eb1:	45 84 c9             	test   %r9b,%r9b
    2eb4:	4c 8d 0d 85 e4 00 00 	lea    0xe485(%rip),%r9        # 11340 <g_hz.27>
    2ebb:	41 8b 3c b9          	mov    (%r9,%rdi,4),%edi
    2ebf:	0f 94 c1             	sete   %cl
    2ec2:	c0 ea 04             	shr    $0x4,%dl
    2ec5:	d3 ef                	shr    %cl,%edi
    2ec7:	89 d1                	mov    %edx,%ecx
    2ec9:	31 d2                	xor    %edx,%edx
    2ecb:	83 f1 01             	xor    $0x1,%ecx
    2ece:	83 e1 01             	and    $0x1,%ecx
    2ed1:	d3 ef                	shr    %cl,%edi
    2ed3:	f7 f7                	div    %edi
    2ed5:	89 c2                	mov    %eax,%edx
    2ed7:	83 e2 fc             	and    $0xfffffffc,%edx
    2eda:	41 80 f8 06          	cmp    $0x6,%r8b
    2ede:	0f 44 c2             	cmove  %edx,%eax
    2ee1:	85 c0                	test   %eax,%eax
    2ee3:	0f 45 f0             	cmovne %eax,%esi
    2ee6:	89 f0                	mov    %esi,%eax
    2ee8:	c3                   	ret
    2ee9:	0f 1f 80 00 00 00 00 	nopl   0x0(%rax)

0000000000002ef0 <L3_dct3_9>:
    2ef0:	f3 0f 10 5f 18       	movss  0x18(%rdi),%xmm3
    2ef5:	f3 0f 10 2d 77 e7 00 	movss  0xe777(%rip),%xmm5        # 11674 <g_pow43+0x254>
    2efc:	00 
    2efd:	0f 10 0f             	movups (%rdi),%xmm1
    2f00:	0f 10 47 10          	movups 0x10(%rdi),%xmm0
    2f04:	f3 0f 59 eb          	mulss  %xmm3,%xmm5
    2f08:	f3 0f 10 27          	movss  (%rdi),%xmm4
    2f0c:	f3 44 0f 10 47 14    	movss  0x14(%rdi),%xmm8
    2f12:	0f c6 c1 e4          	shufps $0xe4,%xmm1,%xmm0
    2f16:	0f 15 c9             	unpckhps %xmm1,%xmm1
    2f19:	0f c6 c0 20          	shufps $0x20,%xmm0,%xmm0
    2f1d:	f3 44 0f 10 2d e2 c0 	movss  0xc0e2(%rip),%xmm13        # f008 <_IO_stdin_used+0x8>
    2f24:	00 00 
    2f26:	0f 28 d1             	movaps %xmm1,%xmm2
    2f29:	f3 0f 10 4f 20       	movss  0x20(%rdi),%xmm1
    2f2e:	f3 0f 10 7f 0c       	movss  0xc(%rdi),%xmm7
    2f33:	45 0f 28 d8          	movaps %xmm8,%xmm11
    2f37:	f3 41 0f 59 fd       	mulss  %xmm13,%xmm7
    2f3c:	0f 28 f1             	movaps %xmm1,%xmm6
    2f3f:	f3 0f 58 ec          	addss  %xmm4,%xmm5
    2f43:	f3 0f 5c f2          	subss  %xmm2,%xmm6
    2f47:	f3 0f 5c e3          	subss  %xmm3,%xmm4
    2f4b:	f3 0f 10 5f 10       	movss  0x10(%rdi),%xmm3
    2f50:	f3 0f 58 da          	addss  %xmm2,%xmm3
    2f54:	f3 0f 59 1d a8 c0 00 	mulss  0xc0a8(%rip),%xmm3        # f004 <_IO_stdin_used+0x4>
    2f5b:	00 
    2f5c:	0f 28 d1             	movaps %xmm1,%xmm2
    2f5f:	0f 14 d1             	unpcklps %xmm1,%xmm2
    2f62:	0f 14 ce             	unpcklps %xmm6,%xmm1
    2f65:	0f 28 f5             	movaps %xmm5,%xmm6
    2f68:	0f 16 ca             	movlhps %xmm2,%xmm1
    2f6b:	0f 28 d0             	movaps %xmm0,%xmm2
    2f6e:	0f 58 d1             	addps  %xmm1,%xmm2
    2f71:	0f 5c c1             	subps  %xmm1,%xmm0
    2f74:	0f 28 cd             	movaps %xmm5,%xmm1
    2f77:	f3 0f 58 cb          	addss  %xmm3,%xmm1
    2f7b:	f3 0f 5c f3          	subss  %xmm3,%xmm6
    2f7f:	0f c6 c2 9c          	shufps $0x9c,%xmm2,%xmm0
    2f83:	0f c6 c0 78          	shufps $0x78,%xmm0,%xmm0
    2f87:	0f 59 05 e2 e6 00 00 	mulps  0xe6e2(%rip),%xmm0        # 11670 <g_pow43+0x250>
    2f8e:	0f c6 d2 55          	shufps $0x55,%xmm2,%xmm2
    2f92:	f3 0f 58 d4          	addss  %xmm4,%xmm2
    2f96:	0f 14 cc             	unpcklps %xmm4,%xmm1
    2f99:	0f 28 d8             	movaps %xmm0,%xmm3
    2f9c:	0f 15 d8             	unpckhps %xmm0,%xmm3
    2f9f:	f3 0f 5c eb          	subss  %xmm3,%xmm5
    2fa3:	0f 14 f5             	unpcklps %xmm5,%xmm6
    2fa6:	0f 16 ce             	movlhps %xmm6,%xmm1
    2fa9:	f3 0f 10 77 1c       	movss  0x1c(%rdi),%xmm6
    2fae:	0f 28 d9             	movaps %xmm1,%xmm3
    2fb1:	0f 5c c8             	subps  %xmm0,%xmm1
    2fb4:	0f 58 d8             	addps  %xmm0,%xmm3
    2fb7:	f3 0f 10 47 04       	movss  0x4(%rdi),%xmm0
    2fbc:	f3 44 0f 5c de       	subss  %xmm6,%xmm11
    2fc1:	f3 44 0f 59 1d 46 c0 	mulss  0xc046(%rip),%xmm11        # f010 <_IO_stdin_used+0x10>
    2fc8:	00 00 
    2fca:	44 0f 28 e0          	movaps %xmm0,%xmm12
    2fce:	0f 28 e8             	movaps %xmm0,%xmm5
    2fd1:	44 0f 28 d0          	movaps %xmm0,%xmm10
    2fd5:	f3 45 0f 58 e0       	addss  %xmm8,%xmm12
    2fda:	f3 41 0f 5c e8       	subss  %xmm8,%xmm5
    2fdf:	44 0f 28 c9          	movaps %xmm1,%xmm9
    2fe3:	f3 44 0f 59 25 20 c0 	mulss  0xc020(%rip),%xmm12        # f00c <_IO_stdin_used+0xc>
    2fea:	00 00 
    2fec:	f3 44 0f 58 d6       	addss  %xmm6,%xmm10
    2ff1:	44 0f c6 cb e4       	shufps $0xe4,%xmm3,%xmm9
    2ff6:	f3 44 0f 59 15 15 c0 	mulss  0xc015(%rip),%xmm10        # f014 <_IO_stdin_used+0x14>
    2ffd:	00 00 
    2fff:	f3 0f 5c ee          	subss  %xmm6,%xmm5
    3003:	41 0f 28 f3          	movaps %xmm11,%xmm6
    3007:	f3 0f 5c f7          	subss  %xmm7,%xmm6
    300b:	f3 41 0f 59 ed       	mulss  %xmm13,%xmm5
    3010:	45 0f 28 c4          	movaps %xmm12,%xmm8
    3014:	f3 44 0f 5c c7       	subss  %xmm7,%xmm8
    3019:	f3 41 0f 58 fb       	addss  %xmm11,%xmm7
    301e:	f3 41 0f 5c f4       	subss  %xmm12,%xmm6
    3023:	f3 41 0f 5c fa       	subss  %xmm10,%xmm7
    3028:	f3 45 0f 5c c2       	subss  %xmm10,%xmm8
    302d:	44 0f 28 d6          	movaps %xmm6,%xmm10
    3031:	44 0f 14 d5          	unpcklps %xmm5,%xmm10
    3035:	0f 28 c7             	movaps %xmm7,%xmm0
    3038:	41 0f 14 c0          	unpcklps %xmm8,%xmm0
    303c:	44 0f 16 d0          	movlhps %xmm0,%xmm10
    3040:	41 0f 28 c1          	movaps %xmm9,%xmm0
    3044:	41 0f 5c c2          	subps  %xmm10,%xmm0
    3048:	45 0f 58 ca          	addps  %xmm10,%xmm9
    304c:	41 0f c6 c1 d8       	shufps $0xd8,%xmm9,%xmm0
    3051:	0f c6 c0 d8          	shufps $0xd8,%xmm0,%xmm0
    3055:	0f 11 07             	movups %xmm0,(%rdi)
    3058:	0f 28 c3             	movaps %xmm3,%xmm0
    305b:	0f c6 c3 ff          	shufps $0xff,%xmm3,%xmm0
    305f:	0f 15 db             	unpckhps %xmm3,%xmm3
    3062:	0f 28 e0             	movaps %xmm0,%xmm4
    3065:	0f 28 c1             	movaps %xmm1,%xmm0
    3068:	0f c6 c1 55          	shufps $0x55,%xmm1,%xmm0
    306c:	f3 41 0f 5c e0       	subss  %xmm8,%xmm4
    3071:	f3 0f 58 df          	addss  %xmm7,%xmm3
    3075:	f3 0f 5c c5          	subss  %xmm5,%xmm0
    3079:	f3 0f 58 ce          	addss  %xmm6,%xmm1
    307d:	0f 14 d4             	unpcklps %xmm4,%xmm2
    3080:	0f 14 d8             	unpcklps %xmm0,%xmm3
    3083:	f3 0f 11 4f 20       	movss  %xmm1,0x20(%rdi)
    3088:	0f 16 d3             	movlhps %xmm3,%xmm2
    308b:	0f 11 57 10          	movups %xmm2,0x10(%rdi)
    308f:	c3                   	ret

0000000000003090 <L3_imdct36>:
    3090:	48 83 ec 68          	sub    $0x68,%rsp
    3094:	48 89 f8             	mov    %rdi,%rax
    3097:	64 48 8b 3c 25 28 00 	mov    %fs:0x28,%rdi
    309e:	00 00 
    30a0:	48 89 7c 24 58       	mov    %rdi,0x58(%rsp)
    30a5:	31 ff                	xor    %edi,%edi
    30a7:	85 c9                	test   %ecx,%ecx
    30a9:	0f 8e ea 02 00 00    	jle    3399 <L3_imdct36+0x309>
    30af:	48 63 c9             	movslq %ecx,%rcx
    30b2:	44 0f 28 3d d6 e5 00 	movaps 0xe5d6(%rip),%xmm15        # 11690 <g_pow43+0x270>
    30b9:	00 
    30ba:	49 89 e0             	mov    %rsp,%r8
    30bd:	f3 44 0f 10 35 ba e5 	movss  0xe5ba(%rip),%xmm14        # 11680 <g_pow43+0x260>
    30c4:	00 00 
    30c6:	48 8d 0c c9          	lea    (%rcx,%rcx,8),%rcx
    30ca:	4c 8d 0c c8          	lea    (%rax,%rcx,8),%r9
    30ce:	48 8d 4c 24 30       	lea    0x30(%rsp),%rcx
    30d3:	0f 1f 44 00 00       	nopl   0x0(%rax,%rax,1)
    30d8:	f3 0f 10 78 04       	movss  0x4(%rax),%xmm7
    30dd:	f3 0f 10 48 08       	movss  0x8(%rax),%xmm1
    30e2:	4c 89 c7             	mov    %r8,%rdi
    30e5:	48 83 c0 48          	add    $0x48,%rax
    30e9:	f3 0f 10 68 c8       	movss  -0x38(%rax),%xmm5
    30ee:	f3 44 0f 10 68 c4    	movss  -0x3c(%rax),%xmm13
    30f4:	48 83 c6 24          	add    $0x24,%rsi
    30f8:	0f 28 c7             	movaps %xmm7,%xmm0
    30fb:	f3 0f 10 50 cc       	movss  -0x34(%rax),%xmm2
    3100:	f3 0f 58 f9          	addss  %xmm1,%xmm7
    3104:	f3 44 0f 10 40 b8    	movss  -0x48(%rax),%xmm8
    310a:	f3 0f 5c c1          	subss  %xmm1,%xmm0
    310e:	f3 0f 10 48 d0       	movss  -0x30(%rax),%xmm1
    3113:	f3 44 0f 58 ed       	addss  %xmm5,%xmm13
    3118:	f3 0f 10 60 d8       	movss  -0x28(%rax),%xmm4
    311d:	45 0f 57 c6          	xorps  %xmm14,%xmm8
    3121:	f3 0f 10 70 e8       	movss  -0x18(%rax),%xmm6
    3126:	f3 0f 10 58 ec       	movss  -0x14(%rax),%xmm3
    312b:	f3 0f 58 ca          	addss  %xmm2,%xmm1
    312f:	f3 44 0f 10 60 d4    	movss  -0x2c(%rax),%xmm12
    3135:	f3 44 0f 10 48 e4    	movss  -0x1c(%rax),%xmm9
    313b:	45 0f 57 ee          	xorps  %xmm14,%xmm13
    313f:	f3 0f 5c 68 c4       	subss  -0x3c(%rax),%xmm5
    3144:	f3 0f 5c 50 d0       	subss  -0x30(%rax),%xmm2
    3149:	f3 0f 11 44 24 50    	movss  %xmm0,0x50(%rsp)
    314f:	f3 0f 10 40 dc       	movss  -0x24(%rax),%xmm0
    3154:	f3 44 0f 10 58 e0    	movss  -0x20(%rax),%xmm11
    315a:	44 0f 14 e9          	unpcklps %xmm1,%xmm13
    315e:	41 0f 28 c8          	movaps %xmm8,%xmm1
    3162:	f3 44 0f 10 50 f0    	movss  -0x10(%rax),%xmm10
    3168:	44 0f 28 c3          	movaps %xmm3,%xmm8
    316c:	0f 14 cf             	unpcklps %xmm7,%xmm1
    316f:	0f 28 f8             	movaps %xmm0,%xmm7
    3172:	f3 41 0f 5c c3       	subss  %xmm11,%xmm0
    3177:	41 0f 16 cd          	movlhps %xmm13,%xmm1
    317b:	44 0f 28 ee          	movaps %xmm6,%xmm13
    317f:	f3 41 0f 58 fb       	addss  %xmm11,%xmm7
    3184:	0f 29 0c 24          	movaps %xmm1,(%rsp)
    3188:	0f 28 cc             	movaps %xmm4,%xmm1
    318b:	f3 45 0f 58 e9       	addss  %xmm9,%xmm13
    3190:	0f 14 d5             	unpcklps %xmm5,%xmm2
    3193:	f3 41 0f 58 cc       	addss  %xmm12,%xmm1
    3198:	f3 45 0f 58 c2       	addss  %xmm10,%xmm8
    319d:	f3 41 0f 5c f1       	subss  %xmm9,%xmm6
    31a2:	f3 41 0f 5c da       	subss  %xmm10,%xmm3
    31a7:	45 0f 57 ee          	xorps  %xmm14,%xmm13
    31ab:	f3 41 0f 5c e4       	subss  %xmm12,%xmm4
    31b0:	41 0f 57 ce          	xorps  %xmm14,%xmm1
    31b4:	45 0f 14 e8          	unpcklps %xmm8,%xmm13
    31b8:	f3 44 0f 10 40 f8    	movss  -0x8(%rax),%xmm8
    31be:	0f 14 cf             	unpcklps %xmm7,%xmm1
    31c1:	0f 14 de             	unpcklps %xmm6,%xmm3
    31c4:	f3 0f 10 70 fc       	movss  -0x4(%rax),%xmm6
    31c9:	41 0f 16 cd          	movlhps %xmm13,%xmm1
    31cd:	41 0f 28 f8          	movaps %xmm8,%xmm7
    31d1:	0f 14 c4             	unpcklps %xmm4,%xmm0
    31d4:	0f 29 4c 24 10       	movaps %xmm1,0x10(%rsp)
    31d9:	f3 0f 10 48 f4       	movss  -0xc(%rax),%xmm1
    31de:	0f 16 c2             	movlhps %xmm2,%xmm0
    31e1:	0f 29 44 24 40       	movaps %xmm0,0x40(%rsp)
    31e6:	f3 0f 5c f9          	subss  %xmm1,%xmm7
    31ea:	f3 41 0f 58 c8       	addss  %xmm8,%xmm1
    31ef:	0f 14 f7             	unpcklps %xmm7,%xmm6
    31f2:	41 0f 57 ce          	xorps  %xmm14,%xmm1
    31f6:	0f 16 f3             	movlhps %xmm3,%xmm6
    31f9:	f3 0f 11 4c 24 20    	movss  %xmm1,0x20(%rsp)
    31ff:	0f 29 74 24 30       	movaps %xmm6,0x30(%rsp)
    3204:	e8 e7 fc ff ff       	call   2ef0 <L3_dct3_9>
    3209:	48 89 cf             	mov    %rcx,%rdi
    320c:	e8 df fc ff ff       	call   2ef0 <L3_dct3_9>
    3211:	f3 0f 10 44 24 34    	movss  0x34(%rsp),%xmm0
}

extern __inline __m128 __attribute__((__gnu_inline__, __always_inline__, __artificial__))
_mm_mul_ps (__m128 __A, __m128 __B)
{
  return (__m128) ((__v4sf)__A * (__v4sf)__B);
    3217:	0f 28 0c 24          	movaps (%rsp),%xmm1
    321b:	0f 59 0d 7e e4 00 00 	mulps  0xe47e(%rip),%xmm1        # 116a0 <g_pow43+0x280>

/* Load four SPFP values from P.  The address need not be 16-byte aligned.  */
extern __inline __m128 __attribute__((__gnu_inline__, __always_inline__, __artificial__))
_mm_loadu_ps (float const *__P)
{
  return *(__m128_u *)__P;
    3222:	0f 10 6a 24          	movups 0x24(%rdx),%xmm5
            co[2 + 2*i] = -(grbuf[4*i + 3] + grbuf[4*i + 4]);
        }
        L3_dct3_9(co);
        L3_dct3_9(si);

        si[1] = -si[1];
    3226:	41 0f 57 c6          	xorps  %xmm14,%xmm0
    322a:	0f 10 56 dc          	movups -0x24(%rsi),%xmm2
    322e:	f3 0f 11 44 24 34    	movss  %xmm0,0x34(%rsp)
        si[3] = -si[3];
    3234:	f3 0f 10 44 24 3c    	movss  0x3c(%rsp),%xmm0
    323a:	41 0f 57 c6          	xorps  %xmm14,%xmm0
    323e:	f3 0f 11 44 24 3c    	movss  %xmm0,0x3c(%rsp)
  return (__m128) ((__v4sf)__A * (__v4sf)__B);
    3244:	0f 28 5c 24 30       	movaps 0x30(%rsp),%xmm3
    3249:	0f 28 64 24 30       	movaps 0x30(%rsp),%xmm4
    324e:	0f 59 25 4b e4 00 00 	mulps  0xe44b(%rip),%xmm4        # 116a0 <g_pow43+0x280>
        si[5] = -si[5];
    3255:	f3 0f 10 44 24 44    	movss  0x44(%rsp),%xmm0
    325b:	41 0f 59 df          	mulps  %xmm15,%xmm3
    325f:	41 0f 57 c6          	xorps  %xmm14,%xmm0
    3263:	f3 0f 11 44 24 44    	movss  %xmm0,0x44(%rsp)
        si[7] = -si[7];
    3269:	f3 0f 10 44 24 4c    	movss  0x4c(%rsp),%xmm0
    326f:	41 0f 57 c6          	xorps  %xmm14,%xmm0
  return (__m128) ((__v4sf)__A + (__v4sf)__B);
    3273:	0f 58 d9             	addps  %xmm1,%xmm3
  return (__m128) ((__v4sf)__A * (__v4sf)__B);
    3276:	0f 28 0c 24          	movaps (%rsp),%xmm1
    327a:	f3 0f 11 44 24 4c    	movss  %xmm0,0x4c(%rsp)
  return *(__m128_u *)__P;
    3280:	0f 10 02             	movups (%rdx),%xmm0
  return (__m128) ((__v4sf)__A * (__v4sf)__B);
    3283:	41 0f 59 cf          	mulps  %xmm15,%xmm1
  return (__m128) ((__v4sf)__A - (__v4sf)__B);
    3287:	0f 5c cc             	subps  %xmm4,%xmm1
  return (__m128) ((__v4sf)__A * (__v4sf)__B);
    328a:	0f 28 e5             	movaps %xmm5,%xmm4
    328d:	0f 59 e3             	mulps  %xmm3,%xmm4

/* Store four SPFP values.  The address need not be 16-byte aligned.  */
extern __inline void __attribute__((__gnu_inline__, __always_inline__, __artificial__))
_mm_storeu_ps (float *__P, __m128 __A)
{
  *(__m128_u *)__P = __A;
    3290:	0f 11 4e dc          	movups %xmm1,-0x24(%rsi)
  return (__m128) ((__v4sf)__A * (__v4sf)__B);
    3294:	0f 28 ca             	movaps %xmm2,%xmm1
    3297:	0f 59 c8             	mulps  %xmm0,%xmm1
    329a:	0f 59 c3             	mulps  %xmm3,%xmm0
    329d:	0f 28 5c 24 40       	movaps 0x40(%rsp),%xmm3
    32a2:	0f 59 1d 07 e4 00 00 	mulps  0xe407(%rip),%xmm3        # 116b0 <g_pow43+0x290>
    32a9:	0f 59 d5             	mulps  %xmm5,%xmm2
  return (__m128) ((__v4sf)__A - (__v4sf)__B);
    32ac:	0f 5c cc             	subps  %xmm4,%xmm1
  return (__m128) ((__v4sf)__A * (__v4sf)__B);
    32af:	0f 28 64 24 40       	movaps 0x40(%rsp),%xmm4
    32b4:	0f 59 25 05 e4 00 00 	mulps  0xe405(%rip),%xmm4        # 116c0 <g_pow43+0x2a0>
  *(__m128_u *)__P = __A;
    32bb:	0f 11 48 b8          	movups %xmm1,-0x48(%rax)
  return (__m128) ((__v4sf)__A * (__v4sf)__B);
    32bf:	0f 28 4c 24 10       	movaps 0x10(%rsp),%xmm1
    32c4:	0f 59 0d f5 e3 00 00 	mulps  0xe3f5(%rip),%xmm1        # 116c0 <g_pow43+0x2a0>
  return (__m128) ((__v4sf)__A + (__v4sf)__B);
    32cb:	0f 58 c2             	addps  %xmm2,%xmm0
  return (__m128) __builtin_ia32_shufps ((__v4sf)__A, (__v4sf)__B, __mask);
    32ce:	0f c6 c0 1b          	shufps $0x1b,%xmm0,%xmm0
  *(__m128_u *)__P = __A;
    32d2:	0f 11 40 f0          	movups %xmm0,-0x10(%rax)
  return *(__m128_u *)__P;
    32d6:	0f 10 56 ec          	movups -0x14(%rsi),%xmm2
    32da:	0f 10 6a 34          	movups 0x34(%rdx),%xmm5
    32de:	0f 10 42 10          	movups 0x10(%rdx),%xmm0
  return (__m128) ((__v4sf)__A + (__v4sf)__B);
    32e2:	0f 58 d9             	addps  %xmm1,%xmm3
  return (__m128) ((__v4sf)__A * (__v4sf)__B);
    32e5:	0f 28 4c 24 10       	movaps 0x10(%rsp),%xmm1
    32ea:	0f 59 0d bf e3 00 00 	mulps  0xe3bf(%rip),%xmm1        # 116b0 <g_pow43+0x290>
  return (__m128) ((__v4sf)__A - (__v4sf)__B);
    32f1:	0f 5c cc             	subps  %xmm4,%xmm1
  return (__m128) ((__v4sf)__A * (__v4sf)__B);
    32f4:	0f 28 e5             	movaps %xmm5,%xmm4
    32f7:	0f 59 e3             	mulps  %xmm3,%xmm4
  *(__m128_u *)__P = __A;
    32fa:	0f 11 4e ec          	movups %xmm1,-0x14(%rsi)
  return (__m128) ((__v4sf)__A * (__v4sf)__B);
    32fe:	0f 28 ca             	movaps %xmm2,%xmm1
    3301:	0f 59 c8             	mulps  %xmm0,%xmm1
    3304:	0f 59 d5             	mulps  %xmm5,%xmm2
    3307:	0f 59 c3             	mulps  %xmm3,%xmm0
  return (__m128) ((__v4sf)__A - (__v4sf)__B);
    330a:	0f 5c cc             	subps  %xmm4,%xmm1
  return (__m128) ((__v4sf)__A + (__v4sf)__B);
    330d:	0f 58 c2             	addps  %xmm2,%xmm0
  *(__m128_u *)__P = __A;
    3310:	0f 11 48 c8          	movups %xmm1,-0x38(%rax)
        }
#endif /* HAVE_SIMD */
        for (; i < 9; i++)
        {
            float ovl  = overlap[i];
            float sum  = co[i]*g_twid9[9 + i] + si[i]*g_twid9[0 + i];
    3314:	f3 0f 10 54 24 20    	movss  0x20(%rsp),%xmm2
    331a:	f3 0f 10 5c 24 50    	movss  0x50(%rsp),%xmm3
    3320:	f3 0f 10 25 f0 bc 00 	movss  0xbcf0(%rip),%xmm4        # f018 <_IO_stdin_used+0x18>
    3327:	00 
    3328:	f3 0f 10 0d ec bc 00 	movss  0xbcec(%rip),%xmm1        # f01c <_IO_stdin_used+0x1c>
    332f:	00 
  return (__m128) __builtin_ia32_shufps ((__v4sf)__A, (__v4sf)__B, __mask);
    3330:	0f c6 c0 1b          	shufps $0x1b,%xmm0,%xmm0
  *(__m128_u *)__P = __A;
    3334:	0f 11 40 e0          	movups %xmm0,-0x20(%rax)
            float ovl  = overlap[i];
    3338:	f3 0f 10 46 fc       	movss  -0x4(%rsi),%xmm0
            float sum  = co[i]*g_twid9[9 + i] + si[i]*g_twid9[0 + i];
    333d:	f3 0f 59 e2          	mulss  %xmm2,%xmm4
    3341:	f3 0f 59 cb          	mulss  %xmm3,%xmm1
            overlap[i] = co[i]*g_twid9[0 + i] - si[i]*g_twid9[9 + i];
    3345:	f3 0f 59 15 cf bc 00 	mulss  0xbccf(%rip),%xmm2        # f01c <_IO_stdin_used+0x1c>
    334c:	00 
    334d:	f3 0f 59 1d c3 bc 00 	mulss  0xbcc3(%rip),%xmm3        # f018 <_IO_stdin_used+0x18>
    3354:	00 
            float sum  = co[i]*g_twid9[9 + i] + si[i]*g_twid9[0 + i];
    3355:	f3 0f 58 cc          	addss  %xmm4,%xmm1
            overlap[i] = co[i]*g_twid9[0 + i] - si[i]*g_twid9[9 + i];
    3359:	f3 0f 5c d3          	subss  %xmm3,%xmm2
    335d:	f3 0f 11 56 fc       	movss  %xmm2,-0x4(%rsi)
            grbuf[i]      = ovl*window[0 + i] - sum*window[9 + i];
    3362:	f3 0f 10 52 20       	movss  0x20(%rdx),%xmm2
    3367:	f3 0f 10 5a 44       	movss  0x44(%rdx),%xmm3
    336c:	f3 0f 59 d0          	mulss  %xmm0,%xmm2
    3370:	f3 0f 59 d9          	mulss  %xmm1,%xmm3
    3374:	f3 0f 5c d3          	subss  %xmm3,%xmm2
    3378:	f3 0f 11 50 d8       	movss  %xmm2,-0x28(%rax)
            grbuf[17 - i] = ovl*window[9 + i] + sum*window[0 + i];
    337d:	f3 0f 59 42 44       	mulss  0x44(%rdx),%xmm0
    3382:	f3 0f 59 4a 20       	mulss  0x20(%rdx),%xmm1
    3387:	f3 0f 58 c1          	addss  %xmm1,%xmm0
    338b:	f3 0f 11 40 dc       	movss  %xmm0,-0x24(%rax)
    for (j = 0; j < nbands; j++, grbuf += 18, overlap += 9)
    3390:	4c 39 c8             	cmp    %r9,%rax
    3393:	0f 85 3f fd ff ff    	jne    30d8 <L3_imdct36+0x48>
        }
    }
}
    3399:	48 8b 44 24 58       	mov    0x58(%rsp),%rax
    339e:	64 48 2b 04 25 28 00 	sub    %fs:0x28,%rax
    33a5:	00 00 
    33a7:	75 05                	jne    33ae <L3_imdct36+0x31e>
    33a9:	48 83 c4 68          	add    $0x68,%rsp
    33ad:	c3                   	ret
    33ae:	e8 5d f0 ff ff       	call   2410 <__stack_chk_fail@plt>
    33b3:	66 66 2e 0f 1f 84 00 	data16 cs nopw 0x0(%rax,%rax,1)
    33ba:	00 00 00 00 
    33be:	66 90                	xchg   %ax,%ax

00000000000033c0 <L3_imdct12>:
{
    static const float g_twid3[6] = { 0.79335334f,0.92387953f,0.99144486f, 0.60876143f,0.38268343f,0.13052619f };
    float co[3], si[3];
    int i;

    L3_idct3(-x[0], x[6] + x[3], x[12] + x[9], co);
    33c0:	f3 0f 10 4f 30       	movss  0x30(%rdi),%xmm1
    33c5:	f3 44 0f 10 5f 24    	movss  0x24(%rdi),%xmm11
    33cb:	f3 0f 10 3d ad e2 00 	movss  0xe2ad(%rip),%xmm7        # 11680 <g_pow43+0x260>
    33d2:	00 
    33d3:	48 8d 4e 18          	lea    0x18(%rsi),%rcx
    33d7:	f3 0f 10 47 18       	movss  0x18(%rdi),%xmm0
    33dc:	f3 0f 10 17          	movss  (%rdi),%xmm2
    33e0:	48 39 ca             	cmp    %rcx,%rdx
{
    33e3:	48 89 f0             	mov    %rsi,%rax
    L3_idct3(-x[0], x[6] + x[3], x[12] + x[9], co);
    33e6:	0f 28 d9             	movaps %xmm1,%xmm3
    33e9:	f3 44 0f 10 67 0c    	movss  0xc(%rdi),%xmm12
    33ef:	0f 93 c1             	setae  %cl
    float a1 = x0 - x2*0.5f;
    33f2:	f3 0f 10 2d 7a e2 00 	movss  0xe27a(%rip),%xmm5        # 11674 <g_pow43+0x254>
    33f9:	00 
    L3_idct3(-x[0], x[6] + x[3], x[12] + x[9], co);
    33fa:	f3 41 0f 58 db       	addss  %xmm11,%xmm3
    33ff:	44 0f 28 c8          	movaps %xmm0,%xmm9
    3403:	0f 28 e2             	movaps %xmm2,%xmm4
    3406:	48 39 d6             	cmp    %rdx,%rsi
    3409:	f3 45 0f 58 cc       	addss  %xmm12,%xmm9
    340e:	0f 57 e7             	xorps  %xmm7,%xmm4
    L3_idct3(x[15], x[12] - x[9], x[6] - x[3], si);
    3411:	f3 41 0f 5c c4       	subss  %xmm12,%xmm0
    float m1 = x1*0.86602540f;
    3416:	f3 44 0f 10 15 e9 bb 	movss  0xbbe9(%rip),%xmm10        # f008 <_IO_stdin_used+0x8>
    341d:	00 00 
    L3_idct3(x[15], x[12] - x[9], x[6] - x[3], si);
    341f:	f3 41 0f 5c cb       	subss  %xmm11,%xmm1
    3424:	40 0f 93 c6          	setae  %sil
    float a1 = x0 - x2*0.5f;
    3428:	0f 28 f3             	movaps %xmm3,%xmm6
    342b:	f3 0f 5c da          	subss  %xmm2,%xmm3
    342f:	40 08 f1             	or     %sil,%cl
    3432:	f3 0f 59 f5          	mulss  %xmm5,%xmm6
    float m1 = x1*0.86602540f;
    3436:	f3 45 0f 59 ca       	mulss  %xmm10,%xmm9
    float a1 = x0 - x2*0.5f;
    343b:	f3 0f 59 e8          	mulss  %xmm0,%xmm5
    float m1 = x1*0.86602540f;
    343f:	f3 41 0f 59 ca       	mulss  %xmm10,%xmm1
    float a1 = x0 - x2*0.5f;
    3444:	f3 0f 5c e6          	subss  %xmm6,%xmm4
    dst[1] = x0 + x2;
    3448:	0f 28 f3             	movaps %xmm3,%xmm6
    dst[0] = a1 + m1;
    344b:	45 0f 28 c1          	movaps %xmm9,%xmm8
    344f:	f3 44 0f 58 c4       	addss  %xmm4,%xmm8
    dst[2] = a1 - m1;
    3454:	f3 41 0f 5c e1       	subss  %xmm9,%xmm4
    L3_idct3(x[15], x[12] - x[9], x[6] - x[3], si);
    3459:	f3 44 0f 10 4f 3c    	movss  0x3c(%rdi),%xmm9
    dst[0] = a1 + m1;
    345f:	44 0f 28 d1          	movaps %xmm1,%xmm10
    dst[1] = x0 + x2;
    3463:	f3 41 0f 58 c1       	addss  %xmm9,%xmm0
    3468:	41 0f 28 d0          	movaps %xmm8,%xmm2
    346c:	0f 14 d3             	unpcklps %xmm3,%xmm2
    float a1 = x0 - x2*0.5f;
    346f:	41 0f 28 d9          	movaps %xmm9,%xmm3
    3473:	f3 0f 5c dd          	subss  %xmm5,%xmm3
    si[1] = -si[1];
    3477:	0f 57 c7             	xorps  %xmm7,%xmm0
    dst[0] = a1 + m1;
    347a:	f3 44 0f 58 d3       	addss  %xmm3,%xmm10
    dst[2] = a1 - m1;
    347f:	f3 0f 5c d9          	subss  %xmm1,%xmm3
    si[1] = -si[1];
    3483:	41 0f 28 ea          	movaps %xmm10,%xmm5
    3487:	0f 14 e8             	unpcklps %xmm0,%xmm5

    for (i = 0; i < 3; i++)
    348a:	0f 84 e0 00 00 00    	je     3570 <L3_imdct12+0x1b0>
    3490:	48 8d 4a 04          	lea    0x4(%rdx),%rcx
    3494:	48 39 c8             	cmp    %rcx,%rax
    3497:	0f 84 d3 00 00 00    	je     3570 <L3_imdct12+0x1b0>
    {
        float ovl  = overlap[i];
        float sum  = co[i]*g_twid3[3 + i] + si[i]*g_twid3[0 + i];
    349d:	f3 0f 7e 35 fb e2 00 	movq   0xe2fb(%rip),%xmm6        # 117a0 <g_pow43+0x380>
    34a4:	00 
    34a5:	0f 28 ca             	movaps %xmm2,%xmm1
    34a8:	44 0f 28 c5          	movaps %xmm5,%xmm8
        float ovl  = overlap[i];
    34ac:	f3 0f 7e 02          	movq   (%rdx),%xmm0
        float sum  = co[i]*g_twid3[3 + i] + si[i]*g_twid3[0 + i];
    34b0:	f3 0f 7e 3d f0 e2 00 	movq   0xe2f0(%rip),%xmm7        # 117a8 <g_pow43+0x388>
    34b7:	00 
        overlap[i] = co[i]*g_twid3[0 + i] - si[i]*g_twid3[3 + i];
    34b8:	0f 59 ee             	mulps  %xmm6,%xmm5
        float sum  = co[i]*g_twid3[3 + i] + si[i]*g_twid3[0 + i];
    34bb:	0f 59 ce             	mulps  %xmm6,%xmm1
        dst[i]     = ovl*g_twid3[2 - i] - sum*g_twid3[5 - i];
    34be:	f3 0f 7e 35 f2 e2 00 	movq   0xe2f2(%rip),%xmm6        # 117b8 <g_pow43+0x398>
    34c5:	00 
        float sum  = co[i]*g_twid3[3 + i] + si[i]*g_twid3[0 + i];
    34c6:	44 0f 59 c7          	mulps  %xmm7,%xmm8
        overlap[i] = co[i]*g_twid3[0 + i] - si[i]*g_twid3[3 + i];
    34ca:	0f 59 d7             	mulps  %xmm7,%xmm2
        float sum  = co[i]*g_twid3[3 + i] + si[i]*g_twid3[0 + i];
    34cd:	41 0f 58 c8          	addps  %xmm8,%xmm1
        overlap[i] = co[i]*g_twid3[0 + i] - si[i]*g_twid3[3 + i];
    34d1:	0f 5c d5             	subps  %xmm5,%xmm2
        dst[i]     = ovl*g_twid3[2 - i] - sum*g_twid3[5 - i];
    34d4:	f3 0f 7e 2d d4 e2 00 	movq   0xe2d4(%rip),%xmm5        # 117b0 <g_pow43+0x390>
    34db:	00 
    34dc:	0f 28 f9             	movaps %xmm1,%xmm7
        overlap[i] = co[i]*g_twid3[0 + i] - si[i]*g_twid3[3 + i];
    34df:	0f 13 12             	movlps %xmm2,(%rdx)
        dst[5 - i] = ovl*g_twid3[5 - i] + sum*g_twid3[2 - i];
    34e2:	0f 59 cd             	mulps  %xmm5,%xmm1
        dst[i]     = ovl*g_twid3[2 - i] - sum*g_twid3[5 - i];
    34e5:	0f 28 d0             	movaps %xmm0,%xmm2
        dst[5 - i] = ovl*g_twid3[5 - i] + sum*g_twid3[2 - i];
    34e8:	0f 59 c6             	mulps  %xmm6,%xmm0
        dst[i]     = ovl*g_twid3[2 - i] - sum*g_twid3[5 - i];
    34eb:	0f 59 d5             	mulps  %xmm5,%xmm2
        float sum  = co[i]*g_twid3[3 + i] + si[i]*g_twid3[0 + i];
    34ee:	f3 0f 10 2d c2 e2 00 	movss  0xe2c2(%rip),%xmm5        # 117b8 <g_pow43+0x398>
    34f5:	00 
        dst[i]     = ovl*g_twid3[2 - i] - sum*g_twid3[5 - i];
    34f6:	0f 59 fe             	mulps  %xmm6,%xmm7
        float sum  = co[i]*g_twid3[3 + i] + si[i]*g_twid3[0 + i];
    34f9:	0f 28 f3             	movaps %xmm3,%xmm6
        dst[5 - i] = ovl*g_twid3[5 - i] + sum*g_twid3[2 - i];
    34fc:	0f 58 c1             	addps  %xmm1,%xmm0
        dst[i]     = ovl*g_twid3[2 - i] - sum*g_twid3[5 - i];
    34ff:	f3 0f 7e 0d b9 e2 00 	movq   0xe2b9(%rip),%xmm1        # 117c0 <g_pow43+0x3a0>
    3506:	00 
    3507:	0f 5c d7             	subps  %xmm7,%xmm2
        dst[5 - i] = ovl*g_twid3[5 - i] + sum*g_twid3[2 - i];
    350a:	0f c6 c0 e1          	shufps $0xe1,%xmm0,%xmm0
    350e:	0f 13 40 10          	movlps %xmm0,0x10(%rax)
        dst[i]     = ovl*g_twid3[2 - i] - sum*g_twid3[5 - i];
    3512:	0f 13 10             	movlps %xmm2,(%rax)
        float ovl  = overlap[i];
    3515:	f3 0f 10 42 08       	movss  0x8(%rdx),%xmm0
        float sum  = co[i]*g_twid3[3 + i] + si[i]*g_twid3[0 + i];
    351a:	f3 0f 10 15 8e e2 00 	movss  0xe28e(%rip),%xmm2        # 117b0 <g_pow43+0x390>
    3521:	00 
        dst[i]     = ovl*g_twid3[2 - i] - sum*g_twid3[5 - i];
    3522:	0f c6 c0 e0          	shufps $0xe0,%xmm0,%xmm0
    3526:	0f 59 c1             	mulps  %xmm1,%xmm0
        float sum  = co[i]*g_twid3[3 + i] + si[i]*g_twid3[0 + i];
    3529:	0f 28 cc             	movaps %xmm4,%xmm1
    352c:	f3 0f 59 f2          	mulss  %xmm2,%xmm6
    3530:	f3 0f 59 cd          	mulss  %xmm5,%xmm1
        overlap[i] = co[i]*g_twid3[0 + i] - si[i]*g_twid3[3 + i];
    3534:	f3 0f 59 d4          	mulss  %xmm4,%xmm2
    3538:	f3 0f 59 eb          	mulss  %xmm3,%xmm5
        float sum  = co[i]*g_twid3[3 + i] + si[i]*g_twid3[0 + i];
    353c:	f3 0f 58 ce          	addss  %xmm6,%xmm1
        dst[i]     = ovl*g_twid3[2 - i] - sum*g_twid3[5 - i];
    3540:	f3 0f 7e 35 80 e2 00 	movq   0xe280(%rip),%xmm6        # 117c8 <g_pow43+0x3a8>
    3547:	00 
        overlap[i] = co[i]*g_twid3[0 + i] - si[i]*g_twid3[3 + i];
    3548:	f3 0f 5c d5          	subss  %xmm5,%xmm2
        dst[i]     = ovl*g_twid3[2 - i] - sum*g_twid3[5 - i];
    354c:	0f c6 c9 e0          	shufps $0xe0,%xmm1,%xmm1
    3550:	0f 59 ce             	mulps  %xmm6,%xmm1
        overlap[i] = co[i]*g_twid3[0 + i] - si[i]*g_twid3[3 + i];
    3553:	f3 0f 11 52 08       	movss  %xmm2,0x8(%rdx)
        dst[i]     = ovl*g_twid3[2 - i] - sum*g_twid3[5 - i];
    3558:	0f 28 d0             	movaps %xmm0,%xmm2
    355b:	0f 5c d1             	subps  %xmm1,%xmm2
        dst[5 - i] = ovl*g_twid3[5 - i] + sum*g_twid3[2 - i];
    355e:	0f 58 c1             	addps  %xmm1,%xmm0
        dst[i]     = ovl*g_twid3[2 - i] - sum*g_twid3[5 - i];
    3561:	f3 0f 10 c2          	movss  %xmm2,%xmm0
    3565:	0f 13 40 08          	movlps %xmm0,0x8(%rax)
    for (i = 0; i < 3; i++)
    3569:	c3                   	ret
    356a:	66 0f 1f 44 00 00    	nopw   0x0(%rax,%rax,1)
        float sum  = co[i]*g_twid3[3 + i] + si[i]*g_twid3[0 + i];
    3570:	f3 0f 10 2d 28 e2 00 	movss  0xe228(%rip),%xmm5        # 117a0 <g_pow43+0x380>
    3577:	00 
    3578:	45 0f 28 d8          	movaps %xmm8,%xmm11
    357c:	41 0f 28 d2          	movaps %xmm10,%xmm2
        float ovl  = overlap[i];
    3580:	f3 0f 10 0a          	movss  (%rdx),%xmm1
        float sum  = co[i]*g_twid3[3 + i] + si[i]*g_twid3[0 + i];
    3584:	f3 0f 10 3d 1c e2 00 	movss  0xe21c(%rip),%xmm7        # 117a8 <g_pow43+0x388>
    358b:	00 
        dst[i]     = ovl*g_twid3[2 - i] - sum*g_twid3[5 - i];
    358c:	f3 44 0f 10 0d 1b e2 	movss  0xe21b(%rip),%xmm9        # 117b0 <g_pow43+0x390>
    3593:	00 00 
        float sum  = co[i]*g_twid3[3 + i] + si[i]*g_twid3[0 + i];
    3595:	f3 44 0f 10 25 22 e1 	movss  0xe122(%rip),%xmm12        # 116c0 <g_pow43+0x2a0>
    359c:	00 00 
    359e:	f3 44 0f 59 dd       	mulss  %xmm5,%xmm11
    35a3:	f3 0f 59 d7          	mulss  %xmm7,%xmm2
        overlap[i] = co[i]*g_twid3[0 + i] - si[i]*g_twid3[3 + i];
    35a7:	f3 44 0f 59 d5       	mulss  %xmm5,%xmm10
        float sum  = co[i]*g_twid3[3 + i] + si[i]*g_twid3[0 + i];
    35ac:	f3 44 0f 58 da       	addss  %xmm2,%xmm11
        overlap[i] = co[i]*g_twid3[0 + i] - si[i]*g_twid3[3 + i];
    35b1:	41 0f 28 d0          	movaps %xmm8,%xmm2
        dst[i]     = ovl*g_twid3[2 - i] - sum*g_twid3[5 - i];
    35b5:	f3 44 0f 10 05 fa e1 	movss  0xe1fa(%rip),%xmm8        # 117b8 <g_pow43+0x398>
    35bc:	00 00 
        overlap[i] = co[i]*g_twid3[0 + i] - si[i]*g_twid3[3 + i];
    35be:	f3 0f 59 d7          	mulss  %xmm7,%xmm2
    35c2:	f3 41 0f 5c d2       	subss  %xmm10,%xmm2
        dst[i]     = ovl*g_twid3[2 - i] - sum*g_twid3[5 - i];
    35c7:	45 0f 28 d3          	movaps %xmm11,%xmm10
        dst[5 - i] = ovl*g_twid3[5 - i] + sum*g_twid3[2 - i];
    35cb:	f3 45 0f 59 d9       	mulss  %xmm9,%xmm11
        dst[i]     = ovl*g_twid3[2 - i] - sum*g_twid3[5 - i];
    35d0:	f3 45 0f 59 d0       	mulss  %xmm8,%xmm10
        overlap[i] = co[i]*g_twid3[0 + i] - si[i]*g_twid3[3 + i];
    35d5:	f3 0f 11 12          	movss  %xmm2,(%rdx)
        dst[i]     = ovl*g_twid3[2 - i] - sum*g_twid3[5 - i];
    35d9:	0f 28 d1             	movaps %xmm1,%xmm2
        dst[5 - i] = ovl*g_twid3[5 - i] + sum*g_twid3[2 - i];
    35dc:	f3 41 0f 59 c8       	mulss  %xmm8,%xmm1
        dst[i]     = ovl*g_twid3[2 - i] - sum*g_twid3[5 - i];
    35e1:	f3 41 0f 59 d1       	mulss  %xmm9,%xmm2
        dst[5 - i] = ovl*g_twid3[5 - i] + sum*g_twid3[2 - i];
    35e6:	f3 41 0f 58 cb       	addss  %xmm11,%xmm1
        float sum  = co[i]*g_twid3[3 + i] + si[i]*g_twid3[0 + i];
    35eb:	f3 44 0f 10 1d bc e0 	movss  0xe0bc(%rip),%xmm11        # 116b0 <g_pow43+0x290>
    35f2:	00 00 
        dst[i]     = ovl*g_twid3[2 - i] - sum*g_twid3[5 - i];
    35f4:	f3 41 0f 5c d2       	subss  %xmm10,%xmm2
        float sum  = co[i]*g_twid3[3 + i] + si[i]*g_twid3[0 + i];
    35f9:	44 0f 28 d6          	movaps %xmm6,%xmm10
    35fd:	f3 45 0f 59 d4       	mulss  %xmm12,%xmm10
        dst[5 - i] = ovl*g_twid3[5 - i] + sum*g_twid3[2 - i];
    3602:	f3 0f 11 48 14       	movss  %xmm1,0x14(%rax)
        overlap[i] = co[i]*g_twid3[0 + i] - si[i]*g_twid3[3 + i];
    3607:	f3 41 0f 59 f3       	mulss  %xmm11,%xmm6
        float sum  = co[i]*g_twid3[3 + i] + si[i]*g_twid3[0 + i];
    360c:	0f 28 c8             	movaps %xmm0,%xmm1
    360f:	f3 41 0f 59 cb       	mulss  %xmm11,%xmm1
        dst[i]     = ovl*g_twid3[2 - i] - sum*g_twid3[5 - i];
    3614:	f3 0f 11 10          	movss  %xmm2,(%rax)
        float ovl  = overlap[i];
    3618:	f3 0f 10 52 04       	movss  0x4(%rdx),%xmm2
        overlap[i] = co[i]*g_twid3[0 + i] - si[i]*g_twid3[3 + i];
    361d:	f3 41 0f 59 c4       	mulss  %xmm12,%xmm0
        float sum  = co[i]*g_twid3[3 + i] + si[i]*g_twid3[0 + i];
    3622:	f3 44 0f 58 d1       	addss  %xmm1,%xmm10
        overlap[i] = co[i]*g_twid3[0 + i] - si[i]*g_twid3[3 + i];
    3627:	0f 28 ce             	movaps %xmm6,%xmm1
    362a:	f3 0f 5c c8          	subss  %xmm0,%xmm1
        dst[i]     = ovl*g_twid3[2 - i] - sum*g_twid3[5 - i];
    362e:	0f 28 c2             	movaps %xmm2,%xmm0
    3631:	f3 41 0f 59 c3       	mulss  %xmm11,%xmm0
        dst[5 - i] = ovl*g_twid3[5 - i] + sum*g_twid3[2 - i];
    3636:	f3 41 0f 59 d4       	mulss  %xmm12,%xmm2
        overlap[i] = co[i]*g_twid3[0 + i] - si[i]*g_twid3[3 + i];
    363b:	f3 0f 11 4a 04       	movss  %xmm1,0x4(%rdx)
        dst[i]     = ovl*g_twid3[2 - i] - sum*g_twid3[5 - i];
    3640:	41 0f 28 ca          	movaps %xmm10,%xmm1
    3644:	f3 41 0f 59 cc       	mulss  %xmm12,%xmm1
        dst[5 - i] = ovl*g_twid3[5 - i] + sum*g_twid3[2 - i];
    3649:	f3 45 0f 59 d3       	mulss  %xmm11,%xmm10
        dst[i]     = ovl*g_twid3[2 - i] - sum*g_twid3[5 - i];
    364e:	f3 0f 5c c1          	subss  %xmm1,%xmm0
        dst[5 - i] = ovl*g_twid3[5 - i] + sum*g_twid3[2 - i];
    3652:	f3 41 0f 58 d2       	addss  %xmm10,%xmm2
        dst[i]     = ovl*g_twid3[2 - i] - sum*g_twid3[5 - i];
    3657:	f3 0f 11 40 04       	movss  %xmm0,0x4(%rax)
        float sum  = co[i]*g_twid3[3 + i] + si[i]*g_twid3[0 + i];
    365c:	0f 28 c3             	movaps %xmm3,%xmm0
        dst[5 - i] = ovl*g_twid3[5 - i] + sum*g_twid3[2 - i];
    365f:	f3 0f 11 50 10       	movss  %xmm2,0x10(%rax)
        float sum  = co[i]*g_twid3[3 + i] + si[i]*g_twid3[0 + i];
    3664:	0f 28 d4             	movaps %xmm4,%xmm2
        float ovl  = overlap[i];
    3667:	f3 0f 10 4a 08       	movss  0x8(%rdx),%xmm1
        float sum  = co[i]*g_twid3[3 + i] + si[i]*g_twid3[0 + i];
    366c:	f3 41 0f 59 d0       	mulss  %xmm8,%xmm2
    3671:	f3 41 0f 59 c1       	mulss  %xmm9,%xmm0
        overlap[i] = co[i]*g_twid3[0 + i] - si[i]*g_twid3[3 + i];
    3676:	f3 41 0f 59 d8       	mulss  %xmm8,%xmm3
    367b:	f3 41 0f 59 e1       	mulss  %xmm9,%xmm4
        float sum  = co[i]*g_twid3[3 + i] + si[i]*g_twid3[0 + i];
    3680:	f3 0f 58 c2          	addss  %xmm2,%xmm0
        dst[i]     = ovl*g_twid3[2 - i] - sum*g_twid3[5 - i];
    3684:	0f 28 d1             	movaps %xmm1,%xmm2
    3687:	f3 0f 59 d7          	mulss  %xmm7,%xmm2
        overlap[i] = co[i]*g_twid3[0 + i] - si[i]*g_twid3[3 + i];
    368b:	f3 0f 5c e3          	subss  %xmm3,%xmm4
        dst[5 - i] = ovl*g_twid3[5 - i] + sum*g_twid3[2 - i];
    368f:	f3 0f 59 cd          	mulss  %xmm5,%xmm1
        dst[i]     = ovl*g_twid3[2 - i] - sum*g_twid3[5 - i];
    3693:	0f 28 d8             	movaps %xmm0,%xmm3
    3696:	f3 0f 59 dd          	mulss  %xmm5,%xmm3
        dst[5 - i] = ovl*g_twid3[5 - i] + sum*g_twid3[2 - i];
    369a:	f3 0f 59 c7          	mulss  %xmm7,%xmm0
        overlap[i] = co[i]*g_twid3[0 + i] - si[i]*g_twid3[3 + i];
    369e:	f3 0f 11 62 08       	movss  %xmm4,0x8(%rdx)
        dst[i]     = ovl*g_twid3[2 - i] - sum*g_twid3[5 - i];
    36a3:	f3 0f 5c d3          	subss  %xmm3,%xmm2
        dst[5 - i] = ovl*g_twid3[5 - i] + sum*g_twid3[2 - i];
    36a7:	f3 0f 58 c1          	addss  %xmm1,%xmm0
        dst[i]     = ovl*g_twid3[2 - i] - sum*g_twid3[5 - i];
    36ab:	f3 0f 11 50 08       	movss  %xmm2,0x8(%rax)
        dst[5 - i] = ovl*g_twid3[5 - i] + sum*g_twid3[2 - i];
    36b0:	f3 0f 11 40 0c       	movss  %xmm0,0xc(%rax)
    }
}
    36b5:	c3                   	ret
    36b6:	66 2e 0f 1f 84 00 00 	cs nopw 0x0(%rax,%rax,1)
    36bd:	00 00 00 

00000000000036c0 <mp3d_synth_pair>:
#endif /* MINIMP3_FLOAT_OUTPUT */

static void mp3d_synth_pair(mp3d_sample_t *pcm, int nch, const float *z)
{
    float a;
    a  = (z[14*64] - z[    0]) * 29;
    36c0:	f3 0f 10 8a 00 0e 00 	movss  0xe00(%rdx),%xmm1
    36c7:	00 
    a += (z[ 1*64] + z[13*64]) * 213;
    36c8:	f3 0f 10 82 00 01 00 	movss  0x100(%rdx),%xmm0
    36cf:	00 
{
    36d0:	89 f0                	mov    %esi,%eax
    36d2:	48 89 f9             	mov    %rdi,%rcx
    a  = (z[14*64] - z[    0]) * 29;
    36d5:	f3 0f 5c 0a          	subss  (%rdx),%xmm1
    a += (z[ 1*64] + z[13*64]) * 213;
    36d9:	f3 0f 58 82 00 0d 00 	addss  0xd00(%rdx),%xmm0
    36e0:	00 
    if (sample >=  32766.5) return (int16_t) 32767;
    36e1:	be ff 7f 00 00       	mov    $0x7fff,%esi
    a  = (z[14*64] - z[    0]) * 29;
    36e6:	f3 0f 59 0d 32 b9 00 	mulss  0xb932(%rip),%xmm1        # f020 <_IO_stdin_used+0x20>
    36ed:	00 
    a += (z[ 1*64] + z[13*64]) * 213;
    36ee:	f3 0f 59 05 2e b9 00 	mulss  0xb92e(%rip),%xmm0        # f024 <_IO_stdin_used+0x24>
    36f5:	00 
    36f6:	f3 0f 58 c1          	addss  %xmm1,%xmm0
    a += (z[12*64] - z[ 2*64]) * 459;
    36fa:	f3 0f 10 8a 00 0c 00 	movss  0xc00(%rdx),%xmm1
    3701:	00 
    3702:	f3 0f 5c 8a 00 02 00 	subss  0x200(%rdx),%xmm1
    3709:	00 
    370a:	f3 0f 59 0d 16 b9 00 	mulss  0xb916(%rip),%xmm1        # f028 <_IO_stdin_used+0x28>
    3711:	00 
    3712:	f3 0f 58 c8          	addss  %xmm0,%xmm1
    a += (z[ 3*64] + z[11*64]) * 2037;
    3716:	f3 0f 10 82 00 03 00 	movss  0x300(%rdx),%xmm0
    371d:	00 
    371e:	f3 0f 58 82 00 0b 00 	addss  0xb00(%rdx),%xmm0
    3725:	00 
    3726:	f3 0f 59 05 fe b8 00 	mulss  0xb8fe(%rip),%xmm0        # f02c <_IO_stdin_used+0x2c>
    372d:	00 
    372e:	f3 0f 58 c1          	addss  %xmm1,%xmm0
    a += (z[10*64] - z[ 4*64]) * 5153;
    3732:	f3 0f 10 8a 00 0a 00 	movss  0xa00(%rdx),%xmm1
    3739:	00 
    373a:	f3 0f 5c 8a 00 04 00 	subss  0x400(%rdx),%xmm1
    3741:	00 
    3742:	f3 0f 59 0d e6 b8 00 	mulss  0xb8e6(%rip),%xmm1        # f030 <_IO_stdin_used+0x30>
    3749:	00 
    374a:	f3 0f 58 c8          	addss  %xmm0,%xmm1
    a += (z[ 5*64] + z[ 9*64]) * 6574;
    374e:	f3 0f 10 82 00 05 00 	movss  0x500(%rdx),%xmm0
    3755:	00 
    3756:	f3 0f 58 82 00 09 00 	addss  0x900(%rdx),%xmm0
    375d:	00 
    375e:	f3 0f 59 05 ce b8 00 	mulss  0xb8ce(%rip),%xmm0        # f034 <_IO_stdin_used+0x34>
    3765:	00 
    3766:	f3 0f 58 c1          	addss  %xmm1,%xmm0
    a += (z[ 8*64] - z[ 6*64]) * 37489;
    376a:	f3 0f 10 8a 00 08 00 	movss  0x800(%rdx),%xmm1
    3771:	00 
    3772:	f3 0f 5c 8a 00 06 00 	subss  0x600(%rdx),%xmm1
    3779:	00 
    377a:	f3 0f 59 0d b6 b8 00 	mulss  0xb8b6(%rip),%xmm1        # f038 <_IO_stdin_used+0x38>
    3781:	00 
    3782:	f3 0f 58 c8          	addss  %xmm0,%xmm1
    a +=  z[ 7*64]             * 75038;
    3786:	f3 0f 10 05 ae b8 00 	movss  0xb8ae(%rip),%xmm0        # f03c <_IO_stdin_used+0x3c>
    378d:	00 
    378e:	f3 0f 59 82 00 07 00 	mulss  0x700(%rdx),%xmm0
    3795:	00 
    3796:	f3 0f 58 c1          	addss  %xmm1,%xmm0
    if (sample >=  32766.5) return (int16_t) 32767;
    379a:	0f 2f 05 9f b8 00 00 	comiss 0xb89f(%rip),%xmm0        # f040 <_IO_stdin_used+0x40>
    37a1:	73 25                	jae    37c8 <mp3d_synth_pair+0x108>
    if (sample <= -32767.5) return (int16_t)-32768;
    37a3:	f3 0f 10 0d 99 b8 00 	movss  0xb899(%rip),%xmm1        # f044 <_IO_stdin_used+0x44>
    37aa:	00 
    37ab:	0f 2f c8             	comiss %xmm0,%xmm1
    37ae:	0f 83 ec 00 00 00    	jae    38a0 <mp3d_synth_pair+0x1e0>
    int16_t s = (int16_t)(sample + .5f);
    37b4:	f3 0f 58 05 b8 de 00 	addss  0xdeb8(%rip),%xmm0        # 11674 <g_pow43+0x254>
    37bb:	00 
    37bc:	f3 0f 2c f0          	cvttss2si %xmm0,%esi
    s -= (s < 0);   /* away from zero, to be compliant */
    37c0:	89 f7                	mov    %esi,%edi
    37c2:	66 c1 ef 0f          	shr    $0xf,%di
    37c6:	29 fe                	sub    %edi,%esi
    pcm[0] = mp3d_scale_pcm(a);

    z += 2;
    a  = z[14*64] * 104;
    37c8:	f3 0f 10 0d 78 b8 00 	movss  0xb878(%rip),%xmm1        # f048 <_IO_stdin_used+0x48>
    37cf:	00 
    a += z[12*64] * 1567;
    37d0:	f3 0f 10 05 74 b8 00 	movss  0xb874(%rip),%xmm0        # f04c <_IO_stdin_used+0x4c>
    37d7:	00 
    a += z[ 8*64] * 64019;
    a += z[ 6*64] * -9975;
    a += z[ 4*64] * -45;
    a += z[ 2*64] * 146;
    a += z[ 0*64] * -5;
    pcm[16*nch] = mp3d_scale_pcm(a);
    37d8:	c1 e0 04             	shl    $0x4,%eax
    pcm[0] = mp3d_scale_pcm(a);
    37db:	66 89 31             	mov    %si,(%rcx)
    a  = z[14*64] * 104;
    37de:	f3 0f 59 8a 08 0e 00 	mulss  0xe08(%rdx),%xmm1
    37e5:	00 
    pcm[16*nch] = mp3d_scale_pcm(a);
    37e6:	48 98                	cltq
    a += z[12*64] * 1567;
    37e8:	f3 0f 59 82 08 0c 00 	mulss  0xc08(%rdx),%xmm0
    37ef:	00 
    37f0:	f3 0f 58 c1          	addss  %xmm1,%xmm0
    a += z[10*64] * 9727;
    37f4:	f3 0f 10 0d 54 b8 00 	movss  0xb854(%rip),%xmm1        # f050 <_IO_stdin_used+0x50>
    37fb:	00 
    37fc:	f3 0f 59 8a 08 0a 00 	mulss  0xa08(%rdx),%xmm1
    3803:	00 
    3804:	f3 0f 58 c8          	addss  %xmm0,%xmm1
    a += z[ 8*64] * 64019;
    3808:	f3 0f 10 05 44 b8 00 	movss  0xb844(%rip),%xmm0        # f054 <_IO_stdin_used+0x54>
    380f:	00 
    3810:	f3 0f 59 82 08 08 00 	mulss  0x808(%rdx),%xmm0
    3817:	00 
    3818:	f3 0f 58 c1          	addss  %xmm1,%xmm0
    a += z[ 6*64] * -9975;
    381c:	f3 0f 10 0d 34 b8 00 	movss  0xb834(%rip),%xmm1        # f058 <_IO_stdin_used+0x58>
    3823:	00 
    3824:	f3 0f 59 8a 08 06 00 	mulss  0x608(%rdx),%xmm1
    382b:	00 
    382c:	f3 0f 58 c8          	addss  %xmm0,%xmm1
    a += z[ 4*64] * -45;
    3830:	f3 0f 10 05 24 b8 00 	movss  0xb824(%rip),%xmm0        # f05c <_IO_stdin_used+0x5c>
    3837:	00 
    3838:	f3 0f 59 82 08 04 00 	mulss  0x408(%rdx),%xmm0
    383f:	00 
    3840:	f3 0f 58 c1          	addss  %xmm1,%xmm0
    a += z[ 2*64] * 146;
    3844:	f3 0f 10 0d 14 b8 00 	movss  0xb814(%rip),%xmm1        # f060 <_IO_stdin_used+0x60>
    384b:	00 
    384c:	f3 0f 59 8a 08 02 00 	mulss  0x208(%rdx),%xmm1
    3853:	00 
    3854:	f3 0f 58 c8          	addss  %xmm0,%xmm1
    a += z[ 0*64] * -5;
    3858:	f3 0f 10 05 04 b8 00 	movss  0xb804(%rip),%xmm0        # f064 <_IO_stdin_used+0x64>
    385f:	00 
    3860:	f3 0f 59 42 08       	mulss  0x8(%rdx),%xmm0
    pcm[16*nch] = mp3d_scale_pcm(a);
    3865:	48 8d 14 41          	lea    (%rcx,%rax,2),%rdx
    if (sample >=  32766.5) return (int16_t) 32767;
    3869:	b8 ff 7f 00 00       	mov    $0x7fff,%eax
    a += z[ 0*64] * -5;
    386e:	f3 0f 58 c1          	addss  %xmm1,%xmm0
    if (sample >=  32766.5) return (int16_t) 32767;
    3872:	0f 2f 05 c7 b7 00 00 	comiss 0xb7c7(%rip),%xmm0        # f040 <_IO_stdin_used+0x40>
    3879:	73 21                	jae    389c <mp3d_synth_pair+0x1dc>
    if (sample <= -32767.5) return (int16_t)-32768;
    387b:	f3 0f 10 0d c1 b7 00 	movss  0xb7c1(%rip),%xmm1        # f044 <_IO_stdin_used+0x44>
    3882:	00 
    3883:	0f 2f c8             	comiss %xmm0,%xmm1
    3886:	73 22                	jae    38aa <mp3d_synth_pair+0x1ea>
    int16_t s = (int16_t)(sample + .5f);
    3888:	f3 0f 58 05 e4 dd 00 	addss  0xdde4(%rip),%xmm0        # 11674 <g_pow43+0x254>
    388f:	00 
    3890:	f3 0f 2c c0          	cvttss2si %xmm0,%eax
    s -= (s < 0);   /* away from zero, to be compliant */
    3894:	89 c1                	mov    %eax,%ecx
    3896:	66 c1 e9 0f          	shr    $0xf,%cx
    389a:	29 c8                	sub    %ecx,%eax
    pcm[16*nch] = mp3d_scale_pcm(a);
    389c:	66 89 02             	mov    %ax,(%rdx)
}
    389f:	c3                   	ret
    if (sample <= -32767.5) return (int16_t)-32768;
    38a0:	be 00 80 ff ff       	mov    $0xffff8000,%esi
    38a5:	e9 1e ff ff ff       	jmp    37c8 <mp3d_synth_pair+0x108>
    38aa:	b8 00 80 ff ff       	mov    $0xffff8000,%eax
    38af:	eb eb                	jmp    389c <mp3d_synth_pair+0x1dc>
    38b1:	66 66 2e 0f 1f 84 00 	data16 cs nopw 0x0(%rax,%rax,1)
    38b8:	00 00 00 00 
    38bc:	0f 1f 40 00          	nopl   0x0(%rax)

00000000000038c0 <mp3d_synth>:

static void mp3d_synth(float *xl, mp3d_sample_t *dstl, int nch, float *lins)
{
    38c0:	41 57                	push   %r15
    38c2:	4c 63 da             	movslq %edx,%r11
    38c5:	49 89 c9             	mov    %rcx,%r9
    zlin[4*31]     = xl[1 + 18*16];
    zlin[4*31 + 1] = xr[1 + 18*16];
    zlin[4*31 + 2] = xl[1];
    zlin[4*31 + 3] = xr[1];

    mp3d_synth_pair(dstr, nch, lins + 4*15 + 1);
    38c8:	48 8d 91 f4 00 00 00 	lea    0xf4(%rcx),%rdx
{
    38cf:	41 56                	push   %r14
    float *xr = xl + 576*(nch - 1);
    38d1:	43 8d 44 db f7       	lea    -0x9(%r11,%r11,8),%eax
{
    38d6:	49 89 f2             	mov    %rsi,%r10
    38d9:	49 89 f8             	mov    %rdi,%r8
    38dc:	41 55                	push   %r13
    float *xr = xl + 576*(nch - 1);
    38de:	c1 e0 06             	shl    $0x6,%eax
{
    38e1:	4d 89 dd             	mov    %r11,%r13
    mp3d_sample_t *dstr = dstl + (nch - 1);
    38e4:	4d 01 db             	add    %r11,%r11
{
    38e7:	41 54                	push   %r12
    float *xr = xl + 576*(nch - 1);
    38e9:	48 98                	cltq
    mp3d_synth_pair(dstr + 32*nch, nch, lins + 4*15 + 64 + 1);
    38eb:	45 89 ee             	mov    %r13d,%r14d
    mp3d_sample_t *dstr = dstl + (nch - 1);
    38ee:	4e 8d 64 1e fe       	lea    -0x2(%rsi,%r11,1),%r12
{
    38f3:	55                   	push   %rbp
    float *xr = xl + 576*(nch - 1);
    38f4:	48 8d 2c 87          	lea    (%rdi,%rax,4),%rbp
    mp3d_synth_pair(dstr + 32*nch, nch, lins + 4*15 + 64 + 1);
    38f8:	41 c1 e6 05          	shl    $0x5,%r14d
    mp3d_synth_pair(dstr, nch, lins + 4*15 + 1);
    38fc:	44 89 ee             	mov    %r13d,%esi
{
    38ff:	53                   	push   %rbx
    mp3d_synth_pair(dstr + 32*nch, nch, lins + 4*15 + 64 + 1);
    3900:	49 63 de             	movslq %r14d,%rbx
    3903:	48 01 db             	add    %rbx,%rbx
{
    3906:	48 83 ec 48          	sub    $0x48,%rsp
    zlin[4*15]     = xl[18*16];
    390a:	f3 0f 10 87 80 04 00 	movss  0x480(%rdi),%xmm0
    3911:	00 
    3912:	f3 0f 11 81 f0 0f 00 	movss  %xmm0,0xff0(%rcx)
    3919:	00 
    zlin[4*15 + 1] = xr[18*16];
    391a:	f3 0f 10 85 80 04 00 	movss  0x480(%rbp),%xmm0
    3921:	00 
    3922:	f3 0f 11 81 f4 0f 00 	movss  %xmm0,0xff4(%rcx)
    3929:	00 
    zlin[4*15 + 2] = xl[0];
    392a:	f3 0f 10 07          	movss  (%rdi),%xmm0
    392e:	f3 0f 11 81 f8 0f 00 	movss  %xmm0,0xff8(%rcx)
    3935:	00 
    zlin[4*15 + 3] = xr[0];
    3936:	f3 0f 10 45 00       	movss  0x0(%rbp),%xmm0
    393b:	f3 0f 11 81 fc 0f 00 	movss  %xmm0,0xffc(%rcx)
    3942:	00 
    zlin[4*31]     = xl[1 + 18*16];
    3943:	f3 0f 10 87 84 04 00 	movss  0x484(%rdi),%xmm0
    394a:	00 
    394b:	f3 0f 11 81 f0 10 00 	movss  %xmm0,0x10f0(%rcx)
    3952:	00 
    zlin[4*31 + 1] = xr[1 + 18*16];
    3953:	f3 0f 10 85 84 04 00 	movss  0x484(%rbp),%xmm0
    395a:	00 
    395b:	f3 0f 11 81 f4 10 00 	movss  %xmm0,0x10f4(%rcx)
    3962:	00 
    zlin[4*31 + 2] = xl[1];
    3963:	f3 0f 10 47 04       	movss  0x4(%rdi),%xmm0
    mp3d_synth_pair(dstr, nch, lins + 4*15 + 1);
    3968:	4c 89 e7             	mov    %r12,%rdi
    zlin[4*31 + 2] = xl[1];
    396b:	f3 0f 11 81 f8 10 00 	movss  %xmm0,0x10f8(%rcx)
    3972:	00 
    zlin[4*31 + 3] = xr[1];
    3973:	f3 0f 10 45 04       	movss  0x4(%rbp),%xmm0
    3978:	f3 0f 11 81 fc 10 00 	movss  %xmm0,0x10fc(%rcx)
    397f:	00 
    mp3d_synth_pair(dstr, nch, lins + 4*15 + 1);
    3980:	e8 3b fd ff ff       	call   36c0 <mp3d_synth_pair>
    mp3d_synth_pair(dstr + 32*nch, nch, lins + 4*15 + 64 + 1);
    3985:	49 8d 91 f4 01 00 00 	lea    0x1f4(%r9),%rdx
    398c:	49 8d 3c 1c          	lea    (%r12,%rbx,1),%rdi
    3990:	44 89 ee             	mov    %r13d,%esi
    3993:	e8 28 fd ff ff       	call   36c0 <mp3d_synth_pair>
    mp3d_synth_pair(dstl, nch, lins + 4*15);
    3998:	49 8d 91 f0 00 00 00 	lea    0xf0(%r9),%rdx
    399f:	44 89 ee             	mov    %r13d,%esi
    39a2:	4c 89 d7             	mov    %r10,%rdi
    39a5:	e8 16 fd ff ff       	call   36c0 <mp3d_synth_pair>
    mp3d_synth_pair(dstl + 32*nch, nch, lins + 4*15 + 64);
    39aa:	49 8d 91 f0 01 00 00 	lea    0x1f0(%r9),%rdx
    39b1:	49 8d 3c 1a          	lea    (%r10,%rbx,1),%rdi
    39b5:	44 89 ee             	mov    %r13d,%esi
    39b8:	e8 03 fd ff ff       	call   36c0 <mp3d_synth_pair>

#if HAVE_SIMD
    if (have_simd()) for (i = 14; i >= 0; i--)
    39bd:	49 8d 81 e0 00 00 00 	lea    0xe0(%r9),%rax
    39c4:	45 89 e9             	mov    %r13d,%r9d
    39c7:	44 89 f3             	mov    %r14d,%ebx
    39ca:	41 c1 e1 06          	shl    $0x6,%r9d
    39ce:	44 29 eb             	sub    %r13d,%ebx
    39d1:	43 8d 3c 2e          	lea    (%r14,%r13,1),%edi
    mp3d_synth_pair(dstl + 32*nch, nch, lins + 4*15 + 64);
    39d5:	be 38 04 00 00       	mov    $0x438,%esi
    39da:	45 29 e9             	sub    %r13d,%r9d
    39dd:	48 63 db             	movslq %ebx,%rbx
    39e0:	48 63 ff             	movslq %edi,%rdi
    39e3:	4d 89 dd             	mov    %r11,%r13
    39e6:	4d 63 c9             	movslq %r9d,%r9
    const float *w = g_win;
    39e9:	48 8d 15 70 bd 00 00 	lea    0xbd70(%rip),%rdx        # f760 <g_win.0>
    39f0:	48 01 db             	add    %rbx,%rbx
    39f3:	48 01 ff             	add    %rdi,%rdi
    39f6:	4d 01 c9             	add    %r9,%r9
    mp3d_synth_pair(dstl + 32*nch, nch, lins + 4*15 + 64);
    39f9:	b9 c8 04 00 00       	mov    $0x4c8,%ecx
    39fe:	4c 8d ba c0 03 00 00 	lea    0x3c0(%rdx),%r15
    3a05:	0f 1f 00             	nopl   (%rax)
#define VLOAD(k) f4 w0 = VSET(*w++); f4 w1 = VSET(*w++); f4 vz = VLD(&zlin[4*i - 64*k]); f4 vy = VLD(&zlin[4*i - 64*(15 - k)]);
#define V0(k) { VLOAD(k) b =         VADD(VMUL(vz, w1), VMUL(vy, w0)) ; a =         VSUB(VMUL(vz, w0), VMUL(vy, w1));  }
#define V1(k) { VLOAD(k) b = VADD(b, VADD(VMUL(vz, w1), VMUL(vy, w0))); a = VADD(a, VSUB(VMUL(vz, w0), VMUL(vy, w1))); }
#define V2(k) { VLOAD(k) b = VADD(b, VADD(VMUL(vz, w1), VMUL(vy, w0))); a = VADD(a, VSUB(VMUL(vy, w1), VMUL(vz, w0))); }
        f4 a, b;
        zlin[4*i]     = xl[18*(31 - i)];
    3a08:	f3 41 0f 10 04 08    	movss  (%r8,%rcx,1),%xmm0
        zlin[4*i + 64] = xl[1 + 18*(1 + i)];
        zlin[4*i + 64 + 1] = xr[1 + 18*(1 + i)];
        zlin[4*i - 64 + 2] = xl[18*(1 + i)];
        zlin[4*i - 64 + 3] = xr[18*(1 + i)];

        V0(0) V2(1) V1(2) V2(3) V1(4) V2(5) V1(6) V2(7)
    3a0e:	48 83 c2 40          	add    $0x40,%rdx
    if (have_simd()) for (i = 14; i >= 0; i--)
    3a12:	48 83 e8 10          	sub    $0x10,%rax
        zlin[4*i]     = xl[18*(31 - i)];
    3a16:	f3 0f 11 80 10 0f 00 	movss  %xmm0,0xf10(%rax)
    3a1d:	00 
        zlin[4*i + 1] = xr[18*(31 - i)];
    3a1e:	f3 0f 10 44 0d 00    	movss  0x0(%rbp,%rcx,1),%xmm0
    3a24:	f3 0f 11 80 14 0f 00 	movss  %xmm0,0xf14(%rax)
    3a2b:	00 
        zlin[4*i + 2] = xl[1 + 18*(31 - i)];
    3a2c:	f3 41 0f 10 44 08 04 	movss  0x4(%r8,%rcx,1),%xmm0
    3a33:	f3 0f 11 80 18 0f 00 	movss  %xmm0,0xf18(%rax)
    3a3a:	00 
        zlin[4*i + 3] = xr[1 + 18*(31 - i)];
    3a3b:	f3 0f 10 44 0d 04    	movss  0x4(%rbp,%rcx,1),%xmm0
    if (have_simd()) for (i = 14; i >= 0; i--)
    3a41:	48 83 c1 48          	add    $0x48,%rcx
        zlin[4*i + 3] = xr[1 + 18*(31 - i)];
    3a45:	f3 0f 11 80 1c 0f 00 	movss  %xmm0,0xf1c(%rax)
    3a4c:	00 
        zlin[4*i + 64] = xl[1 + 18*(1 + i)];
    3a4d:	f3 41 0f 10 44 30 04 	movss  0x4(%r8,%rsi,1),%xmm0
    3a54:	f3 0f 11 80 10 10 00 	movss  %xmm0,0x1010(%rax)
    3a5b:	00 
        zlin[4*i + 64 + 1] = xr[1 + 18*(1 + i)];
    3a5c:	f3 0f 10 44 35 04    	movss  0x4(%rbp,%rsi,1),%xmm0
    3a62:	f3 0f 11 80 14 10 00 	movss  %xmm0,0x1014(%rax)
    3a69:	00 
        zlin[4*i - 64 + 2] = xl[18*(1 + i)];
    3a6a:	f3 41 0f 10 04 30    	movss  (%r8,%rsi,1),%xmm0
    3a70:	f3 0f 11 80 18 0e 00 	movss  %xmm0,0xe18(%rax)
    3a77:	00 
        zlin[4*i - 64 + 3] = xr[18*(1 + i)];
    3a78:	f3 0f 10 44 35 00    	movss  0x0(%rbp,%rsi,1),%xmm0
    if (have_simd()) for (i = 14; i >= 0; i--)
    3a7e:	48 83 ee 48          	sub    $0x48,%rsi
        zlin[4*i - 64 + 3] = xr[18*(1 + i)];
    3a82:	f3 0f 11 80 1c 0e 00 	movss  %xmm0,0xe1c(%rax)
    3a89:	00 
  return __extension__ (__m128)(__v4sf){ __F, __F, __F, __F };
    3a8a:	f3 0f 10 52 ec       	movss  -0x14(%rdx),%xmm2
    3a8f:	f3 0f 10 6a f4       	movss  -0xc(%rdx),%xmm5
    3a94:	f3 44 0f 10 62 c0    	movss  -0x40(%rdx),%xmm12
    3a9a:	f3 44 0f 10 5a c4    	movss  -0x3c(%rdx),%xmm11
    3aa0:	f3 44 0f 10 6a c8    	movss  -0x38(%rdx),%xmm13
    3aa6:	f3 44 0f 10 72 cc    	movss  -0x34(%rdx),%xmm14
    3aac:	0f c6 d2 00          	shufps $0x0,%xmm2,%xmm2
    3ab0:	0f c6 ed 00          	shufps $0x0,%xmm5,%xmm5
    3ab4:	f3 44 0f 10 52 d0    	movss  -0x30(%rdx),%xmm10
    3aba:	f3 44 0f 10 4a d4    	movss  -0x2c(%rdx),%xmm9
    3ac0:	0f 29 14 24          	movaps %xmm2,(%rsp)
    3ac4:	45 0f c6 e4 00       	shufps $0x0,%xmm12,%xmm12
    3ac9:	f3 44 0f 10 42 d8    	movss  -0x28(%rdx),%xmm8
    3acf:	f3 0f 10 62 dc       	movss  -0x24(%rdx),%xmm4
    3ad4:	0f 29 6c 24 10       	movaps %xmm5,0x10(%rsp)
    3ad9:	45 0f c6 ed 00       	shufps $0x0,%xmm13,%xmm13
    3ade:	f3 0f 10 5a e0       	movss  -0x20(%rdx),%xmm3
    3ae3:	f3 0f 10 7a e4       	movss  -0x1c(%rdx),%xmm7
    3ae8:	45 0f c6 f6 00       	shufps $0x0,%xmm14,%xmm14
    3aed:	45 0f c6 db 00       	shufps $0x0,%xmm11,%xmm11
    3af2:	f3 0f 10 72 e8       	movss  -0x18(%rdx),%xmm6
    3af7:	f3 0f 10 4a f0       	movss  -0x10(%rdx),%xmm1
    3afc:	45 0f c6 c9 00       	shufps $0x0,%xmm9,%xmm9
    3b01:	45 0f c6 d2 00       	shufps $0x0,%xmm10,%xmm10
    3b06:	f3 0f 10 42 f8       	movss  -0x8(%rdx),%xmm0
    3b0b:	0f c6 e4 00          	shufps $0x0,%xmm4,%xmm4
    3b0f:	0f c6 db 00          	shufps $0x0,%xmm3,%xmm3
    3b13:	0f c6 ff 00          	shufps $0x0,%xmm7,%xmm7
  return (__m128) ((__v4sf)__A * (__v4sf)__B);
    3b17:	0f 10 a8 10 01 00 00 	movups 0x110(%rax),%xmm5
    3b1e:	44 0f 10 78 10       	movups 0x10(%rax),%xmm15
  return __extension__ (__m128)(__v4sf){ __F, __F, __F, __F };
    3b23:	0f c6 f6 00          	shufps $0x0,%xmm6,%xmm6
    3b27:	0f c6 c9 00          	shufps $0x0,%xmm1,%xmm1
    3b2b:	0f c6 c0 00          	shufps $0x0,%xmm0,%xmm0
    3b2f:	0f 29 44 24 20       	movaps %xmm0,0x20(%rsp)
    3b34:	45 0f c6 c0 00       	shufps $0x0,%xmm8,%xmm8
    3b39:	0f 28 d1             	movaps %xmm1,%xmm2
  return (__m128) ((__v4sf)__A * (__v4sf)__B);
    3b3c:	0f 10 80 10 0e 00 00 	movups 0xe10(%rax),%xmm0
    3b43:	41 0f 59 ed          	mulps  %xmm13,%xmm5
    3b47:	0f 29 54 24 30       	movaps %xmm2,0x30(%rsp)
  return __extension__ (__m128)(__v4sf){ __F, __F, __F, __F };
    3b4c:	f3 0f 10 4a fc       	movss  -0x4(%rdx),%xmm1
  return (__m128) ((__v4sf)__A * (__v4sf)__B);
    3b51:	45 0f 59 fc          	mulps  %xmm12,%xmm15
    3b55:	41 0f 59 c6          	mulps  %xmm14,%xmm0
  return __extension__ (__m128)(__v4sf){ __F, __F, __F, __F };
    3b59:	0f c6 c9 00          	shufps $0x0,%xmm1,%xmm1
  return (__m128) ((__v4sf)__A + (__v4sf)__B);
    3b5d:	0f 58 c5             	addps  %xmm5,%xmm0
  return (__m128) ((__v4sf)__A * (__v4sf)__B);
    3b60:	0f 10 a8 10 0f 00 00 	movups 0xf10(%rax),%xmm5
    3b67:	41 0f 59 eb          	mulps  %xmm11,%xmm5
  return (__m128) ((__v4sf)__A + (__v4sf)__B);
    3b6b:	41 0f 58 ef          	addps  %xmm15,%xmm5
  return (__m128) ((__v4sf)__A * (__v4sf)__B);
    3b6f:	44 0f 10 b8 10 02 00 	movups 0x210(%rax),%xmm15
    3b76:	00 
    3b77:	45 0f 59 fa          	mulps  %xmm10,%xmm15
  return (__m128) ((__v4sf)__A + (__v4sf)__B);
    3b7b:	0f 58 e8             	addps  %xmm0,%xmm5
  return (__m128) ((__v4sf)__A * (__v4sf)__B);
    3b7e:	0f 10 80 10 0d 00 00 	movups 0xd10(%rax),%xmm0
    3b85:	41 0f 59 c1          	mulps  %xmm9,%xmm0
  return (__m128) ((__v4sf)__A + (__v4sf)__B);
    3b89:	41 0f 58 c7          	addps  %xmm15,%xmm0
  return (__m128) ((__v4sf)__A * (__v4sf)__B);
    3b8d:	44 0f 10 b8 10 0c 00 	movups 0xc10(%rax),%xmm15
    3b94:	00 
    3b95:	44 0f 59 fc          	mulps  %xmm4,%xmm15
  return (__m128) ((__v4sf)__A + (__v4sf)__B);
    3b99:	0f 58 c5             	addps  %xmm5,%xmm0
  return (__m128) ((__v4sf)__A * (__v4sf)__B);
    3b9c:	0f 10 a8 10 03 00 00 	movups 0x310(%rax),%xmm5
    3ba3:	41 0f 59 e8          	mulps  %xmm8,%xmm5
  return (__m128) ((__v4sf)__A + (__v4sf)__B);
    3ba7:	41 0f 58 ef          	addps  %xmm15,%xmm5
  return (__m128) ((__v4sf)__A * (__v4sf)__B);
    3bab:	44 0f 10 b8 10 0b 00 	movups 0xb10(%rax),%xmm15
    3bb2:	00 
    3bb3:	44 0f 59 ff          	mulps  %xmm7,%xmm15
  return (__m128) ((__v4sf)__A + (__v4sf)__B);
    3bb7:	0f 58 e8             	addps  %xmm0,%xmm5
  return (__m128) ((__v4sf)__A * (__v4sf)__B);
    3bba:	0f 10 80 10 04 00 00 	movups 0x410(%rax),%xmm0
    3bc1:	0f 59 c3             	mulps  %xmm3,%xmm0
  return (__m128) ((__v4sf)__A + (__v4sf)__B);
    3bc4:	41 0f 58 c7          	addps  %xmm15,%xmm0
  return (__m128) ((__v4sf)__A * (__v4sf)__B);
    3bc8:	44 0f 10 b8 10 0a 00 	movups 0xa10(%rax),%xmm15
    3bcf:	00 
    3bd0:	44 0f 59 3c 24       	mulps  (%rsp),%xmm15
  return (__m128) ((__v4sf)__A + (__v4sf)__B);
    3bd5:	0f 58 c5             	addps  %xmm5,%xmm0
  return (__m128) ((__v4sf)__A * (__v4sf)__B);
    3bd8:	0f 10 a8 10 05 00 00 	movups 0x510(%rax),%xmm5
    3bdf:	0f 59 ee             	mulps  %xmm6,%xmm5
  return (__m128) ((__v4sf)__A + (__v4sf)__B);
    3be2:	41 0f 58 ef          	addps  %xmm15,%xmm5
    3be6:	0f 58 e8             	addps  %xmm0,%xmm5
  return (__m128) ((__v4sf)__A * (__v4sf)__B);
    3be9:	0f 10 80 10 06 00 00 	movups 0x610(%rax),%xmm0
    3bf0:	0f 59 c2             	mulps  %xmm2,%xmm0
    3bf3:	0f 10 90 10 09 00 00 	movups 0x910(%rax),%xmm2
    3bfa:	0f 59 54 24 10       	mulps  0x10(%rsp),%xmm2
  return (__m128) ((__v4sf)__A + (__v4sf)__B);
    3bff:	0f 58 c2             	addps  %xmm2,%xmm0
  return (__m128) ((__v4sf)__A * (__v4sf)__B);
    3c02:	0f 10 90 10 07 00 00 	movups 0x710(%rax),%xmm2
    3c09:	0f 59 54 24 20       	mulps  0x20(%rsp),%xmm2
  return (__m128) ((__v4sf)__A + (__v4sf)__B);
    3c0e:	0f 58 c5             	addps  %xmm5,%xmm0
  return (__m128) ((__v4sf)__A * (__v4sf)__B);
    3c11:	0f 28 ea             	movaps %xmm2,%xmm5
    3c14:	0f 10 90 10 08 00 00 	movups 0x810(%rax),%xmm2
    3c1b:	0f 59 d1             	mulps  %xmm1,%xmm2
  return (__m128) ((__v4sf)__A + (__v4sf)__B);
    3c1e:	0f 58 ea             	addps  %xmm2,%xmm5
  return (__m128) ((__v4sf)__A * (__v4sf)__B);
    3c21:	0f 10 90 10 01 00 00 	movups 0x110(%rax),%xmm2
    3c28:	41 0f 59 d6          	mulps  %xmm14,%xmm2
  return (__m128) ((__v4sf)__A + (__v4sf)__B);
    3c2c:	0f 58 c5             	addps  %xmm5,%xmm0
  return (__m128) __builtin_ia32_minps ((__v4sf)__A, (__v4sf)__B);
    3c2f:	0f 5d 05 9a da 00 00 	minps  0xda9a(%rip),%xmm0        # 116d0 <g_pow43+0x2b0>
  return (__m128) __builtin_ia32_maxps ((__v4sf)__A, (__v4sf)__B);
    3c36:	0f 5f 05 a3 da 00 00 	maxps  0xdaa3(%rip),%xmm0        # 116e0 <g_pow43+0x2c0>
  return (__m128) ((__v4sf)__A * (__v4sf)__B);
    3c3d:	0f 28 ea             	movaps %xmm2,%xmm5
    3c40:	0f 10 90 10 0e 00 00 	movups 0xe10(%rax),%xmm2
}

extern __inline __m128i __attribute__((__gnu_inline__, __always_inline__, __artificial__))
_mm_cvtps_epi32 (__m128 __A)
{
  return (__m128i)__builtin_ia32_cvtps2dq ((__v4sf) __A);
    3c47:	66 0f 5b c0          	cvtps2dq %xmm0,%xmm0
    3c4b:	44 0f 59 ea          	mulps  %xmm2,%xmm13
    3c4f:	0f 10 90 10 0f 00 00 	movups 0xf10(%rax),%xmm2
    3c56:	44 0f 59 e2          	mulps  %xmm2,%xmm12
    3c5a:	0f 10 50 10          	movups 0x10(%rax),%xmm2
    3c5e:	44 0f 59 da          	mulps  %xmm2,%xmm11
    3c62:	0f 10 90 10 0d 00 00 	movups 0xd10(%rax),%xmm2
  return (__m128) ((__v4sf)__A - (__v4sf)__B);
    3c69:	41 0f 5c ed          	subps  %xmm13,%xmm5
  return (__m128) ((__v4sf)__A * (__v4sf)__B);
    3c6d:	44 0f 59 d2          	mulps  %xmm2,%xmm10
    3c71:	0f 10 90 10 03 00 00 	movups 0x310(%rax),%xmm2
    3c78:	0f 59 e2             	mulps  %xmm2,%xmm4
  return (__m128) ((__v4sf)__A - (__v4sf)__B);
    3c7b:	45 0f 5c e3          	subps  %xmm11,%xmm12
  return (__m128) ((__v4sf)__A * (__v4sf)__B);
    3c7f:	44 0f 10 98 10 02 00 	movups 0x210(%rax),%xmm11
    3c86:	00 
    3c87:	0f 10 90 10 0c 00 00 	movups 0xc10(%rax),%xmm2
    3c8e:	44 0f 59 c2          	mulps  %xmm2,%xmm8
    3c92:	0f 10 90 10 0b 00 00 	movups 0xb10(%rax),%xmm2
    3c99:	45 0f 59 d9          	mulps  %xmm9,%xmm11
  return (__m128) ((__v4sf)__A - (__v4sf)__B);
    3c9d:	45 0f 28 ca          	movaps %xmm10,%xmm9
  return (__m128) ((__v4sf)__A + (__v4sf)__B);
    3ca1:	41 0f 58 ec          	addps  %xmm12,%xmm5
  return (__m128) ((__v4sf)__A * (__v4sf)__B);
    3ca5:	0f 59 da             	mulps  %xmm2,%xmm3
    3ca8:	0f 10 90 10 04 00 00 	movups 0x410(%rax),%xmm2
    3caf:	0f 59 fa             	mulps  %xmm2,%xmm7
    3cb2:	0f 28 14 24          	movaps (%rsp),%xmm2
  return (__m128) ((__v4sf)__A - (__v4sf)__B);
    3cb6:	41 0f 5c e0          	subps  %xmm8,%xmm4
    3cba:	45 0f 5c cb          	subps  %xmm11,%xmm9
    3cbe:	0f 5c df             	subps  %xmm7,%xmm3
  return (__m128) ((__v4sf)__A * (__v4sf)__B);
    3cc1:	0f 10 b8 10 05 00 00 	movups 0x510(%rax),%xmm7
  return (__m128) ((__v4sf)__A + (__v4sf)__B);
    3cc8:	41 0f 58 e9          	addps  %xmm9,%xmm5
  return (__m128) ((__v4sf)__A * (__v4sf)__B);
    3ccc:	0f 59 d7             	mulps  %xmm7,%xmm2
    3ccf:	0f 10 b8 10 0a 00 00 	movups 0xa10(%rax),%xmm7
  return (__m128) ((__v4sf)__A + (__v4sf)__B);
    3cd6:	0f 58 e5             	addps  %xmm5,%xmm4
  return (__m128) ((__v4sf)__A * (__v4sf)__B);
    3cd9:	0f 59 f7             	mulps  %xmm7,%xmm6
  return (__m128) ((__v4sf)__A + (__v4sf)__B);
    3cdc:	0f 58 dc             	addps  %xmm4,%xmm3
  return (__m128) ((__v4sf)__A * (__v4sf)__B);
    3cdf:	0f 10 a0 10 06 00 00 	movups 0x610(%rax),%xmm4
    3ce6:	0f 59 64 24 10       	mulps  0x10(%rsp),%xmm4
  return (__m128) ((__v4sf)__A - (__v4sf)__B);
    3ceb:	0f 5c d6             	subps  %xmm6,%xmm2
  return (__m128) ((__v4sf)__A * (__v4sf)__B);
    3cee:	0f 10 b0 10 07 00 00 	movups 0x710(%rax),%xmm6
    3cf5:	0f 59 ce             	mulps  %xmm6,%xmm1
  return (__m128) ((__v4sf)__A + (__v4sf)__B);
    3cf8:	0f 58 d3             	addps  %xmm3,%xmm2
  return (__m128) ((__v4sf)__A * (__v4sf)__B);
    3cfb:	0f 10 98 10 09 00 00 	movups 0x910(%rax),%xmm3
    3d02:	0f 59 5c 24 30       	mulps  0x30(%rsp),%xmm3
  return (__m128) ((__v4sf)__A - (__v4sf)__B);
    3d07:	0f 5c dc             	subps  %xmm4,%xmm3
  return (__m128) ((__v4sf)__A + (__v4sf)__B);
    3d0a:	0f 58 d3             	addps  %xmm3,%xmm2
  return (__m128) ((__v4sf)__A * (__v4sf)__B);
    3d0d:	0f 10 98 10 08 00 00 	movups 0x810(%rax),%xmm3
    3d14:	0f 59 5c 24 20       	mulps  0x20(%rsp),%xmm3
  return (__m128) ((__v4sf)__A - (__v4sf)__B);
    3d19:	0f 5c cb             	subps  %xmm3,%xmm1
  return (__m128) ((__v4sf)__A + (__v4sf)__B);
    3d1c:	0f 58 ca             	addps  %xmm2,%xmm1
  return (__m128) __builtin_ia32_minps ((__v4sf)__A, (__v4sf)__B);
    3d1f:	0f 5d 0d aa d9 00 00 	minps  0xd9aa(%rip),%xmm1        # 116d0 <g_pow43+0x2b0>
  return (__m128) __builtin_ia32_maxps ((__v4sf)__A, (__v4sf)__B);
    3d26:	0f 5f 0d b3 d9 00 00 	maxps  0xd9b3(%rip),%xmm1        # 116e0 <g_pow43+0x2c0>
    3d2d:	66 0f 5b c9          	cvtps2dq %xmm1,%xmm1
}

extern __inline __m128i __attribute__((__gnu_inline__, __always_inline__, __artificial__))
_mm_packs_epi32 (__m128i __A, __m128i __B)
{
  return (__m128i)__builtin_ia32_packssdw128 ((__v4si)__A, (__v4si)__B);
    3d31:	66 0f 6b c8          	packssdw %xmm0,%xmm1

#ifdef __OPTIMIZE__
extern __inline int __attribute__((__gnu_inline__, __always_inline__, __artificial__))
_mm_extract_epi16 (__m128i const __A, int const __N)
{
  return (unsigned short) __builtin_ia32_vec_ext_v8hi ((__v8hi)__A, __N);
    3d35:	66 44 0f c5 f1 01    	pextrw $0x1,%xmm1,%r14d
#if HAVE_SSE
            static const f4 g_max = { 32767.0f, 32767.0f, 32767.0f, 32767.0f };
            static const f4 g_min = { -32768.0f, -32768.0f, -32768.0f, -32768.0f };
            __m128i pcm8 = _mm_packs_epi32(_mm_cvtps_epi32(_mm_max_ps(_mm_min_ps(a, g_max), g_min)),
                                           _mm_cvtps_epi32(_mm_max_ps(_mm_min_ps(b, g_max), g_min)));
            dstr[(15 - i)*nch] = _mm_extract_epi16(pcm8, 1);
    3d3b:	66 47 89 34 2c       	mov    %r14w,(%r12,%r13,1)
    3d40:	66 44 0f c5 f1 05    	pextrw $0x5,%xmm1,%r14d
            dstr[(17 + i)*nch] = _mm_extract_epi16(pcm8, 5);
    3d46:	66 45 89 34 1c       	mov    %r14w,(%r12,%rbx,1)
            dstl[(15 - i)*nch] = _mm_extract_epi16(pcm8, 0);
    3d4b:	66 41 0f 7e ce       	movd   %xmm1,%r14d
    3d50:	66 47 89 34 2a       	mov    %r14w,(%r10,%r13,1)
    3d55:	66 44 0f c5 f1 04    	pextrw $0x4,%xmm1,%r14d
    if (have_simd()) for (i = 14; i >= 0; i--)
    3d5b:	4d 01 dd             	add    %r11,%r13
            dstl[(17 + i)*nch] = _mm_extract_epi16(pcm8, 4);
    3d5e:	66 45 89 34 1a       	mov    %r14w,(%r10,%rbx,1)
    3d63:	66 44 0f c5 f1 03    	pextrw $0x3,%xmm1,%r14d
    3d69:	4c 29 db             	sub    %r11,%rbx
            dstr[(47 - i)*nch] = _mm_extract_epi16(pcm8, 3);
    3d6c:	66 45 89 34 3c       	mov    %r14w,(%r12,%rdi,1)
    3d71:	66 44 0f c5 f1 07    	pextrw $0x7,%xmm1,%r14d
            dstr[(49 + i)*nch] = _mm_extract_epi16(pcm8, 7);
    3d77:	66 47 89 34 0c       	mov    %r14w,(%r12,%r9,1)
    3d7c:	66 44 0f c5 f1 02    	pextrw $0x2,%xmm1,%r14d
            dstl[(47 - i)*nch] = _mm_extract_epi16(pcm8, 2);
    3d82:	66 45 89 34 3a       	mov    %r14w,(%r10,%rdi,1)
    3d87:	66 44 0f c5 f1 06    	pextrw $0x6,%xmm1,%r14d
    if (have_simd()) for (i = 14; i >= 0; i--)
    3d8d:	4c 01 df             	add    %r11,%rdi
            dstl[(49 + i)*nch] = _mm_extract_epi16(pcm8, 6);
    3d90:	66 47 89 34 0a       	mov    %r14w,(%r10,%r9,1)
    if (have_simd()) for (i = 14; i >= 0; i--)
    3d95:	4d 29 d9             	sub    %r11,%r9
    3d98:	4c 39 fa             	cmp    %r15,%rdx
    3d9b:	0f 85 67 fc ff ff    	jne    3a08 <mp3d_synth+0x148>
        dstr[(49 + i)*nch] = mp3d_scale_pcm(b[3]);
        dstl[(47 - i)*nch] = mp3d_scale_pcm(a[2]);
        dstl[(49 + i)*nch] = mp3d_scale_pcm(b[2]);
    }
#endif /* MINIMP3_ONLY_SIMD */
}
    3da1:	48 83 c4 48          	add    $0x48,%rsp
    3da5:	5b                   	pop    %rbx
    3da6:	5d                   	pop    %rbp
    3da7:	41 5c                	pop    %r12
    3da9:	41 5d                	pop    %r13
    3dab:	41 5e                	pop    %r14
    3dad:	41 5f                	pop    %r15
    3daf:	c3                   	ret

0000000000003db0 <mp3dec_init>:
    *ptr_frame_bytes = 0;
    return mp3_bytes;
}

void mp3dec_init(mp3dec_t *dec)
{
    3db0:	f3 0f 1e fa          	endbr64
    dec->header[0] = 0;
    3db4:	c6 87 08 18 00 00 00 	movb   $0x0,0x1808(%rdi)
}
    3dbb:	c3                   	ret
    3dbc:	0f 1f 40 00          	nopl   0x0(%rax)

0000000000003dc0 <mp3dec_decode_frame>:

int mp3dec_decode_frame(mp3dec_t *dec, const uint8_t *mp3, int mp3_bytes, mp3d_sample_t *pcm, mp3dec_frame_info_t *info)
{
    3dc0:	f3 0f 1e fa          	endbr64
    3dc4:	41 57                	push   %r15
    3dc6:	41 56                	push   %r14
    3dc8:	41 55                	push   %r13
    3dca:	41 54                	push   %r12
    3dcc:	55                   	push   %rbp
    3dcd:	53                   	push   %rbx
    3dce:	4c 8d 9c 24 00 c0 ff 	lea    -0x4000(%rsp),%r11
    3dd5:	ff 
    3dd6:	48 81 ec 00 10 00 00 	sub    $0x1000,%rsp
    3ddd:	48 83 0c 24 00       	orq    $0x0,(%rsp)
    3de2:	4c 39 dc             	cmp    %r11,%rsp
    3de5:	75 ef                	jne    3dd6 <mp3dec_decode_frame+0x16>
    3de7:	48 81 ec c8 07 00 00 	sub    $0x7c8,%rsp
    3dee:	48 89 bc 24 f0 03 00 	mov    %rdi,0x3f0(%rsp)
    3df5:	00 
    3df6:	41 89 d1             	mov    %edx,%r9d
    3df9:	48 89 8c 24 00 04 00 	mov    %rcx,0x400(%rsp)
    3e00:	00 
    3e01:	4c 89 84 24 f8 03 00 	mov    %r8,0x3f8(%rsp)
    3e08:	00 
    3e09:	64 48 8b 04 25 28 00 	mov    %fs:0x28,%rax
    3e10:	00 00 
    3e12:	48 89 84 24 b8 47 00 	mov    %rax,0x47b8(%rsp)
    3e19:	00 
    3e1a:	31 c0                	xor    %eax,%eax
    int i = 0, igr, frame_size = 0, success = 1;
    const uint8_t *hdr;
    bs_t bs_frame[1];
    mp3dec_scratch_t scratch;

    if (mp3_bytes > 4 && dec->header[0] == 0xff && hdr_compare(dec->header, mp3))
    3e1c:	83 fa 04             	cmp    $0x4,%edx
    3e1f:	7f 67                	jg     3e88 <mp3dec_decode_frame+0xc8>
    3e21:	48 c7 07 00 00 00 00 	movq   $0x0,(%rdi)
    3e28:	48 89 f8             	mov    %rdi,%rax
    3e2b:	48 8d 7f 08          	lea    0x8(%rdi),%rdi
    3e2f:	48 c7 87 fc 19 00 00 	movq   $0x0,0x19fc(%rdi)
    3e36:	00 00 00 00 
    3e3a:	48 89 c1             	mov    %rax,%rcx
    3e3d:	48 83 e7 f8          	and    $0xfffffffffffffff8,%rdi
    3e41:	31 c0                	xor    %eax,%eax
    3e43:	48 29 f9             	sub    %rdi,%rcx
    3e46:	81 c1 0c 1a 00 00    	add    $0x1a0c,%ecx
    3e4c:	c1 e9 03             	shr    $0x3,%ecx
    3e4f:	f3 48 ab             	rep stos %rax,%es:(%rdi)
    {
        memset(dec, 0, sizeof(mp3dec_t));
        i = mp3d_find_frame(mp3, mp3_bytes, &dec->free_format_bytes, &frame_size);
        if (!frame_size || i + frame_size > mp3_bytes)
        {
            info->frame_bytes = i;
    3e52:	48 8b 84 24 f8 03 00 	mov    0x3f8(%rsp),%rax
    3e59:	00 
    3e5a:	44 89 08             	mov    %r9d,(%rax)
            return 0;
    3e5d:	31 c0                	xor    %eax,%eax
            }
        }
#endif /* MINIMP3_ONLY_MP3 */
    }
    return success*hdr_frame_samples(dec->header);
}
    3e5f:	48 8b 94 24 b8 47 00 	mov    0x47b8(%rsp),%rdx
    3e66:	00 
    3e67:	64 48 2b 14 25 28 00 	sub    %fs:0x28,%rdx
    3e6e:	00 00 
    3e70:	0f 85 33 63 00 00    	jne    a1a9 <mp3dec_decode_frame+0x63e9>
    3e76:	48 81 c4 c8 47 00 00 	add    $0x47c8,%rsp
    3e7d:	5b                   	pop    %rbx
    3e7e:	5d                   	pop    %rbp
    3e7f:	41 5c                	pop    %r12
    3e81:	41 5d                	pop    %r13
    3e83:	41 5e                	pop    %r14
    3e85:	41 5f                	pop    %r15
    3e87:	c3                   	ret
    if (mp3_bytes > 4 && dec->header[0] == 0xff && hdr_compare(dec->header, mp3))
    3e88:	80 bf 08 18 00 00 ff 	cmpb   $0xff,0x1808(%rdi)
    3e8f:	49 89 f4             	mov    %rsi,%r12
    3e92:	75 17                	jne    3eab <mp3dec_decode_frame+0xeb>
    3e94:	48 89 fb             	mov    %rdi,%rbx
    3e97:	48 8d bf 08 18 00 00 	lea    0x1808(%rdi),%rdi
    3e9e:	e8 fd ee ff ff       	call   2da0 <hdr_compare>
    3ea3:	85 c0                	test   %eax,%eax
    3ea5:	0f 85 ea 34 00 00    	jne    7395 <mp3dec_decode_frame+0x35d5>
    3eab:	45 31 ed             	xor    %r13d,%r13d
    for (i = 0; i < mp3_bytes - HDR_SIZE; i++, mp3++)
    3eae:	45 8d 59 fc          	lea    -0x4(%r9),%r11d
    3eb2:	4c 89 e5             	mov    %r12,%rbp
    3eb5:	45 31 ff             	xor    %r15d,%r15d
    3eb8:	48 8b 84 24 f0 03 00 	mov    0x3f0(%rsp),%rax
    3ebf:	00 
    3ec0:	48 8d 78 08          	lea    0x8(%rax),%rdi
    3ec4:	4c 89 28             	mov    %r13,(%rax)
    3ec7:	48 83 e7 f8          	and    $0xfffffffffffffff8,%rdi
    3ecb:	4c 89 a8 04 1a 00 00 	mov    %r13,0x1a04(%rax)
    3ed2:	48 29 f8             	sub    %rdi,%rax
    3ed5:	48 89 c1             	mov    %rax,%rcx
    3ed8:	31 c0                	xor    %eax,%eax
    3eda:	81 c1 0c 1a 00 00    	add    $0x1a0c,%ecx
    3ee0:	c1 e9 03             	shr    $0x3,%ecx
    3ee3:	f3 48 ab             	rep stos %rax,%es:(%rdi)
    3ee6:	43 8d 44 21 f3       	lea    -0xd(%r9,%r12,1),%eax
    3eeb:	89 44 24 20          	mov    %eax,0x20(%rsp)
    3eef:	eb 3b                	jmp    3f2c <mp3dec_decode_frame+0x16c>
    3ef1:	0f 1f 80 00 00 00 00 	nopl   0x0(%rax)
    3ef8:	48 89 fd             	mov    %rdi,%rbp
                mp3d_match_frame(mp3, mp3_bytes - i, frame_bytes)) ||
    3efb:	45 85 ff             	test   %r15d,%r15d
    3efe:	75 09                	jne    3f09 <mp3dec_decode_frame+0x149>
    3f00:	45 39 c1             	cmp    %r8d,%r9d
    3f03:	0f 84 a2 06 00 00    	je     45ab <mp3dec_decode_frame+0x7eb>
            *free_format_bytes = 0;
    3f09:	48 8b 84 24 f0 03 00 	mov    0x3f0(%rsp),%rax
    3f10:	00 
    3f11:	c7 80 04 18 00 00 00 	movl   $0x0,0x1804(%rax)
    3f18:	00 00 00 
    for (i = 0; i < mp3_bytes - HDR_SIZE; i++, mp3++)
    3f1b:	41 83 c7 01          	add    $0x1,%r15d
    3f1f:	48 83 c5 01          	add    $0x1,%rbp
    3f23:	45 39 df             	cmp    %r11d,%r15d
    3f26:	0f 84 26 ff ff ff    	je     3e52 <mp3dec_decode_frame+0x92>
        (HDR_GET_BITRATE(h) != 15) &&
    3f2c:	80 7d 00 ff          	cmpb   $0xff,0x0(%rbp)
    3f30:	75 e9                	jne    3f1b <mp3dec_decode_frame+0x15b>
        ((h[1] & 0xF0) == 0xf0 || (h[1] & 0xFE) == 0xe2) &&
    3f32:	0f b6 5d 01          	movzbl 0x1(%rbp),%ebx
    return h[0] == 0xff &&
    3f36:	89 d8                	mov    %ebx,%eax
    3f38:	f7 d0                	not    %eax
    3f3a:	a8 f0                	test   $0xf0,%al
    3f3c:	0f 84 7e 06 00 00    	je     45c0 <mp3dec_decode_frame+0x800>
        ((h[1] & 0xF0) == 0xf0 || (h[1] & 0xFE) == 0xe2) &&
    3f42:	89 d8                	mov    %ebx,%eax
    3f44:	83 e0 fe             	and    $0xfffffffe,%eax
    3f47:	3c e2                	cmp    $0xe2,%al
    3f49:	75 d0                	jne    3f1b <mp3dec_decode_frame+0x15b>
        (HDR_GET_BITRATE(h) != 15) &&
    3f4b:	44 0f b6 6d 02       	movzbl 0x2(%rbp),%r13d
    3f50:	44 89 e8             	mov    %r13d,%eax
    3f53:	c0 e8 04             	shr    $0x4,%al
        (HDR_GET_LAYER(h) != 0) &&
    3f56:	3c 0f                	cmp    $0xf,%al
    3f58:	74 c1                	je     3f1b <mp3dec_decode_frame+0x15b>
        (HDR_GET_BITRATE(h) != 15) &&
    3f5a:	44 89 e8             	mov    %r13d,%eax
    3f5d:	f7 d0                	not    %eax
    3f5f:	a8 0c                	test   $0xc,%al
    3f61:	74 b8                	je     3f1b <mp3dec_decode_frame+0x15b>
            int frame_bytes = hdr_frame_bytes(mp3, *free_format_bytes);
    3f63:	48 8b 84 24 f0 03 00 	mov    0x3f0(%rsp),%rax
    3f6a:	00 
    3f6b:	48 89 ef             	mov    %rbp,%rdi
    3f6e:	44 89 4c 24 10       	mov    %r9d,0x10(%rsp)
    3f73:	44 89 1c 24          	mov    %r11d,(%rsp)
    3f77:	8b b0 04 18 00 00    	mov    0x1804(%rax),%esi
    3f7d:	e8 9e ee ff ff       	call   2e20 <hdr_frame_bytes>
    return HDR_TEST_PADDING(h) ? (HDR_IS_LAYER_1(h) ? 4 : 1) : 0;
    3f82:	41 83 e5 02          	and    $0x2,%r13d
    3f86:	44 8b 1c 24          	mov    (%rsp),%r11d
    3f8a:	44 8b 4c 24 10       	mov    0x10(%rsp),%r9d
    3f8f:	41 89 c0             	mov    %eax,%r8d
    3f92:	74 11                	je     3fa5 <mp3dec_decode_frame+0x1e5>
            int frame_and_padding = frame_bytes + hdr_padding(mp3);
    3f94:	f7 d3                	not    %ebx
    3f96:	8d 48 04             	lea    0x4(%rax),%ecx
    3f99:	8d 50 01             	lea    0x1(%rax),%edx
    3f9c:	83 e3 06             	and    $0x6,%ebx
    3f9f:	0f 45 ca             	cmovne %edx,%ecx
    3fa2:	41 89 c8             	mov    %ecx,%r8d
            for (k = HDR_SIZE; !frame_bytes && k < MAX_FREE_FORMAT_FRAME_SIZE && i + 2*k < mp3_bytes - HDR_SIZE; k++)
    3fa5:	85 c0                	test   %eax,%eax
    3fa7:	0f 85 c2 33 00 00    	jne    736f <mp3dec_decode_frame+0x35af>
    3fad:	41 8d 47 08          	lea    0x8(%r15),%eax
    3fb1:	41 39 c3             	cmp    %eax,%r11d
    3fb4:	0f 8e 4f ff ff ff    	jle    3f09 <mp3dec_decode_frame+0x149>
    3fba:	8b 44 24 20          	mov    0x20(%rsp),%eax
    3fbe:	41 ba 04 00 00 00    	mov    $0x4,%r10d
    3fc4:	48 89 ef             	mov    %rbp,%rdi
    3fc7:	29 e8                	sub    %ebp,%eax
    3fc9:	d1 e8                	shr    $1,%eax
    3fcb:	44 8d 68 05          	lea    0x5(%rax),%r13d
    3fcf:	eb 56                	jmp    4027 <mp3dec_decode_frame+0x267>
    3fd1:	0f 1f 80 00 00 00 00 	nopl   0x0(%rax)
                    if (i + k + nextfb + HDR_SIZE > mp3_bytes || !hdr_compare(mp3, mp3 + k + nextfb))
    3fd8:	48 63 f0             	movslq %eax,%rsi
    3fdb:	4c 01 d6             	add    %r10,%rsi
    3fde:	48 01 fe             	add    %rdi,%rsi
    3fe1:	e8 ba ed ff ff       	call   2da0 <hdr_compare>
    3fe6:	85 c0                	test   %eax,%eax
    3fe8:	0f 84 9f 00 00 00    	je     408d <mp3dec_decode_frame+0x2cd>
                    *free_format_bytes = fb;
    3fee:	48 8b 84 24 f0 03 00 	mov    0x3f0(%rsp),%rax
    3ff5:	00 
            for (k = HDR_SIZE; !frame_bytes && k < MAX_FREE_FORMAT_FRAME_SIZE && i + 2*k < mp3_bytes - HDR_SIZE; k++)
    3ff6:	85 db                	test   %ebx,%ebx
                    frame_and_padding = k;
    3ff8:	45 89 f0             	mov    %r14d,%r8d
            for (k = HDR_SIZE; !frame_bytes && k < MAX_FREE_FORMAT_FRAME_SIZE && i + 2*k < mp3_bytes - HDR_SIZE; k++)
    3ffb:	0f 94 c2             	sete   %dl
                    *free_format_bytes = fb;
    3ffe:	89 98 04 18 00 00    	mov    %ebx,0x1804(%rax)
            for (k = HDR_SIZE; !frame_bytes && k < MAX_FREE_FORMAT_FRAME_SIZE && i + 2*k < mp3_bytes - HDR_SIZE; k++)
    4004:	8d 45 01             	lea    0x1(%rbp),%eax
    4007:	3d ff 08 00 00       	cmp    $0x8ff,%eax
    400c:	0f 8f 90 00 00 00    	jg     40a2 <mp3dec_decode_frame+0x2e2>
    4012:	84 d2                	test   %dl,%dl
    4014:	0f 84 88 00 00 00    	je     40a2 <mp3dec_decode_frame+0x2e2>
    401a:	49 83 c2 01          	add    $0x1,%r10
    401e:	4d 39 d5             	cmp    %r10,%r13
    4021:	0f 84 d1 fe ff ff    	je     3ef8 <mp3dec_decode_frame+0x138>
                if (hdr_compare(mp3, mp3 + k))
    4027:	4a 8d 34 17          	lea    (%rdi,%r10,1),%rsi
    402b:	44 89 d5             	mov    %r10d,%ebp
    402e:	e8 6d ed ff ff       	call   2da0 <hdr_compare>
    4033:	ba 01 00 00 00       	mov    $0x1,%edx
    4038:	89 c3                	mov    %eax,%ebx
    403a:	85 c0                	test   %eax,%eax
    403c:	74 c6                	je     4004 <mp3dec_decode_frame+0x244>
    403e:	45 89 d6             	mov    %r10d,%r14d
    return HDR_TEST_PADDING(h) ? (HDR_IS_LAYER_1(h) ? 4 : 1) : 0;
    4041:	44 89 d3             	mov    %r10d,%ebx
    4044:	f6 47 02 02          	testb  $0x2,0x2(%rdi)
    4048:	74 13                	je     405d <mp3dec_decode_frame+0x29d>
static int hdr_padding(const uint8_t *h)
    404a:	0f b6 47 01          	movzbl 0x1(%rdi),%eax
    404e:	41 8d 52 fc          	lea    -0x4(%r10),%edx
    4052:	41 8d 5a ff          	lea    -0x1(%r10),%ebx
    4056:	f7 d0                	not    %eax
    4058:	a8 06                	test   $0x6,%al
    405a:	0f 44 da             	cmove  %edx,%ebx
    return HDR_TEST_PADDING(h) ? (HDR_IS_LAYER_1(h) ? 4 : 1) : 0;
    405d:	89 d8                	mov    %ebx,%eax
    405f:	42 f6 44 17 02 02    	testb  $0x2,0x2(%rdi,%r10,1)
    4065:	74 14                	je     407b <mp3dec_decode_frame+0x2bb>
                    int nextfb = fb + hdr_padding(mp3 + k);
    4067:	42 0f b6 54 17 01    	movzbl 0x1(%rdi,%r10,1),%edx
    406d:	8d 4b 04             	lea    0x4(%rbx),%ecx
    4070:	8d 43 01             	lea    0x1(%rbx),%eax
    4073:	f7 d2                	not    %edx
    4075:	83 e2 06             	and    $0x6,%edx
    4078:	0f 44 c1             	cmove  %ecx,%eax
                    if (i + k + nextfb + HDR_SIZE > mp3_bytes || !hdr_compare(mp3, mp3 + k + nextfb))
    407b:	42 8d 54 3d 00       	lea    0x0(%rbp,%r15,1),%edx
    4080:	8d 54 10 03          	lea    0x3(%rax,%rdx,1),%edx
    4084:	41 39 d1             	cmp    %edx,%r9d
    4087:	0f 8f 4b ff ff ff    	jg     3fd8 <mp3dec_decode_frame+0x218>
            for (k = HDR_SIZE; !frame_bytes && k < MAX_FREE_FORMAT_FRAME_SIZE && i + 2*k < mp3_bytes - HDR_SIZE; k++)
    408d:	8d 45 01             	lea    0x1(%rbp),%eax
    4090:	31 db                	xor    %ebx,%ebx
    4092:	ba 01 00 00 00       	mov    $0x1,%edx
    4097:	3d ff 08 00 00       	cmp    $0x8ff,%eax
    409c:	0f 8e 70 ff ff ff    	jle    4012 <mp3dec_decode_frame+0x252>
            if ((frame_bytes && i + frame_and_padding <= mp3_bytes &&
    40a2:	48 89 fd             	mov    %rdi,%rbp
    40a5:	85 db                	test   %ebx,%ebx
    40a7:	0f 84 4e fe ff ff    	je     3efb <mp3dec_decode_frame+0x13b>
    40ad:	43 8d 0c 07          	lea    (%r15,%r8,1),%ecx
    40b1:	41 39 c9             	cmp    %ecx,%r9d
    40b4:	0f 8c 41 fe ff ff    	jl     3efb <mp3dec_decode_frame+0x13b>
        if (i + HDR_SIZE > mp3_bytes)
    40ba:	44 89 c8             	mov    %r9d,%eax
    40bd:	89 4c 24 40          	mov    %ecx,0x40(%rsp)
    for (i = 0, nmatch = 0; nmatch < MAX_FRAME_SYNC_MATCHES; nmatch++)
    40c1:	45 31 f6             	xor    %r14d,%r14d
    40c4:	45 31 ed             	xor    %r13d,%r13d
        if (i + HDR_SIZE > mp3_bytes)
    40c7:	44 89 3c 24          	mov    %r15d,(%rsp)
    40cb:	44 29 f8             	sub    %r15d,%eax
    40ce:	45 31 d2             	xor    %r10d,%r10d
    40d1:	44 89 44 24 10       	mov    %r8d,0x10(%rsp)
    40d6:	44 89 5c 24 50       	mov    %r11d,0x50(%rsp)
    40db:	44 89 4c 24 60       	mov    %r9d,0x60(%rsp)
    40e0:	4c 89 64 24 30       	mov    %r12,0x30(%rsp)
    40e5:	41 89 c4             	mov    %eax,%r12d
        i += hdr_frame_bytes(hdr + i, frame_bytes) + hdr_padding(hdr + i);
    40e8:	4e 8d 7c 15 00       	lea    0x0(%rbp,%r10,1),%r15
    40ed:	89 de                	mov    %ebx,%esi
    40ef:	4c 89 ff             	mov    %r15,%rdi
    40f2:	e8 29 ed ff ff       	call   2e20 <hdr_frame_bytes>
    return HDR_TEST_PADDING(h) ? (HDR_IS_LAYER_1(h) ? 4 : 1) : 0;
    40f7:	41 f6 47 02 02       	testb  $0x2,0x2(%r15)
    40fc:	74 13                	je     4111 <mp3dec_decode_frame+0x351>
    40fe:	41 0f b6 57 01       	movzbl 0x1(%r15),%edx
        i += hdr_frame_bytes(hdr + i, frame_bytes) + hdr_padding(hdr + i);
    4103:	8d 48 04             	lea    0x4(%rax),%ecx
    4106:	83 c0 01             	add    $0x1,%eax
    4109:	f7 d2                	not    %edx
    410b:	83 e2 06             	and    $0x6,%edx
    410e:	0f 44 c1             	cmove  %ecx,%eax
    4111:	41 01 c5             	add    %eax,%r13d
        if (i + HDR_SIZE > mp3_bytes)
    4114:	41 8d 45 03          	lea    0x3(%r13),%eax
    4118:	44 39 e0             	cmp    %r12d,%eax
    411b:	0f 8d b6 31 00 00    	jge    72d7 <mp3dec_decode_frame+0x3517>
        if (!hdr_compare(hdr, hdr + i))
    4121:	4d 63 d5             	movslq %r13d,%r10
    4124:	48 89 ef             	mov    %rbp,%rdi
    4127:	4a 8d 74 15 00       	lea    0x0(%rbp,%r10,1),%rsi
    412c:	e8 6f ec ff ff       	call   2da0 <hdr_compare>
    4131:	85 c0                	test   %eax,%eax
    4133:	0f 84 12 32 00 00    	je     734b <mp3dec_decode_frame+0x358b>
    for (i = 0, nmatch = 0; nmatch < MAX_FRAME_SYNC_MATCHES; nmatch++)
    4139:	41 83 c6 01          	add    $0x1,%r14d
    413d:	41 83 fe 0a          	cmp    $0xa,%r14d
    4141:	75 a5                	jne    40e8 <mp3dec_decode_frame+0x328>
    4143:	8b 4c 24 40          	mov    0x40(%rsp),%ecx
    4147:	44 8b 3c 24          	mov    (%rsp),%r15d
    414b:	44 8b 44 24 10       	mov    0x10(%rsp),%r8d
    4150:	4c 8b 64 24 30       	mov    0x30(%rsp),%r12
        if (!frame_size || i + frame_size > mp3_bytes)
    4155:	45 85 c0             	test   %r8d,%r8d
    4158:	0f 84 43 60 00 00    	je     a1a1 <mp3dec_decode_frame+0x63e1>
    hdr = mp3 + i;
    415e:	49 63 c7             	movslq %r15d,%rax
    4161:	49 01 c4             	add    %rax,%r12
  return __builtin___memcpy_chk (__dest, __src, __len,
    4164:	41 8b 04 24          	mov    (%r12),%eax
    4168:	48 8b 9c 24 f0 03 00 	mov    0x3f0(%rsp),%rbx
    416f:	00 
    return g_hz[HDR_GET_SAMPLE_RATE(h)] >> (int)!HDR_TEST_MPEG1(h) >> (int)!HDR_TEST_NOT_MPEG25(h);
    4170:	48 8d 35 c9 d1 00 00 	lea    0xd1c9(%rip),%rsi        # 11340 <g_hz.27>
    4177:	89 83 08 18 00 00    	mov    %eax,0x1808(%rbx)
    info->frame_bytes = i + frame_size;
    417d:	48 8b 9c 24 f8 03 00 	mov    0x3f8(%rsp),%rbx
    4184:	00 
    4185:	89 0b                	mov    %ecx,(%rbx)
    info->frame_offset = i;
    4187:	44 89 7b 04          	mov    %r15d,0x4(%rbx)
    info->channels = HDR_IS_MONO(hdr) ? 1 : 2;
    418b:	41 0f b6 44 24 03    	movzbl 0x3(%r12),%eax
    4191:	f7 d0                	not    %eax
    4193:	a8 c0                	test   $0xc0,%al
    4195:	0f 95 c0             	setne  %al
    4198:	0f b6 c0             	movzbl %al,%eax
    419b:	83 c0 01             	add    $0x1,%eax
    419e:	89 43 08             	mov    %eax,0x8(%rbx)
    return g_hz[HDR_GET_SAMPLE_RATE(h)] >> (int)!HDR_TEST_MPEG1(h) >> (int)!HDR_TEST_NOT_MPEG25(h);
    41a1:	41 0f b6 44 24 01    	movzbl 0x1(%r12),%eax
    41a7:	41 0f b6 54 24 02    	movzbl 0x2(%r12),%edx
    41ad:	89 c1                	mov    %eax,%ecx
    41af:	c0 e8 04             	shr    $0x4,%al
    41b2:	c0 ea 02             	shr    $0x2,%dl
    41b5:	c0 e9 03             	shr    $0x3,%cl
    41b8:	83 e2 03             	and    $0x3,%edx
    41bb:	83 f1 01             	xor    $0x1,%ecx
    41be:	8b 14 96             	mov    (%rsi,%rdx,4),%edx
    41c1:	83 e1 01             	and    $0x1,%ecx
    41c4:	d3 ea                	shr    %cl,%edx
    41c6:	89 c1                	mov    %eax,%ecx
    41c8:	83 f1 01             	xor    $0x1,%ecx
    41cb:	83 e1 01             	and    $0x1,%ecx
    41ce:	d3 ea                	shr    %cl,%edx
    return 2*halfrate[!!HDR_TEST_MPEG1(h)][HDR_GET_LAYER(h) - 1][HDR_GET_BITRATE(h)];
    41d0:	48 8d 0d 09 d1 00 00 	lea    0xd109(%rip),%rcx        # 112e0 <halfrate.26>
    return g_hz[HDR_GET_SAMPLE_RATE(h)] >> (int)!HDR_TEST_MPEG1(h) >> (int)!HDR_TEST_NOT_MPEG25(h);
    41d7:	89 53 0c             	mov    %edx,0xc(%rbx)
    info->layer = 4 - HDR_GET_LAYER(hdr);
    41da:	41 0f b6 44 24 01    	movzbl 0x1(%r12),%eax
    41e0:	ba 04 00 00 00       	mov    $0x4,%edx
    41e5:	d0 e8                	shr    $1,%al
    41e7:	83 e0 03             	and    $0x3,%eax
    41ea:	29 c2                	sub    %eax,%edx
    41ec:	89 53 10             	mov    %edx,0x10(%rbx)
    return 2*halfrate[!!HDR_TEST_MPEG1(h)][HDR_GET_LAYER(h) - 1][HDR_GET_BITRATE(h)];
    41ef:	41 0f b6 44 24 01    	movzbl 0x1(%r12),%eax
    info->layer = 4 - HDR_GET_LAYER(hdr);
    41f5:	89 54 24 30          	mov    %edx,0x30(%rsp)
    return 2*halfrate[!!HDR_TEST_MPEG1(h)][HDR_GET_LAYER(h) - 1][HDR_GET_BITRATE(h)];
    41f9:	41 0f b6 54 24 02    	movzbl 0x2(%r12),%edx
    41ff:	89 c6                	mov    %eax,%esi
    4201:	d0 e8                	shr    $1,%al
    4203:	40 c0 ee 03          	shr    $0x3,%sil
    4207:	83 e0 03             	and    $0x3,%eax
    420a:	c0 ea 04             	shr    $0x4,%dl
    420d:	83 e6 01             	and    $0x1,%esi
    4210:	83 e8 01             	sub    $0x1,%eax
    4213:	83 e2 0f             	and    $0xf,%edx
    4216:	48 8d 3c 76          	lea    (%rsi,%rsi,2),%rdi
    421a:	48 98                	cltq
    421c:	48 89 fe             	mov    %rdi,%rsi
    421f:	48 c1 e6 04          	shl    $0x4,%rsi
    4223:	48 29 fe             	sub    %rdi,%rsi
    4226:	48 89 c7             	mov    %rax,%rdi
    4229:	48 c1 e7 04          	shl    $0x4,%rdi
    422d:	48 29 c7             	sub    %rax,%rdi
    4230:	48 8d 04 3e          	lea    (%rsi,%rdi,1),%rax
    4234:	48 01 c8             	add    %rcx,%rax
    4237:	0f b6 04 10          	movzbl (%rax,%rdx,1),%eax
    423b:	01 c0                	add    %eax,%eax
    if (!pcm)
    423d:	48 83 bc 24 00 04 00 	cmpq   $0x0,0x400(%rsp)
    4244:	00 00 
    return 2*halfrate[!!HDR_TEST_MPEG1(h)][HDR_GET_LAYER(h) - 1][HDR_GET_BITRATE(h)];
    4246:	89 43 14             	mov    %eax,0x14(%rbx)
    if (!pcm)
    4249:	0f 84 cc 30 00 00    	je     731b <mp3dec_decode_frame+0x355b>
    if (HDR_IS_CRC(hdr))
    424f:	41 0f b6 44 24 01    	movzbl 0x1(%r12),%eax
    bs_init(bs_frame, hdr + HDR_SIZE, frame_size - HDR_SIZE);
    4255:	4d 8d 7c 24 04       	lea    0x4(%r12),%r15
    bs->limit = bytes*8;
    425a:	46 8d 34 c5 e0 ff ff 	lea    -0x20(,%r8,8),%r14d
    4261:	ff 
    bs->pos   = 0;
    4262:	31 d2                	xor    %edx,%edx
    4264:	4d 89 f8             	mov    %r15,%r8
    if (HDR_IS_CRC(hdr))
    4267:	88 04 24             	mov    %al,(%rsp)
    426a:	a8 01                	test   $0x1,%al
    426c:	0f 84 a1 2f 00 00    	je     7213 <mp3dec_decode_frame+0x3453>
    if (info->layer == 3)
    4272:	83 7c 24 30 03       	cmpl   $0x3,0x30(%rsp)
    int gr_count = HDR_IS_MONO(hdr) ? 1 : 2;
    4277:	41 0f b6 74 24 03    	movzbl 0x3(%r12),%esi
    if (info->layer == 3)
    427d:	0f 84 3c 1d 00 00    	je     5fbf <mp3dec_decode_frame+0x21ff>
    int mode = HDR_GET_STEREO_MODE(hdr);
    4283:	41 89 f0             	mov    %esi,%r8d
    4286:	41 c0 e8 06          	shr    $0x6,%r8b
    int nbands, stereo_bands = (mode == MODE_MONO) ? 0 : (mode == MODE_JOINT_STEREO) ? (HDR_GET_STEREO_MODE_EXT(hdr) << 2) + 4 : 32;
    428a:	41 80 f8 03          	cmp    $0x3,%r8b
    428e:	0f 84 8e 2f 00 00    	je     7222 <mp3dec_decode_frame+0x3462>
    4294:	41 80 f8 01          	cmp    $0x1,%r8b
    4298:	0f 84 64 31 00 00    	je     7402 <mp3dec_decode_frame+0x3642>
    if (HDR_IS_LAYER_1(hdr))
    429e:	0f b6 04 24          	movzbl (%rsp),%eax
    42a2:	83 e0 06             	and    $0x6,%eax
    42a5:	3c 06                	cmp    $0x6,%al
    42a7:	0f 84 a5 31 00 00    	je     7452 <mp3dec_decode_frame+0x3692>
    int nbands, stereo_bands = (mode == MODE_MONO) ? 0 : (mode == MODE_JOINT_STEREO) ? (HDR_GET_STEREO_MODE_EXT(hdr) << 2) + 4 : 32;
    42ad:	be 20 00 00 00       	mov    $0x20,%esi
    } else if (!HDR_TEST_MPEG1(hdr))
    42b2:	f6 04 24 08          	testb  $0x8,(%rsp)
    42b6:	0f 85 81 2f 00 00    	jne    723d <mp3dec_decode_frame+0x347d>
    sci->total_bands = (uint8_t)nbands;
    42bc:	c6 84 24 70 07 00 00 	movb   $0x1e,0x770(%rsp)
    42c3:	1e 
    42c4:	41 bc 1e 00 00 00    	mov    $0x1e,%r12d
        alloc = g_alloc_L2M2;
    42ca:	4c 8d 15 3f b9 00 00 	lea    0xb93f(%rip),%r10        # fc10 <g_alloc_L2M2.5>
        nbands = 30;
    42d1:	41 b8 1e 00 00 00    	mov    $0x1e,%r8d
    sci->total_bands = (uint8_t)nbands;
    42d7:	c7 44 24 70 3c 00 00 	movl   $0x3c,0x70(%rsp)
    42de:	00 
    sci->stereo_bands = (uint8_t)MINIMP3_MIN(stereo_bands, nbands);
    42df:	44 88 a4 24 71 07 00 	mov    %r12b,0x771(%rsp)
    42e6:	00 
    42e7:	45 89 c1             	mov    %r8d,%r9d
    42ea:	45 39 c8             	cmp    %r9d,%r8d
    42ed:	44 89 cb             	mov    %r9d,%ebx
    int i, k = 0, ba_bits = 0;
    42f0:	c7 44 24 10 00 00 00 	movl   $0x0,0x10(%rsp)
    42f7:	00 
    42f8:	48 8d ac 24 70 04 00 	lea    0x470(%rsp),%rbp
    42ff:	00 
    4300:	41 0f 4e d8          	cmovle %r8d,%ebx
    4304:	44 89 44 24 60       	mov    %r8d,0x60(%rsp)
    4309:	31 ff                	xor    %edi,%edi
    430b:	45 31 ed             	xor    %r13d,%r13d
    430e:	88 84 24 80 00 00 00 	mov    %al,0x80(%rsp)
    4315:	48 89 f8             	mov    %rdi,%rax
    4318:	89 5c 24 50          	mov    %ebx,0x50(%rsp)
    const uint8_t *ba_code_tab = g_bitalloc_code_tab;
    431c:	48 8d 1d fd b8 00 00 	lea    0xb8fd(%rip),%rbx        # fc20 <g_bitalloc_code_tab.7>
    4323:	48 89 5c 24 20       	mov    %rbx,0x20(%rsp)
    4328:	48 89 1c 24          	mov    %rbx,(%rsp)
        if (i == k)
    432c:	39 44 24 10          	cmp    %eax,0x10(%rsp)
    4330:	75 23                	jne    4355 <mp3dec_decode_frame+0x595>
            k += subband_alloc->band_count;
    4332:	41 0f b6 4a 02       	movzbl 0x2(%r10),%ecx
            ba_code_tab = g_bitalloc_code_tab + subband_alloc->tab_offset;
    4337:	48 8b 5c 24 20       	mov    0x20(%rsp),%rbx
            subband_alloc++;
    433c:	49 83 c2 03          	add    $0x3,%r10
            k += subband_alloc->band_count;
    4340:	01 4c 24 10          	add    %ecx,0x10(%rsp)
            ba_code_tab = g_bitalloc_code_tab + subband_alloc->tab_offset;
    4344:	41 0f b6 4a fd       	movzbl -0x3(%r10),%ecx
            ba_bits = subband_alloc->code_tab_width;
    4349:	45 0f b6 6a fe       	movzbl -0x2(%r10),%r13d
            ba_code_tab = g_bitalloc_code_tab + subband_alloc->tab_offset;
    434e:	48 01 cb             	add    %rcx,%rbx
    4351:	48 89 1c 24          	mov    %rbx,(%rsp)
    if ((bs->pos += n) > bs->limit)
    4355:	41 8d 5c 15 00       	lea    0x0(%r13,%rdx,1),%ebx
    435a:	48 8b 0c 24          	mov    (%rsp),%rcx
    435e:	41 39 de             	cmp    %ebx,%r14d
    4361:	0f 8c 82 00 00 00    	jl     43e9 <mp3dec_decode_frame+0x629>
    uint32_t next, cache = 0, s = bs->pos & 7;
    4367:	89 d1                	mov    %edx,%ecx
    const uint8_t *p = bs->buf + (bs->pos >> 3);
    4369:	c1 fa 03             	sar    $0x3,%edx
    next = *p++ & (255 >> s);
    436c:	41 b8 ff 00 00 00    	mov    $0xff,%r8d
    const uint8_t *p = bs->buf + (bs->pos >> 3);
    4372:	48 63 d2             	movslq %edx,%rdx
    uint32_t next, cache = 0, s = bs->pos & 7;
    4375:	83 e1 07             	and    $0x7,%ecx
    const uint8_t *p = bs->buf + (bs->pos >> 3);
    4378:	4c 01 fa             	add    %r15,%rdx
    int shl = n + s;
    437b:	42 8d 3c 29          	lea    (%rcx,%r13,1),%edi
    next = *p++ & (255 >> s);
    437f:	41 d3 f8             	sar    %cl,%r8d
    4382:	4c 8d 5a 01          	lea    0x1(%rdx),%r11
    4386:	0f b6 12             	movzbl (%rdx),%edx
    int shl = n + s;
    4389:	89 fe                	mov    %edi,%esi
    next = *p++ & (255 >> s);
    438b:	44 21 c2             	and    %r8d,%edx
    while ((shl -= 8) > 0)
    438e:	44 8d 47 f8          	lea    -0x8(%rdi),%r8d
    4392:	45 85 c0             	test   %r8d,%r8d
    4395:	0f 8e f2 30 00 00    	jle    748d <mp3dec_decode_frame+0x36cd>
    439b:	8d 4f f7             	lea    -0x9(%rdi),%ecx
    439e:	83 ef 10             	sub    $0x10,%edi
    43a1:	4c 89 de             	mov    %r11,%rsi
    43a4:	89 4c 24 40          	mov    %ecx,0x40(%rsp)
    43a8:	83 e1 f8             	and    $0xfffffff8,%ecx
    43ab:	29 cf                	sub    %ecx,%edi
    43ad:	44 89 c1             	mov    %r8d,%ecx
    43b0:	41 89 fb             	mov    %edi,%r11d
    uint32_t next, cache = 0, s = bs->pos & 7;
    43b3:	31 ff                	xor    %edi,%edi
        cache |= next << shl;
    43b5:	d3 e2                	shl    %cl,%edx
    while ((shl -= 8) > 0)
    43b7:	83 e9 08             	sub    $0x8,%ecx
    43ba:	48 83 c6 01          	add    $0x1,%rsi
        cache |= next << shl;
    43be:	09 d7                	or     %edx,%edi
        next = *p++;
    43c0:	0f b6 56 ff          	movzbl -0x1(%rsi),%edx
    while ((shl -= 8) > 0)
    43c4:	44 39 d9             	cmp    %r11d,%ecx
    43c7:	75 ec                	jne    43b5 <mp3dec_decode_frame+0x5f5>
    43c9:	8b 4c 24 40          	mov    0x40(%rsp),%ecx
    43cd:	44 89 c6             	mov    %r8d,%esi
    43d0:	83 e1 f8             	and    $0xfffffff8,%ecx
    43d3:	29 ce                	sub    %ecx,%esi
    return cache | (next >> -shl);
    43d5:	b9 08 00 00 00       	mov    $0x8,%ecx
    43da:	29 f1                	sub    %esi,%ecx
    43dc:	d3 ea                	shr    %cl,%edx
    43de:	89 d1                	mov    %edx,%ecx
        ba = ba_code_tab[get_bits(bs, ba_bits)];
    43e0:	48 8b 14 24          	mov    (%rsp),%rdx
    43e4:	09 f9                	or     %edi,%ecx
    43e6:	48 01 d1             	add    %rdx,%rcx
        sci->bitalloc[2*i] = ba;
    43e9:	0f b6 11             	movzbl (%rcx),%edx
    43ec:	48 8b 0c 24          	mov    (%rsp),%rcx
    43f0:	88 94 45 02 03 00 00 	mov    %dl,0x302(%rbp,%rax,2)
    if ((bs->pos += n) > bs->limit)
    43f7:	41 8d 54 1d 00       	lea    0x0(%r13,%rbx,1),%edx
    43fc:	41 39 d6             	cmp    %edx,%r14d
    43ff:	0f 8c 8a 00 00 00    	jl     448f <mp3dec_decode_frame+0x6cf>
    uint32_t next, cache = 0, s = bs->pos & 7;
    4405:	89 d9                	mov    %ebx,%ecx
    const uint8_t *p = bs->buf + (bs->pos >> 3);
    4407:	c1 fb 03             	sar    $0x3,%ebx
    next = *p++ & (255 >> s);
    440a:	41 b8 ff 00 00 00    	mov    $0xff,%r8d
    const uint8_t *p = bs->buf + (bs->pos >> 3);
    4410:	48 63 f3             	movslq %ebx,%rsi
    uint32_t next, cache = 0, s = bs->pos & 7;
    4413:	83 e1 07             	and    $0x7,%ecx
    const uint8_t *p = bs->buf + (bs->pos >> 3);
    4416:	4c 01 fe             	add    %r15,%rsi
    int shl = n + s;
    4419:	45 8d 5c 0d 00       	lea    0x0(%r13,%rcx,1),%r11d
    next = *p++ & (255 >> s);
    441e:	41 d3 f8             	sar    %cl,%r8d
    4421:	48 8d 5e 01          	lea    0x1(%rsi),%rbx
    4425:	0f b6 36             	movzbl (%rsi),%esi
    int shl = n + s;
    4428:	44 89 df             	mov    %r11d,%edi
    next = *p++ & (255 >> s);
    442b:	44 21 c6             	and    %r8d,%esi
    while ((shl -= 8) > 0)
    442e:	45 8d 43 f8          	lea    -0x8(%r11),%r8d
    4432:	45 85 c0             	test   %r8d,%r8d
    4435:	0f 8e 4a 30 00 00    	jle    7485 <mp3dec_decode_frame+0x36c5>
    443b:	48 89 df             	mov    %rbx,%rdi
    443e:	41 8d 5b f7          	lea    -0x9(%r11),%ebx
    4442:	41 83 eb 10          	sub    $0x10,%r11d
    4446:	89 5c 24 40          	mov    %ebx,0x40(%rsp)
    444a:	83 e3 f8             	and    $0xfffffff8,%ebx
    444d:	89 d9                	mov    %ebx,%ecx
    444f:	44 89 db             	mov    %r11d,%ebx
    uint32_t next, cache = 0, s = bs->pos & 7;
    4452:	45 31 db             	xor    %r11d,%r11d
    4455:	29 cb                	sub    %ecx,%ebx
    while ((shl -= 8) > 0)
    4457:	44 89 c1             	mov    %r8d,%ecx
        cache |= next << shl;
    445a:	d3 e6                	shl    %cl,%esi
    while ((shl -= 8) > 0)
    445c:	83 e9 08             	sub    $0x8,%ecx
    445f:	48 83 c7 01          	add    $0x1,%rdi
        cache |= next << shl;
    4463:	41 09 f3             	or     %esi,%r11d
        next = *p++;
    4466:	0f b6 77 ff          	movzbl -0x1(%rdi),%esi
    while ((shl -= 8) > 0)
    446a:	39 d9                	cmp    %ebx,%ecx
    446c:	75 ec                	jne    445a <mp3dec_decode_frame+0x69a>
    446e:	8b 4c 24 40          	mov    0x40(%rsp),%ecx
    4472:	44 89 c7             	mov    %r8d,%edi
    4475:	83 e1 f8             	and    $0xfffffff8,%ecx
    4478:	29 cf                	sub    %ecx,%edi
    return cache | (next >> -shl);
    447a:	b9 08 00 00 00       	mov    $0x8,%ecx
            ba = ba_code_tab[get_bits(bs, ba_bits)];
    447f:	48 8b 1c 24          	mov    (%rsp),%rbx
    return cache | (next >> -shl);
    4483:	29 f9                	sub    %edi,%ecx
    4485:	d3 ee                	shr    %cl,%esi
    4487:	89 f1                	mov    %esi,%ecx
            ba = ba_code_tab[get_bits(bs, ba_bits)];
    4489:	44 09 d9             	or     %r11d,%ecx
    448c:	48 01 d9             	add    %rbx,%rcx
        sci->bitalloc[2*i + 1] = sci->stereo_bands ? ba : 0;
    448f:	0f b6 09             	movzbl (%rcx),%ecx
    4492:	88 8c 45 03 03 00 00 	mov    %cl,0x303(%rbp,%rax,2)
    for (i = 0; i < sci->total_bands; i++)
    4499:	48 8d 48 01          	lea    0x1(%rax),%rcx
    449d:	39 4c 24 50          	cmp    %ecx,0x50(%rsp)
    44a1:	0f 8f 27 01 00 00    	jg     45ce <mp3dec_decode_frame+0x80e>
    44a7:	48 89 c3             	mov    %rax,%rbx
    44aa:	44 8b 44 24 60       	mov    0x60(%rsp),%r8d
    44af:	0f b6 84 24 80 00 00 	movzbl 0x80(%rsp),%eax
    44b6:	00 
    44b7:	89 de                	mov    %ebx,%esi
    44b9:	83 c6 01             	add    $0x1,%esi
    44bc:	41 39 f0             	cmp    %esi,%r8d
    44bf:	0f 8e 35 2f 00 00    	jle    73fa <mp3dec_decode_frame+0x363a>
    return cache | (next >> -shl);
    44c5:	88 44 24 40          	mov    %al,0x40(%rsp)
    44c9:	48 63 f6             	movslq %esi,%rsi
    44cc:	44 89 4c 24 50       	mov    %r9d,0x50(%rsp)
        if (i == k)
    44d1:	39 74 24 10          	cmp    %esi,0x10(%rsp)
    44d5:	75 23                	jne    44fa <mp3dec_decode_frame+0x73a>
            k += subband_alloc->band_count;
    44d7:	41 0f b6 42 02       	movzbl 0x2(%r10),%eax
            ba_code_tab = g_bitalloc_code_tab + subband_alloc->tab_offset;
    44dc:	48 8b 5c 24 20       	mov    0x20(%rsp),%rbx
            subband_alloc++;
    44e1:	49 83 c2 03          	add    $0x3,%r10
            k += subband_alloc->band_count;
    44e5:	01 44 24 10          	add    %eax,0x10(%rsp)
            ba_code_tab = g_bitalloc_code_tab + subband_alloc->tab_offset;
    44e9:	41 0f b6 42 fd       	movzbl -0x3(%r10),%eax
            ba_bits = subband_alloc->code_tab_width;
    44ee:	45 0f b6 6a fe       	movzbl -0x2(%r10),%r13d
            ba_code_tab = g_bitalloc_code_tab + subband_alloc->tab_offset;
    44f3:	48 01 d8             	add    %rbx,%rax
    44f6:	48 89 04 24          	mov    %rax,(%rsp)
    if ((bs->pos += n) > bs->limit)
    44fa:	45 8d 4c 15 00       	lea    0x0(%r13,%rdx,1),%r9d
    44ff:	48 8b 04 24          	mov    (%rsp),%rax
    4503:	45 39 ce             	cmp    %r9d,%r14d
    4506:	7c 7b                	jl     4583 <mp3dec_decode_frame+0x7c3>
    uint32_t next, cache = 0, s = bs->pos & 7;
    4508:	89 d1                	mov    %edx,%ecx
    const uint8_t *p = bs->buf + (bs->pos >> 3);
    450a:	c1 fa 03             	sar    $0x3,%edx
    next = *p++ & (255 >> s);
    450d:	b8 ff 00 00 00       	mov    $0xff,%eax
    const uint8_t *p = bs->buf + (bs->pos >> 3);
    4512:	48 63 da             	movslq %edx,%rbx
    uint32_t next, cache = 0, s = bs->pos & 7;
    4515:	83 e1 07             	and    $0x7,%ecx
    const uint8_t *p = bs->buf + (bs->pos >> 3);
    4518:	4c 01 fb             	add    %r15,%rbx
    int shl = n + s;
    451b:	41 8d 7c 0d 00       	lea    0x0(%r13,%rcx,1),%edi
    next = *p++ & (255 >> s);
    4520:	d3 f8                	sar    %cl,%eax
    4522:	0f b6 0b             	movzbl (%rbx),%ecx
    4525:	48 8d 53 01          	lea    0x1(%rbx),%rdx
    while ((shl -= 8) > 0)
    4529:	8d 5f f8             	lea    -0x8(%rdi),%ebx
    int shl = n + s;
    452c:	41 89 fb             	mov    %edi,%r11d
    next = *p++ & (255 >> s);
    452f:	21 c8                	and    %ecx,%eax
    while ((shl -= 8) > 0)
    4531:	85 db                	test   %ebx,%ebx
    4533:	0f 8e 2f 2e 00 00    	jle    7368 <mp3dec_decode_frame+0x35a8>
    4539:	8d 4f f7             	lea    -0x9(%rdi),%ecx
    453c:	83 ef 10             	sub    $0x10,%edi
    453f:	89 4c 24 60          	mov    %ecx,0x60(%rsp)
    4543:	83 e1 f8             	and    $0xfffffff8,%ecx
    4546:	29 cf                	sub    %ecx,%edi
    4548:	89 d9                	mov    %ebx,%ecx
    454a:	41 89 fb             	mov    %edi,%r11d
    uint32_t next, cache = 0, s = bs->pos & 7;
    454d:	31 ff                	xor    %edi,%edi
    454f:	90                   	nop
        cache |= next << shl;
    4550:	d3 e0                	shl    %cl,%eax
    while ((shl -= 8) > 0)
    4552:	83 e9 08             	sub    $0x8,%ecx
    4555:	48 83 c2 01          	add    $0x1,%rdx
        cache |= next << shl;
    4559:	09 c7                	or     %eax,%edi
        next = *p++;
    455b:	0f b6 42 ff          	movzbl -0x1(%rdx),%eax
    while ((shl -= 8) > 0)
    455f:	41 39 cb             	cmp    %ecx,%r11d
    4562:	75 ec                	jne    4550 <mp3dec_decode_frame+0x790>
    4564:	8b 54 24 60          	mov    0x60(%rsp),%edx
    4568:	83 e2 f8             	and    $0xfffffff8,%edx
    456b:	29 d3                	sub    %edx,%ebx
    456d:	41 89 db             	mov    %ebx,%r11d
    return cache | (next >> -shl);
    4570:	b9 08 00 00 00       	mov    $0x8,%ecx
        ba = ba_code_tab[get_bits(bs, ba_bits)];
    4575:	48 8b 1c 24          	mov    (%rsp),%rbx
    return cache | (next >> -shl);
    4579:	44 29 d9             	sub    %r11d,%ecx
    457c:	d3 e8                	shr    %cl,%eax
        ba = ba_code_tab[get_bits(bs, ba_bits)];
    457e:	09 f8                	or     %edi,%eax
    4580:	48 01 d8             	add    %rbx,%rax
    4583:	0f b6 00             	movzbl (%rax),%eax
        sci->bitalloc[2*i] = ba;
    4586:	88 84 75 02 03 00 00 	mov    %al,0x302(%rbp,%rsi,2)
        sci->bitalloc[2*i + 1] = sci->stereo_bands ? ba : 0;
    458d:	45 84 e4             	test   %r12b,%r12b
    4590:	75 44                	jne    45d6 <mp3dec_decode_frame+0x816>
    4592:	c6 84 75 03 03 00 00 	movb   $0x0,0x303(%rbp,%rsi,2)
    4599:	00 
    for (i = 0; i < sci->total_bands; i++)
    459a:	48 83 c6 01          	add    $0x1,%rsi
    459e:	41 39 f0             	cmp    %esi,%r8d
    45a1:	7e 43                	jle    45e6 <mp3dec_decode_frame+0x826>
    sci->total_bands = (uint8_t)nbands;
    45a3:	44 89 ca             	mov    %r9d,%edx
    45a6:	e9 26 ff ff ff       	jmp    44d1 <mp3dec_decode_frame+0x711>
    45ab:	44 89 c1             	mov    %r8d,%ecx
    45ae:	45 31 ff             	xor    %r15d,%r15d
    45b1:	e9 a8 fb ff ff       	jmp    415e <mp3dec_decode_frame+0x39e>
    45b6:	66 2e 0f 1f 84 00 00 	cs nopw 0x0(%rax,%rax,1)
    45bd:	00 00 00 
        ((h[1] & 0xF0) == 0xf0 || (h[1] & 0xFE) == 0xe2) &&
    45c0:	f6 c3 06             	test   $0x6,%bl
    45c3:	0f 84 52 f9 ff ff    	je     3f1b <mp3dec_decode_frame+0x15b>
    45c9:	e9 7d f9 ff ff       	jmp    3f4b <mp3dec_decode_frame+0x18b>
    45ce:	48 89 c8             	mov    %rcx,%rax
    45d1:	e9 56 fd ff ff       	jmp    432c <mp3dec_decode_frame+0x56c>
        sci->bitalloc[2*i + 1] = sci->stereo_bands ? ba : 0;
    45d6:	88 84 75 03 03 00 00 	mov    %al,0x303(%rbp,%rsi,2)
    for (i = 0; i < sci->total_bands; i++)
    45dd:	48 83 c6 01          	add    $0x1,%rsi
    45e1:	41 39 f0             	cmp    %esi,%r8d
    45e4:	7f bd                	jg     45a3 <mp3dec_decode_frame+0x7e3>
    45e6:	44 89 0c 24          	mov    %r9d,(%rsp)
    45ea:	0f b6 44 24 40       	movzbl 0x40(%rsp),%eax
    45ef:	44 8b 4c 24 50       	mov    0x50(%rsp),%r9d
    45f4:	3c 06                	cmp    $0x6,%al
    45f6:	0f 85 4d 19 00 00    	jne    5f49 <mp3dec_decode_frame+0x2189>
    45fc:	66 0f ef db          	pxor   %xmm3,%xmm3
    4600:	66 0f 6f 0d 38 d1 00 	movdqa 0xd138(%rip),%xmm1        # 11740 <g_pow43+0x320>
    4607:	00 
    4608:	8b 54 24 70          	mov    0x70(%rsp),%edx
    460c:	f3 0f 6f 84 24 72 07 	movdqu 0x772(%rsp),%xmm0
    4613:	00 00 
    4615:	66 0f 6f 15 13 d1 00 	movdqa 0xd113(%rip),%xmm2        # 11730 <g_pow43+0x310>
    461c:	00 
    461d:	66 0f 6f e1          	movdqa %xmm1,%xmm4
    4621:	c1 ea 04             	shr    $0x4,%edx
        sci->scfcod[i] = sci->bitalloc[i] ? HDR_IS_LAYER_1(hdr) ? 2 : get_bits(bs, 2) : 6;
    4624:	66 0f 74 c3          	pcmpeqb %xmm3,%xmm0
    4628:	66 0f db e0          	pand   %xmm0,%xmm4
    462c:	66 0f df c2          	pandn  %xmm2,%xmm0
    4630:	66 0f eb c4          	por    %xmm4,%xmm0
    4634:	0f 11 84 24 b2 07 00 	movups %xmm0,0x7b2(%rsp)
    463b:	00 
    for (i = 0; i < 2*sci->total_bands; i++)
    463c:	83 fa 01             	cmp    $0x1,%edx
    463f:	0f 84 5b 2e 00 00    	je     74a0 <mp3dec_decode_frame+0x36e0>
        sci->scfcod[i] = sci->bitalloc[i] ? HDR_IS_LAYER_1(hdr) ? 2 : get_bits(bs, 2) : 6;
    4645:	f3 0f 6f 84 24 82 07 	movdqu 0x782(%rsp),%xmm0
    464c:	00 00 
    464e:	66 0f 6f e1          	movdqa %xmm1,%xmm4
    4652:	66 0f 74 c3          	pcmpeqb %xmm3,%xmm0
    4656:	66 0f db e0          	pand   %xmm0,%xmm4
    465a:	66 0f df c2          	pandn  %xmm2,%xmm0
    465e:	66 0f eb c4          	por    %xmm4,%xmm0
    4662:	66 0f 6f e1          	movdqa %xmm1,%xmm4
    4666:	0f 11 84 24 c2 07 00 	movups %xmm0,0x7c2(%rsp)
    466d:	00 
    466e:	f3 0f 6f 84 24 92 07 	movdqu 0x792(%rsp),%xmm0
    4675:	00 00 
    4677:	66 0f 74 c3          	pcmpeqb %xmm3,%xmm0
    467b:	66 0f db e0          	pand   %xmm0,%xmm4
    467f:	66 0f df c2          	pandn  %xmm2,%xmm0
    4683:	66 0f eb c4          	por    %xmm4,%xmm0
    4687:	0f 11 84 24 d2 07 00 	movups %xmm0,0x7d2(%rsp)
    468e:	00 
    for (i = 0; i < 2*sci->total_bands; i++)
    468f:	83 fa 04             	cmp    $0x4,%edx
    4692:	0f 85 2d 54 00 00    	jne    9ac5 <mp3dec_decode_frame+0x5d05>
        sci->scfcod[i] = sci->bitalloc[i] ? HDR_IS_LAYER_1(hdr) ? 2 : get_bits(bs, 2) : 6;
    4698:	f3 0f 6f 84 24 a2 07 	movdqu 0x7a2(%rsp),%xmm0
    469f:	00 00 
    46a1:	66 0f 74 c3          	pcmpeqb %xmm3,%xmm0
    46a5:	66 0f db c8          	pand   %xmm0,%xmm1
    46a9:	66 0f df c2          	pandn  %xmm2,%xmm0
    46ad:	66 0f eb c1          	por    %xmm1,%xmm0
    46b1:	0f 11 84 24 e2 07 00 	movups %xmm0,0x7e2(%rsp)
    46b8:	00 
    for (i = 0; i < 2*sci->total_bands; i++)
    46b9:	44 89 44 24 10       	mov    %r8d,0x10(%rsp)
    if ((bs->pos += n) > bs->limit)
    46be:	48 89 ea             	mov    %rbp,%rdx
    for (i = 0; i < bands; i++)
    46c1:	45 31 e4             	xor    %r12d,%r12d
    next = *p++ & (255 >> s);
    46c4:	bb ff 00 00 00       	mov    $0xff,%ebx
    for (i = 0; i < bands; i++)
    46c9:	48 8d 84 24 72 07 00 	lea    0x772(%rsp),%rax
    46d0:	00 
    46d1:	44 89 4c 24 20       	mov    %r9d,0x20(%rsp)
    46d6:	48 89 84 24 10 04 00 	mov    %rax,0x410(%rsp)
    46dd:	00 
    46de:	49 89 c5             	mov    %rax,%r13
    46e1:	8b 04 24             	mov    (%rsp),%eax
    46e4:	48 89 6c 24 40       	mov    %rbp,0x40(%rsp)
    46e9:	e9 f0 01 00 00       	jmp    48de <mp3dec_decode_frame+0xb1e>
        int mask = ba ? 4 + ((19 >> scfcod[i]) & 3) : 0;
    46ee:	41 0f b6 4d 3f       	movzbl 0x3f(%r13),%ecx
    46f3:	41 b9 13 00 00 00    	mov    $0x13,%r9d
    if ((bs->pos += n) > bs->limit)
    46f9:	44 8d 50 06          	lea    0x6(%rax),%r10d
        int mask = ba ? 4 + ((19 >> scfcod[i]) & 3) : 0;
    46fd:	41 d3 f9             	sar    %cl,%r9d
    4700:	41 83 e1 03          	and    $0x3,%r9d
    4704:	41 83 c1 04          	add    $0x4,%r9d
    if ((bs->pos += n) > bs->limit)
    4708:	45 39 d6             	cmp    %r10d,%r14d
    470b:	0f 8c fa 01 00 00    	jl     490b <mp3dec_decode_frame+0xb4b>
    const uint8_t *p = bs->buf + (bs->pos >> 3);
    4711:	89 c7                	mov    %eax,%edi
    uint32_t next, cache = 0, s = bs->pos & 7;
    4713:	41 89 c3             	mov    %eax,%r11d
    next = *p++ & (255 >> s);
    4716:	89 de                	mov    %ebx,%esi
    const uint8_t *p = bs->buf + (bs->pos >> 3);
    4718:	c1 ff 03             	sar    $0x3,%edi
    uint32_t next, cache = 0, s = bs->pos & 7;
    471b:	41 83 e3 07          	and    $0x7,%r11d
    const uint8_t *p = bs->buf + (bs->pos >> 3);
    471f:	48 63 ff             	movslq %edi,%rdi
    next = *p++ & (255 >> s);
    4722:	44 89 d9             	mov    %r11d,%ecx
    const uint8_t *p = bs->buf + (bs->pos >> 3);
    4725:	4c 01 ff             	add    %r15,%rdi
    next = *p++ & (255 >> s);
    4728:	d3 fe                	sar    %cl,%esi
    472a:	0f b6 0f             	movzbl (%rdi),%ecx
    472d:	21 ce                	and    %ecx,%esi
    while ((shl -= 8) > 0)
    472f:	41 8d 4b fe          	lea    -0x2(%r11),%ecx
    4733:	85 c9                	test   %ecx,%ecx
    4735:	0f 8e 59 2d 00 00    	jle    7494 <mp3dec_decode_frame+0x36d4>
        cache |= next << shl;
    473b:	d3 e6                	shl    %cl,%esi
    473d:	41 89 f3             	mov    %esi,%r11d
        next = *p++;
    4740:	0f b6 77 01          	movzbl 0x1(%rdi),%esi
    return cache | (next >> -shl);
    4744:	bf 08 00 00 00       	mov    $0x8,%edi
                s = g_deq_L12[ba*3 - 6 + b % 3]*(1 << 21 >> b/3);
    4749:	66 0f ef c0          	pxor   %xmm0,%xmm0
    return cache | (next >> -shl);
    474d:	29 cf                	sub    %ecx,%edi
    474f:	89 f9                	mov    %edi,%ecx
    4751:	d3 ee                	shr    %cl,%esi
                s = g_deq_L12[ba*3 - 6 + b % 3]*(1 << 21 >> b/3);
    4753:	b9 ab aa aa aa       	mov    $0xaaaaaaab,%ecx
    return cache | (next >> -shl);
    4758:	89 f7                	mov    %esi,%edi
    475a:	44 09 df             	or     %r11d,%edi
                s = g_deq_L12[ba*3 - 6 + b % 3]*(1 << 21 >> b/3);
    475d:	89 fe                	mov    %edi,%esi
    475f:	48 0f af f1          	imul   %rcx,%rsi
    4763:	48 c1 ee 21          	shr    $0x21,%rsi
    4767:	44 8d 1c 76          	lea    (%rsi,%rsi,2),%r11d
    476b:	89 f1                	mov    %esi,%ecx
    476d:	44 29 df             	sub    %r11d,%edi
    4770:	89 fe                	mov    %edi,%esi
    4772:	bf 00 00 20 00       	mov    $0x200000,%edi
    4777:	d3 ff                	sar    %cl,%edi
    4779:	f3 0f 2a c7          	cvtsi2ss %edi,%xmm0
    477d:	47 8d 1c 00          	lea    (%r8,%r8,1),%r11d
    4781:	48 8d 3d 98 b3 00 00 	lea    0xb398(%rip),%rdi        # fb20 <g_deq_L12.2>
    4788:	43 8d 4c 18 fa       	lea    -0x6(%r8,%r11,1),%ecx
    478d:	01 f1                	add    %esi,%ecx
    478f:	48 63 c9             	movslq %ecx,%rcx
    4792:	f3 0f 59 04 8f       	mulss  (%rdi,%rcx,4),%xmm0
            *scf++ = s;
    4797:	f3 0f 11 02          	movss  %xmm0,(%rdx)
            if (mask & m)
    479b:	41 f6 c1 02          	test   $0x2,%r9b
    479f:	0f 84 5e 01 00 00    	je     4903 <mp3dec_decode_frame+0xb43>
    if ((bs->pos += n) > bs->limit)
    47a5:	83 c0 0c             	add    $0xc,%eax
    47a8:	41 39 c6             	cmp    %eax,%r14d
    47ab:	0f 8c b1 05 00 00    	jl     4d62 <mp3dec_decode_frame+0xfa2>
    const uint8_t *p = bs->buf + (bs->pos >> 3);
    47b1:	44 89 d7             	mov    %r10d,%edi
    uint32_t next, cache = 0, s = bs->pos & 7;
    47b4:	44 89 d5             	mov    %r10d,%ebp
    next = *p++ & (255 >> s);
    47b7:	89 de                	mov    %ebx,%esi
    const uint8_t *p = bs->buf + (bs->pos >> 3);
    47b9:	c1 ff 03             	sar    $0x3,%edi
    uint32_t next, cache = 0, s = bs->pos & 7;
    47bc:	83 e5 07             	and    $0x7,%ebp
    const uint8_t *p = bs->buf + (bs->pos >> 3);
    47bf:	48 63 ff             	movslq %edi,%rdi
    next = *p++ & (255 >> s);
    47c2:	89 e9                	mov    %ebp,%ecx
    const uint8_t *p = bs->buf + (bs->pos >> 3);
    47c4:	4c 01 ff             	add    %r15,%rdi
    next = *p++ & (255 >> s);
    47c7:	d3 fe                	sar    %cl,%esi
    47c9:	0f b6 0f             	movzbl (%rdi),%ecx
    47cc:	21 ce                	and    %ecx,%esi
    while ((shl -= 8) > 0)
    47ce:	8d 4d fe             	lea    -0x2(%rbp),%ecx
    47d1:	85 c9                	test   %ecx,%ecx
    47d3:	0f 8e a7 2b 00 00    	jle    7380 <mp3dec_decode_frame+0x35c0>
        cache |= next << shl;
    47d9:	d3 e6                	shl    %cl,%esi
    47db:	41 89 f2             	mov    %esi,%r10d
        next = *p++;
    47de:	0f b6 77 01          	movzbl 0x1(%rdi),%esi
    return cache | (next >> -shl);
    47e2:	bf 08 00 00 00       	mov    $0x8,%edi
                s = g_deq_L12[ba*3 - 6 + b % 3]*(1 << 21 >> b/3);
    47e7:	66 0f ef c0          	pxor   %xmm0,%xmm0
    return cache | (next >> -shl);
    47eb:	29 cf                	sub    %ecx,%edi
    47ed:	89 f9                	mov    %edi,%ecx
    47ef:	d3 ee                	shr    %cl,%esi
                s = g_deq_L12[ba*3 - 6 + b % 3]*(1 << 21 >> b/3);
    47f1:	b9 ab aa aa aa       	mov    $0xaaaaaaab,%ecx
    return cache | (next >> -shl);
    47f6:	89 f7                	mov    %esi,%edi
    47f8:	44 09 d7             	or     %r10d,%edi
                s = g_deq_L12[ba*3 - 6 + b % 3]*(1 << 21 >> b/3);
    47fb:	89 fe                	mov    %edi,%esi
    47fd:	48 0f af f1          	imul   %rcx,%rsi
    4801:	48 c1 ee 21          	shr    $0x21,%rsi
    4805:	44 8d 14 76          	lea    (%rsi,%rsi,2),%r10d
    4809:	89 f1                	mov    %esi,%ecx
    480b:	44 29 d7             	sub    %r10d,%edi
    480e:	89 fe                	mov    %edi,%esi
    4810:	bf 00 00 20 00       	mov    $0x200000,%edi
    4815:	d3 ff                	sar    %cl,%edi
    4817:	f3 0f 2a c7          	cvtsi2ss %edi,%xmm0
    481b:	43 8d 4c 18 fa       	lea    -0x6(%r8,%r11,1),%ecx
    4820:	48 8d 3d f9 b2 00 00 	lea    0xb2f9(%rip),%rdi        # fb20 <g_deq_L12.2>
    4827:	01 f1                	add    %esi,%ecx
    4829:	48 63 c9             	movslq %ecx,%rcx
    482c:	f3 0f 59 04 8f       	mulss  (%rdi,%rcx,4),%xmm0
            if (mask & m)
    4831:	41 83 e1 01          	and    $0x1,%r9d
            *scf++ = s;
    4835:	f3 0f 11 42 04       	movss  %xmm0,0x4(%rdx)
            if (mask & m)
    483a:	0f 84 88 00 00 00    	je     48c8 <mp3dec_decode_frame+0xb08>
    if ((bs->pos += n) > bs->limit)
    4840:	44 8d 48 06          	lea    0x6(%rax),%r9d
    4844:	45 39 ce             	cmp    %r9d,%r14d
    4847:	0f 8c 24 05 00 00    	jl     4d71 <mp3dec_decode_frame+0xfb1>
    uint32_t next, cache = 0, s = bs->pos & 7;
    484d:	89 c7                	mov    %eax,%edi
    const uint8_t *p = bs->buf + (bs->pos >> 3);
    484f:	c1 f8 03             	sar    $0x3,%eax
    next = *p++ & (255 >> s);
    4852:	41 89 da             	mov    %ebx,%r10d
    const uint8_t *p = bs->buf + (bs->pos >> 3);
    4855:	48 63 f0             	movslq %eax,%rsi
    uint32_t next, cache = 0, s = bs->pos & 7;
    4858:	83 e7 07             	and    $0x7,%edi
    const uint8_t *p = bs->buf + (bs->pos >> 3);
    485b:	4c 01 fe             	add    %r15,%rsi
    next = *p++ & (255 >> s);
    485e:	89 f9                	mov    %edi,%ecx
    4860:	0f b6 06             	movzbl (%rsi),%eax
    4863:	41 d3 fa             	sar    %cl,%r10d
    while ((shl -= 8) > 0)
    4866:	8d 4f fe             	lea    -0x2(%rdi),%ecx
    next = *p++ & (255 >> s);
    4869:	44 21 d0             	and    %r10d,%eax
    while ((shl -= 8) > 0)
    486c:	85 c9                	test   %ecx,%ecx
    486e:	0f 8e 17 2b 00 00    	jle    738b <mp3dec_decode_frame+0x35cb>
        cache |= next << shl;
    4874:	d3 e0                	shl    %cl,%eax
    4876:	89 c7                	mov    %eax,%edi
        next = *p++;
    4878:	0f b6 46 01          	movzbl 0x1(%rsi),%eax
    return cache | (next >> -shl);
    487c:	be 08 00 00 00       	mov    $0x8,%esi
                s = g_deq_L12[ba*3 - 6 + b % 3]*(1 << 21 >> b/3);
    4881:	66 0f ef c0          	pxor   %xmm0,%xmm0
    return cache | (next >> -shl);
    4885:	29 ce                	sub    %ecx,%esi
    4887:	89 f1                	mov    %esi,%ecx
    4889:	d3 e8                	shr    %cl,%eax
    488b:	09 f8                	or     %edi,%eax
                s = g_deq_L12[ba*3 - 6 + b % 3]*(1 << 21 >> b/3);
    488d:	bf ab aa aa aa       	mov    $0xaaaaaaab,%edi
    4892:	89 c6                	mov    %eax,%esi
    4894:	48 0f af f7          	imul   %rdi,%rsi
    4898:	48 c1 ee 21          	shr    $0x21,%rsi
    489c:	8d 3c 76             	lea    (%rsi,%rsi,2),%edi
    489f:	89 f1                	mov    %esi,%ecx
    48a1:	29 f8                	sub    %edi,%eax
    48a3:	89 c6                	mov    %eax,%esi
    48a5:	b8 00 00 20 00       	mov    $0x200000,%eax
    48aa:	d3 f8                	sar    %cl,%eax
    48ac:	f3 0f 2a c0          	cvtsi2ss %eax,%xmm0
    48b0:	43 8d 44 18 fa       	lea    -0x6(%r8,%r11,1),%eax
    48b5:	48 8d 3d 64 b2 00 00 	lea    0xb264(%rip),%rdi        # fb20 <g_deq_L12.2>
    48bc:	01 f0                	add    %esi,%eax
    48be:	48 98                	cltq
    48c0:	f3 0f 59 04 87       	mulss  (%rdi,%rax,4),%xmm0
    if ((bs->pos += n) > bs->limit)
    48c5:	44 89 c8             	mov    %r9d,%eax
    for (i = 0; i < bands; i++)
    48c8:	8b 7c 24 70          	mov    0x70(%rsp),%edi
    48cc:	41 83 c4 01          	add    $0x1,%r12d
            *scf++ = s;
    48d0:	48 83 c2 0c          	add    $0xc,%rdx
    48d4:	f3 0f 11 42 fc       	movss  %xmm0,-0x4(%rdx)
    for (i = 0; i < bands; i++)
    48d9:	41 39 fc             	cmp    %edi,%r12d
    48dc:	7d 3c                	jge    491a <mp3dec_decode_frame+0xb5a>
        int ba = *pba++;
    48de:	45 0f b6 45 00       	movzbl 0x0(%r13),%r8d
    48e3:	49 83 c5 01          	add    $0x1,%r13
        int mask = ba ? 4 + ((19 >> scfcod[i]) & 3) : 0;
    48e7:	45 85 c0             	test   %r8d,%r8d
    48ea:	0f 85 fe fd ff ff    	jne    46ee <mp3dec_decode_frame+0x92e>
            *scf++ = s;
    48f0:	c7 02 00 00 00 00    	movl   $0x0,(%rdx)
        float s = 0;
    48f6:	66 0f ef c0          	pxor   %xmm0,%xmm0
            *scf++ = s;
    48fa:	c7 42 04 00 00 00 00 	movl   $0x0,0x4(%rdx)
            if (mask & m)
    4901:	eb c5                	jmp    48c8 <mp3dec_decode_frame+0xb08>
    4903:	44 89 d0             	mov    %r10d,%eax
    4906:	e9 26 ff ff ff       	jmp    4831 <mp3dec_decode_frame+0xa71>
    if ((bs->pos += n) > bs->limit)
    490b:	f3 0f 10 05 69 a7 00 	movss  0xa769(%rip),%xmm0        # f07c <_IO_stdin_used+0x7c>
    4912:	00 
    4913:	31 f6                	xor    %esi,%esi
    4915:	e9 63 fe ff ff       	jmp    477d <mp3dec_decode_frame+0x9bd>
    for (i = sci->stereo_bands; i < sci->total_bands; i++)
    491a:	44 8b 44 24 10       	mov    0x10(%rsp),%r8d
    491f:	44 8b 4c 24 20       	mov    0x20(%rsp),%r9d
    4924:	89 04 24             	mov    %eax,(%rsp)
    4927:	48 8b 6c 24 40       	mov    0x40(%rsp),%rbp
    492c:	45 39 c1             	cmp    %r8d,%r9d
    492f:	7d 48                	jge    4979 <mp3dec_decode_frame+0xbb9>
    4931:	44 89 c2             	mov    %r8d,%edx
    4934:	49 63 c9             	movslq %r9d,%rcx
    4937:	44 29 ca             	sub    %r9d,%edx
    493a:	48 8d 44 4d 00       	lea    0x0(%rbp,%rcx,2),%rax
    493f:	48 01 ca             	add    %rcx,%rdx
    4942:	48 8d 54 55 00       	lea    0x0(%rbp,%rdx,2),%rdx
    4947:	48 89 d1             	mov    %rdx,%rcx
    494a:	48 29 c1             	sub    %rax,%rcx
    494d:	83 e1 02             	and    $0x2,%ecx
    4950:	74 10                	je     4962 <mp3dec_decode_frame+0xba2>
        sci->bitalloc[2*i + 1] = 0;
    4952:	c6 80 03 03 00 00 00 	movb   $0x0,0x303(%rax)
    for (i = sci->stereo_bands; i < sci->total_bands; i++)
    4959:	48 83 c0 02          	add    $0x2,%rax
    495d:	48 39 c2             	cmp    %rax,%rdx
    4960:	74 17                	je     4979 <mp3dec_decode_frame+0xbb9>
        sci->bitalloc[2*i + 1] = 0;
    4962:	c6 80 03 03 00 00 00 	movb   $0x0,0x303(%rax)
    for (i = sci->stereo_bands; i < sci->total_bands; i++)
    4969:	48 83 c0 04          	add    $0x4,%rax
        sci->bitalloc[2*i + 1] = 0;
    496d:	c6 80 01 03 00 00 00 	movb   $0x0,0x301(%rax)
    for (i = sci->stereo_bands; i < sci->total_bands; i++)
    4974:	48 39 c2             	cmp    %rax,%rdx
    4977:	75 e9                	jne    4962 <mp3dec_decode_frame+0xba2>
  return __builtin___memset_chk (__dest, __ch, __len,
    4979:	48 8d bc 24 90 13 00 	lea    0x1390(%rsp),%rdi
    4980:	00 
    4981:	31 c0                	xor    %eax,%eax
    4983:	8b 1c 24             	mov    (%rsp),%ebx
    4986:	45 89 f4             	mov    %r14d,%r12d
    4989:	b9 40 02 00 00       	mov    $0x240,%ecx
    498e:	48 89 fa             	mov    %rdi,%rdx
    4991:	4d 89 fe             	mov    %r15,%r14
    4994:	45 89 cd             	mov    %r9d,%r13d
    4997:	f3 48 ab             	rep stos %rax,%es:(%rdi)
        for (i = 0, igr = 0; igr < 3; igr++)
    499a:	48 8d 84 24 7c 04 00 	lea    0x47c(%rsp),%rax
    49a1:	00 
    49a2:	48 89 ac 24 08 04 00 	mov    %rbp,0x408(%rsp)
    49a9:	00 
    49aa:	31 ed                	xor    %ebp,%ebp
    49ac:	48 89 84 24 40 04 00 	mov    %rax,0x440(%rsp)
    49b3:	00 
    49b4:	48 8d 84 24 00 08 00 	lea    0x800(%rsp),%rax
    49bb:	00 
    49bc:	48 89 84 24 18 04 00 	mov    %rax,0x418(%rsp)
    49c3:	00 
    49c4:	44 89 84 24 48 04 00 	mov    %r8d,0x448(%rsp)
    49cb:	00 
    49cc:	49 89 d0             	mov    %rdx,%r8
            if (12 == (i += L12_dequantize_granule(scratch.grbuf[0] + i, bs_frame, sci, info->layer | 1)))
    49cf:	8b 44 24 30          	mov    0x30(%rsp),%eax
    49d3:	48 8b 94 24 18 04 00 	mov    0x418(%rsp),%rdx
    49da:	00 
    return cache | (next >> -shl);
    49db:	4c 89 74 24 60       	mov    %r14,0x60(%rsp)
            if (12 == (i += L12_dequantize_granule(scratch.grbuf[0] + i, bs_frame, sci, info->layer | 1)))
    49e0:	bf 04 00 00 00       	mov    $0x4,%edi
    return cache | (next >> -shl);
    49e5:	89 ac 24 c0 00 00 00 	mov    %ebp,0xc0(%rsp)
    int i, j, k, choff = 576;
    49ec:	41 bf 40 02 00 00    	mov    $0x240,%r15d
            if (12 == (i += L12_dequantize_granule(scratch.grbuf[0] + i, bs_frame, sci, info->layer | 1)))
    49f2:	83 c8 01             	or     $0x1,%eax
    return cache | (next >> -shl);
    49f5:	4c 89 84 24 e0 00 00 	mov    %r8,0xe0(%rsp)
    49fc:	00 
            if (12 == (i += L12_dequantize_granule(scratch.grbuf[0] + i, bs_frame, sci, info->layer | 1)))
    49fd:	89 84 24 a0 00 00 00 	mov    %eax,0xa0(%rsp)
    for (j = 0; j < 4; j++)
    4a04:	48 98                	cltq
    4a06:	48 c1 e0 02          	shl    $0x2,%rax
    return cache | (next >> -shl);
    4a0a:	89 bc 24 b0 00 00 00 	mov    %edi,0xb0(%rsp)
    4a11:	48 89 44 24 50       	mov    %rax,0x50(%rsp)
            if (12 == (i += L12_dequantize_granule(scratch.grbuf[0] + i, bs_frame, sci, info->layer | 1)))
    4a16:	48 63 c5             	movslq %ebp,%rax
    4a19:	48 8d b4 82 90 0b 00 	lea    0xb90(%rdx,%rax,4),%rsi
    4a20:	00 
    return cache | (next >> -shl);
    4a21:	44 89 ac 24 d0 00 00 	mov    %r13d,0xd0(%rsp)
    4a28:	00 
    4a29:	45 89 e5             	mov    %r12d,%r13d
    4a2c:	48 89 f7             	mov    %rsi,%rdi
    4a2f:	89 de                	mov    %ebx,%esi
    if ((bs->pos += n) > bs->limit)
    4a31:	8b 84 24 a0 00 00 00 	mov    0xa0(%rsp),%eax
        float *dst = grbuf + group_size*j;
    4a38:	45 31 d2             	xor    %r10d,%r10d
    4a3b:	49 89 fb             	mov    %rdi,%r11
            choff = 18 - choff;
    4a3e:	45 89 ec             	mov    %r13d,%r12d
    4a41:	48 89 bc 24 90 00 00 	mov    %rdi,0x90(%rsp)
    4a48:	00 
    4a49:	48 8b ac 24 10 04 00 	mov    0x410(%rsp),%rbp
    4a50:	00 
    if ((bs->pos += n) > bs->limit)
    4a51:	8d 58 ff             	lea    -0x1(%rax),%ebx
            choff = 18 - choff;
    4a54:	4c 89 14 24          	mov    %r10,(%rsp)
    4a58:	41 89 c2             	mov    %eax,%r10d
    if ((bs->pos += n) > bs->limit)
    4a5b:	89 9c 24 80 00 00 00 	mov    %ebx,0x80(%rsp)
            choff = 18 - choff;
    4a62:	89 f3                	mov    %esi,%ebx
    4a64:	0f 1f 40 00          	nopl   0x0(%rax)
            int ba = sci->bitalloc[i];
    4a68:	48 8b 04 24          	mov    (%rsp),%rax
    4a6c:	44 0f b6 4c 05 00    	movzbl 0x0(%rbp,%rax,1),%r9d
            if (ba != 0)
    4a72:	45 85 c9             	test   %r9d,%r9d
    4a75:	0f 84 06 01 00 00    	je     4b81 <mp3dec_decode_frame+0xdc1>
                if (ba < 17)
    4a7b:	41 83 f9 10          	cmp    $0x10,%r9d
    4a7f:	0f 8f b8 01 00 00    	jg     4c3d <mp3dec_decode_frame+0xe7d>
                    int half = (1 << (ba - 1)) - 1;
    4a85:	41 8d 49 ff          	lea    -0x1(%r9),%ecx
    4a89:	41 bd 01 00 00 00    	mov    $0x1,%r13d
    4a8f:	41 d3 e5             	shl    %cl,%r13d
    4a92:	41 83 ed 01          	sub    $0x1,%r13d
                    for (k = 0; k < group_size; k++)
    4a96:	45 85 d2             	test   %r10d,%r10d
    4a99:	0f 8e e2 00 00 00    	jle    4b81 <mp3dec_decode_frame+0xdc1>
    4a9f:	48 8b 44 24 50       	mov    0x50(%rsp),%rax
    int shl = n + s;
    4aa4:	44 89 54 24 10       	mov    %r10d,0x10(%rsp)
    4aa9:	89 df                	mov    %ebx,%edi
    4aab:	4d 89 d8             	mov    %r11,%r8
    4aae:	4c 89 5c 24 20       	mov    %r11,0x20(%rsp)
    4ab3:	44 89 7c 24 30       	mov    %r15d,0x30(%rsp)
    4ab8:	4e 8d 34 18          	lea    (%rax,%r11,1),%r14
    4abc:	89 5c 24 40          	mov    %ebx,0x40(%rsp)
    4ac0:	48 8b 5c 24 60       	mov    0x60(%rsp),%rbx
    4ac5:	0f 1f 00             	nopl   (%rax)
    if ((bs->pos += n) > bs->limit)
    4ac8:	89 fe                	mov    %edi,%esi
    4aca:	44 01 cf             	add    %r9d,%edi
    4acd:	31 c0                	xor    %eax,%eax
    4acf:	41 39 fc             	cmp    %edi,%r12d
    4ad2:	7c 69                	jl     4b3d <mp3dec_decode_frame+0xd7d>
    uint32_t next, cache = 0, s = bs->pos & 7;
    4ad4:	89 f1                	mov    %esi,%ecx
    const uint8_t *p = bs->buf + (bs->pos >> 3);
    4ad6:	c1 fe 03             	sar    $0x3,%esi
    next = *p++ & (255 >> s);
    4ad9:	41 ba ff 00 00 00    	mov    $0xff,%r10d
    const uint8_t *p = bs->buf + (bs->pos >> 3);
    4adf:	48 63 f6             	movslq %esi,%rsi
    uint32_t next, cache = 0, s = bs->pos & 7;
    4ae2:	83 e1 07             	and    $0x7,%ecx
    const uint8_t *p = bs->buf + (bs->pos >> 3);
    4ae5:	48 01 de             	add    %rbx,%rsi
    int shl = n + s;
    4ae8:	42 8d 14 09          	lea    (%rcx,%r9,1),%edx
    next = *p++ & (255 >> s);
    4aec:	41 d3 fa             	sar    %cl,%r10d
    4aef:	0f b6 06             	movzbl (%rsi),%eax
    int shl = n + s;
    4af2:	41 89 d3             	mov    %edx,%r11d
    next = *p++ & (255 >> s);
    4af5:	44 21 d0             	and    %r10d,%eax
    while ((shl -= 8) > 0)
    4af8:	44 8d 52 f8          	lea    -0x8(%rdx),%r10d
    4afc:	45 85 d2             	test   %r10d,%r10d
    4aff:	0f 8e 30 01 00 00    	jle    4c35 <mp3dec_decode_frame+0xe75>
        cache |= next << shl;
    4b05:	44 89 d1             	mov    %r10d,%ecx
    4b08:	d3 e0                	shl    %cl,%eax
    while ((shl -= 8) > 0)
    4b0a:	8d 4a f0             	lea    -0x10(%rdx),%ecx
        cache |= next << shl;
    4b0d:	41 89 c7             	mov    %eax,%r15d
        next = *p++;
    4b10:	0f b6 46 01          	movzbl 0x1(%rsi),%eax
    while ((shl -= 8) > 0)
    4b14:	85 c9                	test   %ecx,%ecx
    4b16:	7e 09                	jle    4b21 <mp3dec_decode_frame+0xd61>
        cache |= next << shl;
    4b18:	d3 e0                	shl    %cl,%eax
    4b1a:	41 09 c7             	or     %eax,%r15d
        next = *p++;
    4b1d:	0f b6 46 02          	movzbl 0x2(%rsi),%eax
    while ((shl -= 8) > 0)
    4b21:	83 ea 09             	sub    $0x9,%edx
    4b24:	c1 ea 03             	shr    $0x3,%edx
    4b27:	f7 da                	neg    %edx
    4b29:	83 e2 f8             	and    $0xfffffff8,%edx
    4b2c:	46 8d 1c 12          	lea    (%rdx,%r10,1),%r11d
    return cache | (next >> -shl);
    4b30:	b9 08 00 00 00       	mov    $0x8,%ecx
    4b35:	44 29 d9             	sub    %r11d,%ecx
    4b38:	d3 e8                	shr    %cl,%eax
    4b3a:	44 09 f8             	or     %r15d,%eax
                        dst[k] = (float)((int)get_bits(bs, ba) - half);
    4b3d:	44 29 e8             	sub    %r13d,%eax
    4b40:	66 0f ef c0          	pxor   %xmm0,%xmm0
                    for (k = 0; k < group_size; k++)
    4b44:	49 83 c0 04          	add    $0x4,%r8
                        dst[k] = (float)((int)get_bits(bs, ba) - half);
    4b48:	f3 0f 2a c0          	cvtsi2ss %eax,%xmm0
    4b4c:	f3 41 0f 11 40 fc    	movss  %xmm0,-0x4(%r8)
                    for (k = 0; k < group_size; k++)
    4b52:	4d 39 c6             	cmp    %r8,%r14
    4b55:	0f 85 6d ff ff ff    	jne    4ac8 <mp3dec_decode_frame+0xd08>
    4b5b:	8b 5c 24 40          	mov    0x40(%rsp),%ebx
    4b5f:	44 8b 54 24 10       	mov    0x10(%rsp),%r10d
    4b64:	4c 8b 5c 24 20       	mov    0x20(%rsp),%r11
    4b69:	44 8b 7c 24 30       	mov    0x30(%rsp),%r15d
    4b6e:	41 8d 04 19          	lea    (%r9,%rbx,1),%eax
    if ((bs->pos += n) > bs->limit)
    4b72:	8b 9c 24 80 00 00 00 	mov    0x80(%rsp),%ebx
    4b79:	44 0f af cb          	imul   %ebx,%r9d
    4b7d:	41 8d 1c 01          	lea    (%r9,%rax,1),%ebx
            dst += choff;
    4b81:	49 63 c7             	movslq %r15d,%rax
        for (i = 0; i < 2*sci->total_bands; i++)
    4b84:	48 83 04 24 01       	addq   $0x1,(%rsp)
            dst += choff;
    4b89:	4d 8d 1c 83          	lea    (%r11,%rax,4),%r11
            choff = 18 - choff;
    4b8d:	b8 12 00 00 00       	mov    $0x12,%eax
    4b92:	44 29 f8             	sub    %r15d,%eax
    4b95:	41 89 c7             	mov    %eax,%r15d
        for (i = 0; i < 2*sci->total_bands; i++)
    4b98:	48 8b 04 24          	mov    (%rsp),%rax
    4b9c:	39 44 24 70          	cmp    %eax,0x70(%rsp)
    4ba0:	0f 8f c2 fe ff ff    	jg     4a68 <mp3dec_decode_frame+0xca8>
    for (j = 0; j < 4; j++)
    4ba6:	48 8b bc 24 90 00 00 	mov    0x90(%rsp),%rdi
    4bad:	00 
    4bae:	48 8b 44 24 50       	mov    0x50(%rsp),%rax
    4bb3:	45 89 e5             	mov    %r12d,%r13d
    4bb6:	89 de                	mov    %ebx,%esi
    4bb8:	48 01 c7             	add    %rax,%rdi
    4bbb:	83 ac 24 b0 00 00 00 	subl   $0x1,0xb0(%rsp)
    4bc2:	01 
    4bc3:	0f 85 68 fe ff ff    	jne    4a31 <mp3dec_decode_frame+0xc71>
            if (12 == (i += L12_dequantize_granule(scratch.grbuf[0] + i, bs_frame, sci, info->layer | 1)))
    4bc9:	8b ac 24 c0 00 00 00 	mov    0xc0(%rsp),%ebp
    4bd0:	8b 84 24 a0 00 00 00 	mov    0xa0(%rsp),%eax
    4bd7:	4c 8b 74 24 60       	mov    0x60(%rsp),%r14
    4bdc:	44 8b ac 24 d0 00 00 	mov    0xd0(%rsp),%r13d
    4be3:	00 
    4be4:	8d 6c 85 00          	lea    0x0(%rbp,%rax,4),%ebp
    4be8:	4c 8b 84 24 e0 00 00 	mov    0xe0(%rsp),%r8
    4bef:	00 
    4bf0:	83 fd 0c             	cmp    $0xc,%ebp
    4bf3:	0f 84 9f 01 00 00    	je     4d98 <mp3dec_decode_frame+0xfd8>
            if (bs_frame->pos > bs_frame->limit)
    4bf9:	41 39 dc             	cmp    %ebx,%r12d
    4bfc:	0f 8c 82 01 00 00    	jl     4d84 <mp3dec_decode_frame+0xfc4>
        for (i = 0, igr = 0; igr < 3; igr++)
    4c02:	48 83 84 24 08 04 00 	addq   $0x4,0x408(%rsp)
    4c09:	00 04 
    4c0b:	48 8b 84 24 08 04 00 	mov    0x408(%rsp),%rax
    4c12:	00 
    4c13:	48 39 84 24 40 04 00 	cmp    %rax,0x440(%rsp)
    4c1a:	00 
    4c1b:	0f 84 00 01 00 00    	je     4d21 <mp3dec_decode_frame+0xf61>
            if (12 == (i += L12_dequantize_granule(scratch.grbuf[0] + i, bs_frame, sci, info->layer | 1)))
    4c21:	48 8b 84 24 f8 03 00 	mov    0x3f8(%rsp),%rax
    4c28:	00 
    4c29:	8b 40 10             	mov    0x10(%rax),%eax
    4c2c:	89 44 24 30          	mov    %eax,0x30(%rsp)
    4c30:	e9 9a fd ff ff       	jmp    49cf <mp3dec_decode_frame+0xc0f>
    uint32_t next, cache = 0, s = bs->pos & 7;
    4c35:	45 31 ff             	xor    %r15d,%r15d
    4c38:	e9 f3 fe ff ff       	jmp    4b30 <mp3dec_decode_frame+0xd70>
                    unsigned mod = (2 << (ba - 17)) + 1;    /* 3, 5, 9 */
    4c3d:	41 8d 49 ef          	lea    -0x11(%r9),%ecx
    4c41:	b8 02 00 00 00       	mov    $0x2,%eax
    4c46:	d3 e0                	shl    %cl,%eax
    4c48:	8d 70 01             	lea    0x1(%rax),%esi
                    unsigned code = get_bits(bs, mod + 2 - (mod >> 3));  /* 5, 7, 10 */
    4c4b:	83 c0 03             	add    $0x3,%eax
    4c4e:	89 f1                	mov    %esi,%ecx
    4c50:	c1 e9 03             	shr    $0x3,%ecx
    4c53:	29 c8                	sub    %ecx,%eax
    if ((bs->pos += n) > bs->limit)
    4c55:	44 8d 2c 18          	lea    (%rax,%rbx,1),%r13d
                    unsigned code = get_bits(bs, mod + 2 - (mod >> 3));  /* 5, 7, 10 */
    4c59:	89 c2                	mov    %eax,%edx
        return 0;
    4c5b:	31 c0                	xor    %eax,%eax
    if ((bs->pos += n) > bs->limit)
    4c5d:	45 39 ec             	cmp    %r13d,%r12d
    4c60:	7c 78                	jl     4cda <mp3dec_decode_frame+0xf1a>
    uint32_t next, cache = 0, s = bs->pos & 7;
    4c62:	89 d9                	mov    %ebx,%ecx
    const uint8_t *p = bs->buf + (bs->pos >> 3);
    4c64:	c1 fb 03             	sar    $0x3,%ebx
    uint32_t next, cache = 0, s = bs->pos & 7;
    4c67:	83 e1 07             	and    $0x7,%ecx
    int shl = n + s;
    4c6a:	8d 04 0a             	lea    (%rdx,%rcx,1),%eax
    const uint8_t *p = bs->buf + (bs->pos >> 3);
    4c6d:	48 63 d3             	movslq %ebx,%rdx
    4c70:	48 8b 5c 24 60       	mov    0x60(%rsp),%rbx
    int shl = n + s;
    4c75:	41 89 c0             	mov    %eax,%r8d
    const uint8_t *p = bs->buf + (bs->pos >> 3);
    4c78:	48 01 da             	add    %rbx,%rdx
    next = *p++ & (255 >> s);
    4c7b:	bb ff 00 00 00       	mov    $0xff,%ebx
    4c80:	48 8d 7a 01          	lea    0x1(%rdx),%rdi
    4c84:	0f b6 12             	movzbl (%rdx),%edx
    4c87:	d3 fb                	sar    %cl,%ebx
    4c89:	21 da                	and    %ebx,%edx
    while ((shl -= 8) > 0)
    4c8b:	8d 58 f8             	lea    -0x8(%rax),%ebx
    4c8e:	85 db                	test   %ebx,%ebx
    4c90:	0f 8e 87 00 00 00    	jle    4d1d <mp3dec_decode_frame+0xf5d>
    4c96:	44 8d 48 f7          	lea    -0x9(%rax),%r9d
    4c9a:	44 8d 40 f0          	lea    -0x10(%rax),%r8d
    uint32_t next, cache = 0, s = bs->pos & 7;
    4c9e:	31 c0                	xor    %eax,%eax
    4ca0:	44 89 c9             	mov    %r9d,%ecx
    4ca3:	83 e1 f8             	and    $0xfffffff8,%ecx
    4ca6:	41 29 c8             	sub    %ecx,%r8d
    while ((shl -= 8) > 0)
    4ca9:	89 d9                	mov    %ebx,%ecx
    4cab:	0f 1f 44 00 00       	nopl   0x0(%rax,%rax,1)
        cache |= next << shl;
    4cb0:	d3 e2                	shl    %cl,%edx
    while ((shl -= 8) > 0)
    4cb2:	83 e9 08             	sub    $0x8,%ecx
    4cb5:	48 83 c7 01          	add    $0x1,%rdi
        cache |= next << shl;
    4cb9:	09 d0                	or     %edx,%eax
        next = *p++;
    4cbb:	0f b6 57 ff          	movzbl -0x1(%rdi),%edx
    while ((shl -= 8) > 0)
    4cbf:	44 39 c1             	cmp    %r8d,%ecx
    4cc2:	75 ec                	jne    4cb0 <mp3dec_decode_frame+0xef0>
    4cc4:	41 83 e1 f8          	and    $0xfffffff8,%r9d
    4cc8:	44 29 cb             	sub    %r9d,%ebx
    4ccb:	41 89 d8             	mov    %ebx,%r8d
    return cache | (next >> -shl);
    4cce:	b9 08 00 00 00       	mov    $0x8,%ecx
    4cd3:	44 29 c1             	sub    %r8d,%ecx
    4cd6:	d3 ea                	shr    %cl,%edx
    4cd8:	09 d0                	or     %edx,%eax
                    for (k = 0; k < group_size; k++, code /= mod)
    4cda:	48 8b 5c 24 50       	mov    0x50(%rsp),%rbx
                        dst[k] = (float)((int)(code % mod - mod/2));
    4cdf:	41 89 f0             	mov    %esi,%r8d
    4ce2:	4c 89 d9             	mov    %r11,%rcx
    4ce5:	41 d1 e8             	shr    $1,%r8d
    4ce8:	4a 8d 3c 1b          	lea    (%rbx,%r11,1),%rdi
                    for (k = 0; k < group_size; k++, code /= mod)
    4cec:	45 85 d2             	test   %r10d,%r10d
    4cef:	7e 24                	jle    4d15 <mp3dec_decode_frame+0xf55>
    4cf1:	0f 1f 80 00 00 00 00 	nopl   0x0(%rax)
                        dst[k] = (float)((int)(code % mod - mod/2));
    4cf8:	31 d2                	xor    %edx,%edx
    4cfa:	66 0f ef c0          	pxor   %xmm0,%xmm0
                    for (k = 0; k < group_size; k++, code /= mod)
    4cfe:	48 83 c1 04          	add    $0x4,%rcx
    4d02:	f7 f6                	div    %esi
                        dst[k] = (float)((int)(code % mod - mod/2));
    4d04:	44 29 c2             	sub    %r8d,%edx
    4d07:	f3 0f 2a c2          	cvtsi2ss %edx,%xmm0
    4d0b:	f3 0f 11 41 fc       	movss  %xmm0,-0x4(%rcx)
                    for (k = 0; k < group_size; k++, code /= mod)
    4d10:	48 39 cf             	cmp    %rcx,%rdi
    4d13:	75 e3                	jne    4cf8 <mp3dec_decode_frame+0xf38>
    if ((bs->pos += n) > bs->limit)
    4d15:	44 89 eb             	mov    %r13d,%ebx
    4d18:	e9 64 fe ff ff       	jmp    4b81 <mp3dec_decode_frame+0xdc1>
    uint32_t next, cache = 0, s = bs->pos & 7;
    4d1d:	31 c0                	xor    %eax,%eax
    4d1f:	eb ad                	jmp    4cce <mp3dec_decode_frame+0xf0e>
    4d21:	41 be 01 00 00 00    	mov    $0x1,%r14d
    return HDR_IS_LAYER_1(h) ? 384 : (1152 >> (int)HDR_IS_FRAME_576(h));
    4d27:	48 8b 84 24 f0 03 00 	mov    0x3f0(%rsp),%rax
    4d2e:	00 
    4d2f:	0f b6 90 09 18 00 00 	movzbl 0x1809(%rax),%edx
    4d36:	b8 80 01 00 00       	mov    $0x180,%eax
    4d3b:	89 d1                	mov    %edx,%ecx
    4d3d:	f7 d1                	not    %ecx
    4d3f:	83 e1 06             	and    $0x6,%ecx
    4d42:	74 13                	je     4d57 <mp3dec_decode_frame+0xf97>
    4d44:	83 e2 0e             	and    $0xe,%edx
    4d47:	b8 80 04 00 00       	mov    $0x480,%eax
    4d4c:	80 fa 02             	cmp    $0x2,%dl
    4d4f:	ba 40 02 00 00       	mov    $0x240,%edx
    4d54:	0f 44 c2             	cmove  %edx,%eax
    return success*hdr_frame_samples(dec->header);
    4d57:	41 f7 de             	neg    %r14d
    4d5a:	44 21 f0             	and    %r14d,%eax
    4d5d:	e9 fd f0 ff ff       	jmp    3e5f <mp3dec_decode_frame+0x9f>
    if ((bs->pos += n) > bs->limit)
    4d62:	f3 0f 10 05 12 a3 00 	movss  0xa312(%rip),%xmm0        # f07c <_IO_stdin_used+0x7c>
    4d69:	00 
    4d6a:	31 f6                	xor    %esi,%esi
    4d6c:	e9 aa fa ff ff       	jmp    481b <mp3dec_decode_frame+0xa5b>
    4d71:	f3 0f 10 05 03 a3 00 	movss  0xa303(%rip),%xmm0        # f07c <_IO_stdin_used+0x7c>
    4d78:	00 
    4d79:	31 f6                	xor    %esi,%esi
    4d7b:	e9 30 fb ff ff       	jmp    48b0 <mp3dec_decode_frame+0xaf0>
            gr->block_type = (uint8_t)get_bits(bs, 2);
    4d80:	c6 42 0f 00          	movb   $0x0,0xf(%rdx)
    dec->header[0] = 0;
    4d84:	48 8b 84 24 f0 03 00 	mov    0x3f0(%rsp),%rax
    4d8b:	00 
    4d8c:	c6 80 08 18 00 00 00 	movb   $0x0,0x1808(%rax)
            return 0;
    4d93:	e9 c5 f0 ff ff       	jmp    3e5d <mp3dec_decode_frame+0x9d>
    memcpy(dst + 576 + sci->stereo_bands*18, dst + sci->stereo_bands*18, (sci->total_bands - sci->stereo_bands)*18*sizeof(float));
    4d98:	44 8b bc 24 48 04 00 	mov    0x448(%rsp),%r15d
    4d9f:	00 
    4da0:	43 8d 44 ed 00       	lea    0x0(%r13,%r13,8),%eax
  return __builtin___memcpy_chk (__dest, __src, __len,
    4da5:	b9 f0 33 00 00       	mov    $0x33f0,%ecx
                L12_apply_scf_384(sci, sci->scf + igr, scratch.grbuf[0]);
    4daa:	48 8b ac 24 08 04 00 	mov    0x408(%rsp),%rbp
    4db1:	00 
    memcpy(dst + 576 + sci->stereo_bands*18, dst + sci->stereo_bands*18, (sci->total_bands - sci->stereo_bands)*18*sizeof(float));
    4db2:	01 c0                	add    %eax,%eax
    4db4:	44 89 fa             	mov    %r15d,%edx
    4db7:	48 98                	cltq
    4db9:	44 29 ea             	sub    %r13d,%edx
    4dbc:	48 c1 e0 02          	shl    $0x2,%rax
    4dc0:	8d 14 d2             	lea    (%rdx,%rdx,8),%edx
    4dc3:	48 8d b8 00 09 00 00 	lea    0x900(%rax),%rdi
    4dca:	01 d2                	add    %edx,%edx
    4dcc:	48 29 f9             	sub    %rdi,%rcx
    4dcf:	49 8d 34 00          	lea    (%r8,%rax,1),%rsi
    4dd3:	4c 01 c7             	add    %r8,%rdi
    4dd6:	48 63 d2             	movslq %edx,%rdx
    4dd9:	48 c1 e2 02          	shl    $0x2,%rdx
    4ddd:	e8 de d6 ff ff       	call   24c0 <__memcpy_chk@plt>
    for (i = 0; i < sci->total_bands; i++, dst += 18, scf += 6)
    4de2:	48 8b 94 24 08 04 00 	mov    0x408(%rsp),%rdx
    4de9:	00 
    4dea:	49 63 c7             	movslq %r15d,%rax
    4ded:	4c 8d 84 24 90 13 00 	lea    0x1390(%rsp),%r8
    4df4:	00 
    4df5:	48 8d 04 40          	lea    (%rax,%rax,2),%rax
    4df9:	48 8d 14 c2          	lea    (%rdx,%rax,8),%rdx
    4dfd:	4c 89 c0             	mov    %r8,%rax
            dst[k + 0]   *= scf[0];
    4e00:	f3 0f 10 45 00       	movss  0x0(%rbp),%xmm0
    4e05:	f3 0f 10 08          	movss  (%rax),%xmm1
    for (i = 0; i < sci->total_bands; i++, dst += 18, scf += 6)
    4e09:	48 83 c5 18          	add    $0x18,%rbp
    4e0d:	48 83 c0 48          	add    $0x48,%rax
            dst[k + 576] *= scf[3];
    4e11:	0f 10 a0 d8 08 00 00 	movups 0x8d8(%rax),%xmm4
    4e18:	0f 10 98 b8 08 00 00 	movups 0x8b8(%rax),%xmm3
            dst[k + 0]   *= scf[0];
    4e1f:	f3 0f 59 c8          	mulss  %xmm0,%xmm1
            dst[k + 576] *= scf[3];
    4e23:	0f 10 90 c8 08 00 00 	movups 0x8c8(%rax),%xmm2
            dst[k + 0]   *= scf[0];
    4e2a:	f3 0f 11 48 b8       	movss  %xmm1,-0x48(%rax)
    4e2f:	0f 10 4d e8          	movups -0x18(%rbp),%xmm1
    4e33:	0f c6 c9 ff          	shufps $0xff,%xmm1,%xmm1
            dst[k + 576] *= scf[3];
    4e37:	0f 59 d9             	mulps  %xmm1,%xmm3
    4e3a:	0f 59 d1             	mulps  %xmm1,%xmm2
    4e3d:	0f 59 cc             	mulps  %xmm4,%xmm1
            dst[k + 0]   *= scf[0];
    4e40:	f3 0f 10 60 bc       	movss  -0x44(%rax),%xmm4
    4e45:	f3 0f 59 e0          	mulss  %xmm0,%xmm4
            dst[k + 576] *= scf[3];
    4e49:	0f 11 98 b8 08 00 00 	movups %xmm3,0x8b8(%rax)
    4e50:	0f 11 90 c8 08 00 00 	movups %xmm2,0x8c8(%rax)
    4e57:	0f 11 88 d8 08 00 00 	movups %xmm1,0x8d8(%rax)
            dst[k + 0]   *= scf[0];
    4e5e:	f3 0f 11 60 bc       	movss  %xmm4,-0x44(%rax)
    4e63:	f3 0f 10 60 c0       	movss  -0x40(%rax),%xmm4
    4e68:	f3 0f 59 e0          	mulss  %xmm0,%xmm4
    4e6c:	f3 0f 11 60 c0       	movss  %xmm4,-0x40(%rax)
    4e71:	f3 0f 10 60 c4       	movss  -0x3c(%rax),%xmm4
    4e76:	f3 0f 59 e0          	mulss  %xmm0,%xmm4
    4e7a:	f3 0f 11 60 c4       	movss  %xmm4,-0x3c(%rax)
    4e7f:	f3 0f 10 60 c8       	movss  -0x38(%rax),%xmm4
    4e84:	f3 0f 59 e0          	mulss  %xmm0,%xmm4
    4e88:	f3 0f 11 60 c8       	movss  %xmm4,-0x38(%rax)
    4e8d:	f3 0f 10 60 cc       	movss  -0x34(%rax),%xmm4
    4e92:	f3 0f 59 e0          	mulss  %xmm0,%xmm4
    4e96:	f3 0f 11 60 cc       	movss  %xmm4,-0x34(%rax)
    4e9b:	f3 0f 10 60 d0       	movss  -0x30(%rax),%xmm4
    4ea0:	f3 0f 59 e0          	mulss  %xmm0,%xmm4
    4ea4:	f3 0f 11 60 d0       	movss  %xmm4,-0x30(%rax)
    4ea9:	f3 0f 10 60 d4       	movss  -0x2c(%rax),%xmm4
    4eae:	f3 0f 59 e0          	mulss  %xmm0,%xmm4
    4eb2:	f3 0f 11 60 d4       	movss  %xmm4,-0x2c(%rax)
    4eb7:	f3 0f 10 60 d8       	movss  -0x28(%rax),%xmm4
    4ebc:	f3 0f 59 e0          	mulss  %xmm0,%xmm4
    4ec0:	f3 0f 11 60 d8       	movss  %xmm4,-0x28(%rax)
    4ec5:	f3 0f 10 60 dc       	movss  -0x24(%rax),%xmm4
    4eca:	f3 0f 59 e0          	mulss  %xmm0,%xmm4
    4ece:	f3 0f 11 60 dc       	movss  %xmm4,-0x24(%rax)
    4ed3:	f3 0f 10 60 e0       	movss  -0x20(%rax),%xmm4
    4ed8:	f3 0f 59 e0          	mulss  %xmm0,%xmm4
    4edc:	f3 0f 59 40 e4       	mulss  -0x1c(%rax),%xmm0
    4ee1:	f3 0f 11 60 e0       	movss  %xmm4,-0x20(%rax)
    4ee6:	f3 0f 11 40 e4       	movss  %xmm0,-0x1c(%rax)
    for (i = 0; i < sci->total_bands; i++, dst += 18, scf += 6)
    4eeb:	48 39 d5             	cmp    %rdx,%rbp
    4eee:	0f 85 0c ff ff ff    	jne    4e00 <mp3dec_decode_frame+0x1040>
                mp3d_synth_granule(dec->qmf_state, scratch.grbuf[0], 12, info->channels, pcm, scratch.syn[0]);
    4ef4:	48 8b 84 24 f8 03 00 	mov    0x3f8(%rsp),%rax
    4efb:	00 
    4efc:	8b 68 08             	mov    0x8(%rax),%ebp
    4eff:	48 8b 84 24 f0 03 00 	mov    0x3f0(%rsp),%rax
    4f06:	00 
    4f07:	4c 8d 88 00 09 00 00 	lea    0x900(%rax),%r9
    for (i = 0; i < nch; i++)
    4f0e:	85 ed                	test   %ebp,%ebp
    4f10:	0f 8e 0c 0f 00 00    	jle    5e22 <mp3dec_decode_frame+0x2062>
    4f16:	f3 0f 10 15 6a a1 00 	movss  0xa16a(%rip),%xmm2        # f088 <_IO_stdin_used+0x88>
    4f1d:	00 
    4f1e:	48 63 d5             	movslq %ebp,%rdx
    4f21:	48 8d 8c 24 30 08 00 	lea    0x830(%rsp),%rcx
    4f28:	00 
    4f29:	31 f6                	xor    %esi,%esi
    4f2b:	48 8d 3c d2          	lea    (%rdx,%rdx,8),%rdi
    4f2f:	0f c6 d2 00          	shufps $0x0,%xmm2,%xmm2
    4f33:	0f 29 94 24 b0 02 00 	movaps %xmm2,0x2b0(%rsp)
    4f3a:	00 
    4f3b:	48 c1 e7 06          	shl    $0x6,%rdi
    4f3f:	f3 0f 10 15 45 a1 00 	movss  0xa145(%rip),%xmm2        # f08c <_IO_stdin_used+0x8c>
    4f46:	00 
    4f47:	0f c6 d2 00          	shufps $0x0,%xmm2,%xmm2
    4f4b:	0f 29 94 24 f0 02 00 	movaps %xmm2,0x2f0(%rsp)
    4f52:	00 
    4f53:	f3 0f 10 15 35 a1 00 	movss  0xa135(%rip),%xmm2        # f090 <_IO_stdin_used+0x90>
    4f5a:	00 
    4f5b:	0f c6 d2 00          	shufps $0x0,%xmm2,%xmm2
    4f5f:	0f 29 94 24 00 03 00 	movaps %xmm2,0x300(%rsp)
    4f66:	00 
    4f67:	f3 0f 10 15 25 a1 00 	movss  0xa125(%rip),%xmm2        # f094 <_IO_stdin_used+0x94>
    4f6e:	00 
    4f6f:	0f c6 d2 00          	shufps $0x0,%xmm2,%xmm2
    4f73:	0f 29 94 24 10 03 00 	movaps %xmm2,0x310(%rsp)
    4f7a:	00 
    4f7b:	f3 0f 10 15 15 a1 00 	movss  0xa115(%rip),%xmm2        # f098 <_IO_stdin_used+0x98>
    4f82:	00 
    4f83:	0f c6 d2 00          	shufps $0x0,%xmm2,%xmm2
    4f87:	0f 29 94 24 20 03 00 	movaps %xmm2,0x320(%rsp)
    4f8e:	00 
    4f8f:	f3 0f 10 15 05 a1 00 	movss  0xa105(%rip),%xmm2        # f09c <_IO_stdin_used+0x9c>
    4f96:	00 
    4f97:	0f c6 d2 00          	shufps $0x0,%xmm2,%xmm2
    4f9b:	0f 29 94 24 30 03 00 	movaps %xmm2,0x330(%rsp)
    4fa2:	00 
    4fa3:	f3 0f 10 15 f5 a0 00 	movss  0xa0f5(%rip),%xmm2        # f0a0 <_IO_stdin_used+0xa0>
    4faa:	00 
    4fab:	0f c6 d2 00          	shufps $0x0,%xmm2,%xmm2
    4faf:	0f 29 94 24 40 03 00 	movaps %xmm2,0x340(%rsp)
    4fb6:	00 
    4fb7:	f3 0f 10 15 e5 a0 00 	movss  0xa0e5(%rip),%xmm2        # f0a4 <_IO_stdin_used+0xa4>
    4fbe:	00 
    4fbf:	0f c6 d2 00          	shufps $0x0,%xmm2,%xmm2
    4fc3:	0f 29 94 24 50 03 00 	movaps %xmm2,0x350(%rsp)
    4fca:	00 
    4fcb:	f3 0f 10 15 d5 a0 00 	movss  0xa0d5(%rip),%xmm2        # f0a8 <_IO_stdin_used+0xa8>
    4fd2:	00 
    4fd3:	0f c6 d2 00          	shufps $0x0,%xmm2,%xmm2
    4fd7:	0f 29 94 24 60 03 00 	movaps %xmm2,0x360(%rsp)
    4fde:	00 
    4fdf:	f3 0f 10 15 c5 a0 00 	movss  0xa0c5(%rip),%xmm2        # f0ac <_IO_stdin_used+0xac>
    4fe6:	00 
    4fe7:	0f c6 d2 00          	shufps $0x0,%xmm2,%xmm2
    4feb:	0f 29 94 24 70 03 00 	movaps %xmm2,0x370(%rsp)
    4ff2:	00 
    4ff3:	f3 0f 10 15 b5 a0 00 	movss  0xa0b5(%rip),%xmm2        # f0b0 <_IO_stdin_used+0xb0>
    4ffa:	00 
    4ffb:	0f c6 d2 00          	shufps $0x0,%xmm2,%xmm2
    4fff:	0f 29 94 24 80 03 00 	movaps %xmm2,0x380(%rsp)
    5006:	00 
    5007:	f3 0f 10 15 a5 a0 00 	movss  0xa0a5(%rip),%xmm2        # f0b4 <_IO_stdin_used+0xb4>
    500e:	00 
    500f:	0f c6 d2 00          	shufps $0x0,%xmm2,%xmm2
    5013:	0f 29 94 24 90 03 00 	movaps %xmm2,0x390(%rsp)
    501a:	00 
    501b:	f3 0f 10 15 95 a0 00 	movss  0xa095(%rip),%xmm2        # f0b8 <_IO_stdin_used+0xb8>
    5022:	00 
    5023:	0f c6 d2 00          	shufps $0x0,%xmm2,%xmm2
    5027:	0f 29 94 24 a0 03 00 	movaps %xmm2,0x3a0(%rsp)
    502e:	00 
    502f:	f3 0f 10 15 85 a0 00 	movss  0xa085(%rip),%xmm2        # f0bc <_IO_stdin_used+0xbc>
    5036:	00 
    5037:	0f c6 d2 00          	shufps $0x0,%xmm2,%xmm2
    503b:	0f 29 94 24 b0 03 00 	movaps %xmm2,0x3b0(%rsp)
    5042:	00 
    5043:	f3 0f 10 15 75 a0 00 	movss  0xa075(%rip),%xmm2        # f0c0 <_IO_stdin_used+0xc0>
    504a:	00 
    504b:	0f c6 d2 00          	shufps $0x0,%xmm2,%xmm2
    504f:	0f 29 94 24 c0 03 00 	movaps %xmm2,0x3c0(%rsp)
    5056:	00 
    5057:	f3 0f 10 15 65 a0 00 	movss  0xa065(%rip),%xmm2        # f0c4 <_IO_stdin_used+0xc4>
    505e:	00 
    505f:	0f c6 d2 00          	shufps $0x0,%xmm2,%xmm2
    5063:	0f 29 94 24 d0 03 00 	movaps %xmm2,0x3d0(%rsp)
    506a:	00 
    506b:	f3 0f 10 15 55 a0 00 	movss  0xa055(%rip),%xmm2        # f0c8 <_IO_stdin_used+0xc8>
    5072:	00 
    5073:	0f c6 d2 00          	shufps $0x0,%xmm2,%xmm2
    5077:	0f 29 94 24 60 02 00 	movaps %xmm2,0x260(%rsp)
    507e:	00 
    507f:	f3 0f 10 15 45 a0 00 	movss  0xa045(%rip),%xmm2        # f0cc <_IO_stdin_used+0xcc>
    5086:	00 
    5087:	0f c6 d2 00          	shufps $0x0,%xmm2,%xmm2
    508b:	0f 29 94 24 70 02 00 	movaps %xmm2,0x270(%rsp)
    5092:	00 
    5093:	f3 0f 10 15 35 a0 00 	movss  0xa035(%rip),%xmm2        # f0d0 <_IO_stdin_used+0xd0>
    509a:	00 
    509b:	0f c6 d2 00          	shufps $0x0,%xmm2,%xmm2
    509f:	0f 29 94 24 80 02 00 	movaps %xmm2,0x280(%rsp)
    50a6:	00 
    50a7:	f3 0f 10 15 25 a0 00 	movss  0xa025(%rip),%xmm2        # f0d4 <_IO_stdin_used+0xd4>
    50ae:	00 
    50af:	0f c6 d2 00          	shufps $0x0,%xmm2,%xmm2
    50b3:	0f 29 94 24 90 02 00 	movaps %xmm2,0x290(%rsp)
    50ba:	00 
    50bb:	f3 0f 10 15 15 a0 00 	movss  0xa015(%rip),%xmm2        # f0d8 <_IO_stdin_used+0xd8>
    50c2:	00 
    50c3:	0f c6 d2 00          	shufps $0x0,%xmm2,%xmm2
    50c7:	0f 29 94 24 a0 02 00 	movaps %xmm2,0x2a0(%rsp)
    50ce:	00 
    50cf:	f3 0f 10 15 05 a0 00 	movss  0xa005(%rip),%xmm2        # f0dc <_IO_stdin_used+0xdc>
    50d6:	00 
    50d7:	0f c6 d2 00          	shufps $0x0,%xmm2,%xmm2
    50db:	0f 29 94 24 c0 02 00 	movaps %xmm2,0x2c0(%rsp)
    50e2:	00 
    50e3:	f3 0f 10 15 f5 9f 00 	movss  0x9ff5(%rip),%xmm2        # f0e0 <_IO_stdin_used+0xe0>
    50ea:	00 
    50eb:	0f c6 d2 00          	shufps $0x0,%xmm2,%xmm2
    50ef:	0f 29 94 24 d0 02 00 	movaps %xmm2,0x2d0(%rsp)
    50f6:	00 
    50f7:	f3 0f 10 15 e5 9f 00 	movss  0x9fe5(%rip),%xmm2        # f0e4 <_IO_stdin_used+0xe4>
    50fe:	00 
    50ff:	0f c6 d2 00          	shufps $0x0,%xmm2,%xmm2
    5103:	0f 29 94 24 e0 02 00 	movaps %xmm2,0x2e0(%rsp)
    510a:	00 
    510b:	f3 0f 10 15 d5 9f 00 	movss  0x9fd5(%rip),%xmm2        # f0e8 <_IO_stdin_used+0xe8>
    5112:	00 
    5113:	0f c6 d2 00          	shufps $0x0,%xmm2,%xmm2
    5117:	0f 29 94 24 20 04 00 	movaps %xmm2,0x420(%rsp)
    511e:	00 
    511f:	f3 0f 10 15 c5 9f 00 	movss  0x9fc5(%rip),%xmm2        # f0ec <_IO_stdin_used+0xec>
    5126:	00 
    5127:	0f c6 d2 00          	shufps $0x0,%xmm2,%xmm2
    512b:	0f 29 94 24 30 04 00 	movaps %xmm2,0x430(%rsp)
    5132:	00 
    5133:	f3 0f 10 15 85 c5 00 	movss  0xc585(%rip),%xmm2        # 116c0 <g_pow43+0x2a0>
    513a:	00 
    513b:	0f c6 d2 00          	shufps $0x0,%xmm2,%xmm2
    513f:	0f 29 94 24 e0 03 00 	movaps %xmm2,0x3e0(%rsp)
    5146:	00 
    5147:	f3 0f 10 15 a1 9f 00 	movss  0x9fa1(%rip),%xmm2        # f0f0 <_IO_stdin_used+0xf0>
    514e:	00 
    514f:	0f c6 d2 00          	shufps $0x0,%xmm2,%xmm2
    5153:	0f 29 54 24 10       	movaps %xmm2,0x10(%rsp)
    5158:	f3 0f 10 15 94 9f 00 	movss  0x9f94(%rip),%xmm2        # f0f4 <_IO_stdin_used+0xf4>
    515f:	00 
    5160:	0f c6 d2 00          	shufps $0x0,%xmm2,%xmm2
    5164:	0f 29 54 24 20       	movaps %xmm2,0x20(%rsp)
    5169:	f3 0f 10 15 87 9f 00 	movss  0x9f87(%rip),%xmm2        # f0f8 <_IO_stdin_used+0xf8>
    5170:	00 
    5171:	0f c6 d2 00          	shufps $0x0,%xmm2,%xmm2
    5175:	0f 29 54 24 30       	movaps %xmm2,0x30(%rsp)
    517a:	f3 0f 10 15 7a 9f 00 	movss  0x9f7a(%rip),%xmm2        # f0fc <_IO_stdin_used+0xfc>
    5181:	00 
    5182:	0f c6 d2 00          	shufps $0x0,%xmm2,%xmm2
    5186:	0f 29 54 24 40       	movaps %xmm2,0x40(%rsp)
    518b:	f3 0f 10 15 6d 9f 00 	movss  0x9f6d(%rip),%xmm2        # f100 <_IO_stdin_used+0x100>
    5192:	00 
    5193:	0f c6 d2 00          	shufps $0x0,%xmm2,%xmm2
    5197:	0f 29 54 24 50       	movaps %xmm2,0x50(%rsp)
    519c:	f3 0f 10 15 60 9f 00 	movss  0x9f60(%rip),%xmm2        # f104 <_IO_stdin_used+0x104>
    51a3:	00 
    51a4:	0f c6 d2 00          	shufps $0x0,%xmm2,%xmm2
    51a8:	0f 29 54 24 60       	movaps %xmm2,0x60(%rsp)
    if (have_simd()) for (; k < n; k += 4)
    51ad:	0f 28 9c 24 30 04 00 	movaps 0x430(%rsp),%xmm3
    51b4:	00 
    51b5:	0f 28 94 24 20 04 00 	movaps 0x420(%rsp),%xmm2
    51bc:	00 
    51bd:	48 8d 41 d0          	lea    -0x30(%rcx),%rax
    51c1:	0f 29 1c 24          	movaps %xmm3,(%rsp)
    51c5:	0f 1f 00             	nopl   (%rax)
  return (__m128) ((__v4sf)__A - (__v4sf)__B);
    51c8:	0f 10 a0 48 14 00 00 	movups 0x1448(%rax),%xmm4
    51cf:	0f 28 80 90 0b 00 00 	movaps 0xb90(%rax),%xmm0
    51d6:	48 83 c0 10          	add    $0x10,%rax
    51da:	0f 10 88 b8 0f 00 00 	movups 0xfb8(%rax),%xmm1
    51e1:	0f 5c 88 00 10 00 00 	subps  0x1000(%rax),%xmm1
  return (__m128) ((__v4sf)__A * (__v4sf)__B);
    51e8:	0f 59 8c 24 b0 02 00 	mulps  0x2b0(%rsp),%xmm1
    51ef:	00 
  return (__m128) ((__v4sf)__A - (__v4sf)__B);
    51f0:	0f 5c c4             	subps  %xmm4,%xmm0
  return (__m128) ((__v4sf)__A * (__v4sf)__B);
    51f3:	0f 28 b4 24 00 03 00 	movaps 0x300(%rsp),%xmm6
    51fa:	00 
    51fb:	0f 59 84 24 f0 02 00 	mulps  0x2f0(%rsp),%xmm0
    5202:	00 
  return (__m128) ((__v4sf)__A + (__v4sf)__B);
    5203:	0f 10 a8 c8 0b 00 00 	movups 0xbc8(%rax),%xmm5
    520a:	0f 58 a8 f0 13 00 00 	addps  0x13f0(%rax),%xmm5
    5211:	44 0f 10 80 38 14 00 	movups 0x1438(%rax),%xmm8
    5218:	00 
    5219:	0f 10 98 b8 0f 00 00 	movups 0xfb8(%rax),%xmm3
    5220:	44 0f 58 80 80 0b 00 	addps  0xb80(%rax),%xmm8
    5227:	00 
    5228:	0f 58 98 00 10 00 00 	addps  0x1000(%rax),%xmm3
    522f:	0f 28 f9             	movaps %xmm1,%xmm7
    5232:	0f 58 f8             	addps  %xmm0,%xmm7
  return (__m128) ((__v4sf)__A - (__v4sf)__B);
    5235:	0f 5c c1             	subps  %xmm1,%xmm0
    5238:	0f 28 88 70 0f 00 00 	movaps 0xf70(%rax),%xmm1
  return (__m128) ((__v4sf)__A + (__v4sf)__B);
    523f:	45 0f 28 d8          	movaps %xmm8,%xmm11
  return (__m128) ((__v4sf)__A - (__v4sf)__B);
    5243:	44 0f 5c c3          	subps  %xmm3,%xmm8
  return (__m128) ((__v4sf)__A + (__v4sf)__B);
    5247:	44 0f 58 db          	addps  %xmm3,%xmm11
    524b:	0f 10 98 48 10 00 00 	movups 0x1048(%rax),%xmm3
    5252:	0f 58 98 70 0f 00 00 	addps  0xf70(%rax),%xmm3
  return (__m128) ((__v4sf)__A * (__v4sf)__B);
    5259:	0f 59 c6             	mulps  %xmm6,%xmm0
  return (__m128) ((__v4sf)__A + (__v4sf)__B);
    525c:	0f 29 bc 24 80 01 00 	movaps %xmm7,0x180(%rsp)
    5263:	00 
    5264:	0f 28 fd             	movaps %xmm5,%xmm7
  return (__m128) ((__v4sf)__A - (__v4sf)__B);
    5267:	0f 10 a8 48 10 00 00 	movups 0x1048(%rax),%xmm5
  return (__m128) ((__v4sf)__A * (__v4sf)__B);
    526e:	44 0f 59 c6          	mulps  %xmm6,%xmm8
  return (__m128) ((__v4sf)__A + (__v4sf)__B);
    5272:	44 0f 28 ef          	movaps %xmm7,%xmm13
  return (__m128) ((__v4sf)__A - (__v4sf)__B);
    5276:	0f 5c cd             	subps  %xmm5,%xmm1
    5279:	0f 10 a8 c8 0b 00 00 	movups 0xbc8(%rax),%xmm5
    5280:	0f 5c a8 f0 13 00 00 	subps  0x13f0(%rax),%xmm5
  return (__m128) ((__v4sf)__A * (__v4sf)__B);
    5287:	0f 59 8c 24 10 03 00 	mulps  0x310(%rsp),%xmm1
    528e:	00 
  return (__m128) ((__v4sf)__A + (__v4sf)__B);
    528f:	44 0f 58 eb          	addps  %xmm3,%xmm13
  return (__m128) ((__v4sf)__A - (__v4sf)__B);
    5293:	0f 5c fb             	subps  %xmm3,%xmm7
  return (__m128) ((__v4sf)__A * (__v4sf)__B);
    5296:	0f 29 84 24 f0 01 00 	movaps %xmm0,0x1f0(%rsp)
    529d:	00 
    529e:	0f 28 84 24 20 03 00 	movaps 0x320(%rsp),%xmm0
    52a5:	00 
    52a6:	0f 59 c5             	mulps  %xmm5,%xmm0
    52a9:	0f 28 ac 24 30 03 00 	movaps 0x330(%rsp),%xmm5
    52b0:	00 
  return (__m128) ((__v4sf)__A + (__v4sf)__B);
    52b1:	0f 28 f1             	movaps %xmm1,%xmm6
  return (__m128) ((__v4sf)__A * (__v4sf)__B);
    52b4:	0f 59 fd             	mulps  %xmm5,%xmm7
  return (__m128) ((__v4sf)__A + (__v4sf)__B);
    52b7:	0f 58 f0             	addps  %xmm0,%xmm6
  return (__m128) ((__v4sf)__A - (__v4sf)__B);
    52ba:	0f 5c c1             	subps  %xmm1,%xmm0
    52bd:	0f 10 88 28 0f 00 00 	movups 0xf28(%rax),%xmm1
    52c4:	0f 5c 88 90 10 00 00 	subps  0x1090(%rax),%xmm1
  return (__m128) ((__v4sf)__A * (__v4sf)__B);
    52cb:	0f 28 d8             	movaps %xmm0,%xmm3
  return (__m128) ((__v4sf)__A + (__v4sf)__B);
    52ce:	0f 29 b4 24 90 01 00 	movaps %xmm6,0x190(%rsp)
    52d5:	00 
  return (__m128) ((__v4sf)__A * (__v4sf)__B);
    52d6:	0f 59 dd             	mulps  %xmm5,%xmm3
  return (__m128) ((__v4sf)__A + (__v4sf)__B);
    52d9:	0f 10 a8 28 0f 00 00 	movups 0xf28(%rax),%xmm5
    52e0:	0f 58 a8 90 10 00 00 	addps  0x1090(%rax),%xmm5
    52e7:	0f 28 e5             	movaps %xmm5,%xmm4
  return (__m128) ((__v4sf)__A * (__v4sf)__B);
    52ea:	0f 29 9c 24 00 02 00 	movaps %xmm3,0x200(%rsp)
    52f1:	00 
  return (__m128) ((__v4sf)__A + (__v4sf)__B);
    52f2:	0f 10 98 a8 13 00 00 	movups 0x13a8(%rax),%xmm3
    52f9:	0f 58 98 10 0c 00 00 	addps  0xc10(%rax),%xmm3
  return (__m128) ((__v4sf)__A * (__v4sf)__B);
    5300:	0f 59 8c 24 40 03 00 	mulps  0x340(%rsp),%xmm1
    5307:	00 
  return (__m128) ((__v4sf)__A - (__v4sf)__B);
    5308:	44 0f 10 b0 a8 13 00 	movups 0x13a8(%rax),%xmm14
    530f:	00 
    5310:	0f 28 a8 10 0c 00 00 	movaps 0xc10(%rax),%xmm5
  return (__m128) ((__v4sf)__A * (__v4sf)__B);
    5317:	0f 28 84 24 50 03 00 	movaps 0x350(%rsp),%xmm0
    531e:	00 
    531f:	44 0f 28 bc 24 60 03 	movaps 0x360(%rsp),%xmm15
    5326:	00 00 
  return (__m128) ((__v4sf)__A + (__v4sf)__B);
    5328:	44 0f 28 d3          	movaps %xmm3,%xmm10
  return (__m128) ((__v4sf)__A - (__v4sf)__B);
    532c:	0f 5c dc             	subps  %xmm4,%xmm3
  return (__m128) ((__v4sf)__A + (__v4sf)__B);
    532f:	0f 10 b0 d8 10 00 00 	movups 0x10d8(%rax),%xmm6
  return (__m128) ((__v4sf)__A - (__v4sf)__B);
    5336:	41 0f 5c ee          	subps  %xmm14,%xmm5
    533a:	44 0f 10 b0 d8 10 00 	movups 0x10d8(%rax),%xmm14
    5341:	00 
  return (__m128) ((__v4sf)__A + (__v4sf)__B);
    5342:	0f 58 b0 e0 0e 00 00 	addps  0xee0(%rax),%xmm6
  return (__m128) ((__v4sf)__A * (__v4sf)__B);
    5349:	44 0f 28 8c 24 90 03 	movaps 0x390(%rsp),%xmm9
    5350:	00 00 
  return (__m128) ((__v4sf)__A + (__v4sf)__B);
    5352:	44 0f 58 d4          	addps  %xmm4,%xmm10
  return (__m128) ((__v4sf)__A * (__v4sf)__B);
    5356:	41 0f 59 df          	mulps  %xmm15,%xmm3
    535a:	0f 59 c5             	mulps  %xmm5,%xmm0
  return (__m128) ((__v4sf)__A + (__v4sf)__B);
    535d:	0f 28 e9             	movaps %xmm1,%xmm5
    5360:	0f 58 e8             	addps  %xmm0,%xmm5
  return (__m128) ((__v4sf)__A - (__v4sf)__B);
    5363:	0f 5c c1             	subps  %xmm1,%xmm0
  return (__m128) ((__v4sf)__A * (__v4sf)__B);
    5366:	0f 28 c8             	movaps %xmm0,%xmm1
  return (__m128) ((__v4sf)__A - (__v4sf)__B);
    5369:	0f 10 80 58 0c 00 00 	movups 0xc58(%rax),%xmm0
    5370:	0f 5c 80 60 13 00 00 	subps  0x1360(%rax),%xmm0
  return (__m128) ((__v4sf)__A + (__v4sf)__B);
    5377:	0f 29 ac 24 a0 01 00 	movaps %xmm5,0x1a0(%rsp)
    537e:	00 
  return (__m128) ((__v4sf)__A * (__v4sf)__B);
    537f:	41 0f 59 cf          	mulps  %xmm15,%xmm1
  return (__m128) ((__v4sf)__A + (__v4sf)__B);
    5383:	0f 10 a8 58 0c 00 00 	movups 0xc58(%rax),%xmm5
    538a:	0f 58 a8 60 13 00 00 	addps  0x1360(%rax),%xmm5
  return (__m128) ((__v4sf)__A * (__v4sf)__B);
    5391:	0f 59 84 24 80 03 00 	mulps  0x380(%rsp),%xmm0
    5398:	00 
  return (__m128) ((__v4sf)__A + (__v4sf)__B);
    5399:	44 0f 28 e5          	movaps %xmm5,%xmm12
  return (__m128) ((__v4sf)__A - (__v4sf)__B);
    539d:	0f 5c ee             	subps  %xmm6,%xmm5
  return (__m128) ((__v4sf)__A + (__v4sf)__B);
    53a0:	44 0f 58 e6          	addps  %xmm6,%xmm12
    53a4:	0f 10 b0 98 0e 00 00 	movups 0xe98(%rax),%xmm6
    53ab:	0f 58 b0 20 11 00 00 	addps  0x1120(%rax),%xmm6
  return (__m128) ((__v4sf)__A * (__v4sf)__B);
    53b2:	0f 29 8c 24 10 02 00 	movaps %xmm1,0x210(%rsp)
    53b9:	00 
  return (__m128) ((__v4sf)__A - (__v4sf)__B);
    53ba:	0f 28 88 e0 0e 00 00 	movaps 0xee0(%rax),%xmm1
    53c1:	41 0f 5c ce          	subps  %xmm14,%xmm1
  return (__m128) ((__v4sf)__A * (__v4sf)__B);
    53c5:	0f 59 8c 24 70 03 00 	mulps  0x370(%rsp),%xmm1
    53cc:	00 
  return (__m128) ((__v4sf)__A + (__v4sf)__B);
    53cd:	41 0f 28 e4          	movaps %xmm12,%xmm4
  return (__m128) ((__v4sf)__A - (__v4sf)__B);
    53d1:	44 0f 10 b0 18 13 00 	movups 0x1318(%rax),%xmm14
    53d8:	00 
  return (__m128) ((__v4sf)__A * (__v4sf)__B);
    53d9:	44 0f 28 e5          	movaps %xmm5,%xmm12
  return (__m128) ((__v4sf)__A + (__v4sf)__B);
    53dd:	0f 10 a8 18 13 00 00 	movups 0x1318(%rax),%xmm5
    53e4:	0f 58 a8 a0 0c 00 00 	addps  0xca0(%rax),%xmm5
  return (__m128) ((__v4sf)__A * (__v4sf)__B);
    53eb:	45 0f 59 e1          	mulps  %xmm9,%xmm12
  return (__m128) ((__v4sf)__A + (__v4sf)__B);
    53ef:	44 0f 28 f9          	movaps %xmm1,%xmm15
    53f3:	44 0f 58 f8          	addps  %xmm0,%xmm15
  return (__m128) ((__v4sf)__A - (__v4sf)__B);
    53f7:	0f 5c c1             	subps  %xmm1,%xmm0
    53fa:	0f 10 88 98 0e 00 00 	movups 0xe98(%rax),%xmm1
  return (__m128) ((__v4sf)__A * (__v4sf)__B);
    5401:	44 0f 29 a4 24 10 01 	movaps %xmm12,0x110(%rsp)
    5408:	00 00 
  return (__m128) ((__v4sf)__A - (__v4sf)__B);
    540a:	0f 5c 88 20 11 00 00 	subps  0x1120(%rax),%xmm1
  return (__m128) ((__v4sf)__A * (__v4sf)__B);
    5411:	0f 59 8c 24 a0 03 00 	mulps  0x3a0(%rsp),%xmm1
    5418:	00 
  return (__m128) ((__v4sf)__A + (__v4sf)__B);
    5419:	44 0f 29 bc 24 b0 01 	movaps %xmm15,0x1b0(%rsp)
    5420:	00 00 
  return (__m128) ((__v4sf)__A * (__v4sf)__B);
    5422:	41 0f 59 c1          	mulps  %xmm9,%xmm0
  return (__m128) ((__v4sf)__A - (__v4sf)__B);
    5426:	44 0f 28 88 a0 0c 00 	movaps 0xca0(%rax),%xmm9
    542d:	00 
    542e:	45 0f 5c ce          	subps  %xmm14,%xmm9
  return (__m128) ((__v4sf)__A * (__v4sf)__B);
    5432:	0f 29 84 24 20 02 00 	movaps %xmm0,0x220(%rsp)
    5439:	00 
    543a:	0f 28 84 24 b0 03 00 	movaps 0x3b0(%rsp),%xmm0
    5441:	00 
    5442:	41 0f 59 c1          	mulps  %xmm9,%xmm0
  return (__m128) ((__v4sf)__A + (__v4sf)__B);
    5446:	44 0f 28 cd          	movaps %xmm5,%xmm9
  return (__m128) ((__v4sf)__A - (__v4sf)__B);
    544a:	0f 5c ee             	subps  %xmm6,%xmm5
  return (__m128) ((__v4sf)__A + (__v4sf)__B);
    544d:	44 0f 58 ce          	addps  %xmm6,%xmm9
    5451:	0f 28 f1             	movaps %xmm1,%xmm6
    5454:	44 0f 29 8c 24 80 00 	movaps %xmm9,0x80(%rsp)
    545b:	00 00 
  return (__m128) ((__v4sf)__A * (__v4sf)__B);
    545d:	44 0f 28 bc 24 c0 03 	movaps 0x3c0(%rsp),%xmm15
    5464:	00 00 
  return (__m128) ((__v4sf)__A - (__v4sf)__B);
    5466:	44 0f 10 b0 68 11 00 	movups 0x1168(%rax),%xmm14
    546d:	00 
  return (__m128) ((__v4sf)__A + (__v4sf)__B);
    546e:	0f 58 f0             	addps  %xmm0,%xmm6
  return (__m128) ((__v4sf)__A - (__v4sf)__B);
    5471:	0f 5c c1             	subps  %xmm1,%xmm0
    5474:	0f 28 88 50 0e 00 00 	movaps 0xe50(%rax),%xmm1
  return (__m128) ((__v4sf)__A * (__v4sf)__B);
    547b:	41 0f 59 ef          	mulps  %xmm15,%xmm5
  return (__m128) ((__v4sf)__A - (__v4sf)__B);
    547f:	41 0f 5c ce          	subps  %xmm14,%xmm1
  return (__m128) ((__v4sf)__A * (__v4sf)__B);
    5483:	0f 59 8c 24 d0 03 00 	mulps  0x3d0(%rsp),%xmm1
    548a:	00 
  return (__m128) ((__v4sf)__A - (__v4sf)__B);
    548b:	44 0f 10 b0 88 12 00 	movups 0x1288(%rax),%xmm14
    5492:	00 
  return (__m128) ((__v4sf)__A * (__v4sf)__B);
    5493:	41 0f 59 c7          	mulps  %xmm15,%xmm0
  return (__m128) ((__v4sf)__A + (__v4sf)__B);
    5497:	0f 29 b4 24 c0 01 00 	movaps %xmm6,0x1c0(%rsp)
    549e:	00 
    549f:	0f 10 b0 68 11 00 00 	movups 0x1168(%rax),%xmm6
    54a6:	0f 58 b0 50 0e 00 00 	addps  0xe50(%rax),%xmm6
  return (__m128) ((__v4sf)__A * (__v4sf)__B);
    54ad:	0f 29 ac 24 20 01 00 	movaps %xmm5,0x120(%rsp)
    54b4:	00 
  return (__m128) ((__v4sf)__A + (__v4sf)__B);
    54b5:	0f 10 a8 e8 0c 00 00 	movups 0xce8(%rax),%xmm5
    54bc:	0f 58 a8 d0 12 00 00 	addps  0x12d0(%rax),%xmm5
    54c3:	44 0f 28 c9          	movaps %xmm1,%xmm9
  return (__m128) ((__v4sf)__A * (__v4sf)__B);
    54c7:	0f 29 84 24 a0 00 00 	movaps %xmm0,0xa0(%rsp)
    54ce:	00 
  return (__m128) ((__v4sf)__A - (__v4sf)__B);
    54cf:	0f 10 80 e8 0c 00 00 	movups 0xce8(%rax),%xmm0
    54d6:	0f 5c 80 d0 12 00 00 	subps  0x12d0(%rax),%xmm0
  return (__m128) ((__v4sf)__A * (__v4sf)__B);
    54dd:	0f 59 84 24 60 02 00 	mulps  0x260(%rsp),%xmm0
    54e4:	00 
  return (__m128) ((__v4sf)__A + (__v4sf)__B);
    54e5:	44 0f 28 e5          	movaps %xmm5,%xmm12
  return (__m128) ((__v4sf)__A - (__v4sf)__B);
    54e9:	0f 5c ee             	subps  %xmm6,%xmm5
  return (__m128) ((__v4sf)__A + (__v4sf)__B);
    54ec:	44 0f 58 e6          	addps  %xmm6,%xmm12
  return (__m128) ((__v4sf)__A * (__v4sf)__B);
    54f0:	0f 28 b4 24 70 02 00 	movaps 0x270(%rsp),%xmm6
    54f7:	00 
    54f8:	0f 59 ee             	mulps  %xmm6,%xmm5
  return (__m128) ((__v4sf)__A + (__v4sf)__B);
    54fb:	44 0f 58 c8          	addps  %xmm0,%xmm9
  return (__m128) ((__v4sf)__A - (__v4sf)__B);
    54ff:	0f 5c c1             	subps  %xmm1,%xmm0
  return (__m128) ((__v4sf)__A * (__v4sf)__B);
    5502:	0f 28 c8             	movaps %xmm0,%xmm1
  return (__m128) ((__v4sf)__A - (__v4sf)__B);
    5505:	0f 28 80 30 0d 00 00 	movaps 0xd30(%rax),%xmm0
  return (__m128) ((__v4sf)__A + (__v4sf)__B);
    550c:	44 0f 29 8c 24 d0 01 	movaps %xmm9,0x1d0(%rsp)
    5513:	00 00 
  return (__m128) ((__v4sf)__A * (__v4sf)__B);
    5515:	0f 59 ce             	mulps  %xmm6,%xmm1
  return (__m128) ((__v4sf)__A + (__v4sf)__B);
    5518:	0f 10 b0 08 0e 00 00 	movups 0xe08(%rax),%xmm6
    551f:	0f 58 b0 b0 11 00 00 	addps  0x11b0(%rax),%xmm6
  return (__m128) ((__v4sf)__A * (__v4sf)__B);
    5526:	0f 29 ac 24 30 01 00 	movaps %xmm5,0x130(%rsp)
    552d:	00 
  return (__m128) ((__v4sf)__A - (__v4sf)__B);
    552e:	41 0f 5c c6          	subps  %xmm14,%xmm0
  return (__m128) ((__v4sf)__A * (__v4sf)__B);
    5532:	0f 59 84 24 90 02 00 	mulps  0x290(%rsp),%xmm0
    5539:	00 
  return (__m128) ((__v4sf)__A + (__v4sf)__B);
    553a:	44 0f 28 ce          	movaps %xmm6,%xmm9
  return (__m128) ((__v4sf)__A - (__v4sf)__B);
    553e:	0f 10 b0 08 0e 00 00 	movups 0xe08(%rax),%xmm6
    5545:	0f 5c b0 b0 11 00 00 	subps  0x11b0(%rax),%xmm6
  return (__m128) ((__v4sf)__A * (__v4sf)__B);
    554c:	0f 59 b4 24 80 02 00 	mulps  0x280(%rsp),%xmm6
    5553:	00 
    5554:	0f 29 8c 24 30 02 00 	movaps %xmm1,0x230(%rsp)
    555b:	00 
  return (__m128) ((__v4sf)__A + (__v4sf)__B);
    555c:	0f 10 88 88 12 00 00 	movups 0x1288(%rax),%xmm1
    5563:	0f 58 88 30 0d 00 00 	addps  0xd30(%rax),%xmm1
    556a:	0f 28 e9             	movaps %xmm1,%xmm5
  return (__m128) ((__v4sf)__A - (__v4sf)__B);
    556d:	41 0f 5c c9          	subps  %xmm9,%xmm1
  return (__m128) ((__v4sf)__A + (__v4sf)__B);
    5571:	44 0f 28 fe          	movaps %xmm6,%xmm15
    5575:	41 0f 58 e9          	addps  %xmm9,%xmm5
  return (__m128) ((__v4sf)__A * (__v4sf)__B);
    5579:	44 0f 28 8c 24 a0 02 	movaps 0x2a0(%rsp),%xmm9
    5580:	00 00 
  return (__m128) ((__v4sf)__A + (__v4sf)__B);
    5582:	44 0f 58 f8          	addps  %xmm0,%xmm15
  return (__m128) ((__v4sf)__A - (__v4sf)__B);
    5586:	0f 5c c6             	subps  %xmm6,%xmm0
  return (__m128) ((__v4sf)__A * (__v4sf)__B);
    5589:	41 0f 59 c9          	mulps  %xmm9,%xmm1
  return (__m128) ((__v4sf)__A + (__v4sf)__B);
    558d:	44 0f 29 bc 24 e0 01 	movaps %xmm15,0x1e0(%rsp)
    5594:	00 00 
  return (__m128) ((__v4sf)__A * (__v4sf)__B);
    5596:	0f 28 f0             	movaps %xmm0,%xmm6
    5599:	41 0f 59 f1          	mulps  %xmm9,%xmm6
    559d:	0f 29 8c 24 40 01 00 	movaps %xmm1,0x140(%rsp)
    55a4:	00 
    55a5:	0f 29 b4 24 40 02 00 	movaps %xmm6,0x240(%rsp)
    55ac:	00 
  return (__m128) ((__v4sf)__A + (__v4sf)__B);
    55ad:	0f 10 80 78 0d 00 00 	movups 0xd78(%rax),%xmm0
  return (__m128) ((__v4sf)__A - (__v4sf)__B);
    55b4:	44 0f 10 b0 f8 11 00 	movups 0x11f8(%rax),%xmm14
    55bb:	00 
    55bc:	0f 28 88 c0 0d 00 00 	movaps 0xdc0(%rax),%xmm1
  return (__m128) ((__v4sf)__A + (__v4sf)__B);
    55c3:	0f 58 80 40 12 00 00 	addps  0x1240(%rax),%xmm0
  return (__m128) ((__v4sf)__A * (__v4sf)__B);
    55ca:	44 0f 28 8c 24 c0 02 	movaps 0x2c0(%rsp),%xmm9
    55d1:	00 00 
  return (__m128) ((__v4sf)__A - (__v4sf)__B);
    55d3:	0f 10 b0 78 0d 00 00 	movups 0xd78(%rax),%xmm6
    55da:	41 0f 5c ce          	subps  %xmm14,%xmm1
    55de:	0f 5c b0 40 12 00 00 	subps  0x1240(%rax),%xmm6
  return (__m128) ((__v4sf)__A * (__v4sf)__B);
    55e5:	0f 59 b4 24 d0 02 00 	mulps  0x2d0(%rsp),%xmm6
    55ec:	00 
  return (__m128) ((__v4sf)__A + (__v4sf)__B);
    55ed:	44 0f 10 b8 f8 11 00 	movups 0x11f8(%rax),%xmm15
    55f4:	00 
    55f5:	44 0f 58 b8 c0 0d 00 	addps  0xdc0(%rax),%xmm15
    55fc:	00 
  return (__m128) ((__v4sf)__A * (__v4sf)__B);
    55fd:	44 0f 28 b4 24 e0 02 	movaps 0x2e0(%rsp),%xmm14
    5604:	00 00 
    5606:	44 0f 59 c9          	mulps  %xmm1,%xmm9
  return (__m128) ((__v4sf)__A + (__v4sf)__B);
    560a:	0f 28 c8             	movaps %xmm0,%xmm1
    560d:	41 0f 58 cf          	addps  %xmm15,%xmm1
  return (__m128) ((__v4sf)__A - (__v4sf)__B);
    5611:	41 0f 5c c7          	subps  %xmm15,%xmm0
  return (__m128) ((__v4sf)__A * (__v4sf)__B);
    5615:	41 0f 59 c6          	mulps  %xmm14,%xmm0
  return (__m128) ((__v4sf)__A + (__v4sf)__B);
    5619:	45 0f 28 f9          	movaps %xmm9,%xmm15
    561d:	44 0f 58 fe          	addps  %xmm6,%xmm15
  return (__m128) ((__v4sf)__A - (__v4sf)__B);
    5621:	41 0f 5c f1          	subps  %xmm9,%xmm6
  return (__m128) ((__v4sf)__A * (__v4sf)__B);
    5625:	41 0f 59 f6          	mulps  %xmm14,%xmm6
  return (__m128) ((__v4sf)__A + (__v4sf)__B);
    5629:	44 0f 28 b4 24 80 00 	movaps 0x80(%rsp),%xmm14
    5630:	00 00 
  return (__m128) ((__v4sf)__A * (__v4sf)__B);
    5632:	0f 29 b4 24 50 02 00 	movaps %xmm6,0x250(%rsp)
    5639:	00 
  return (__m128) ((__v4sf)__A - (__v4sf)__B);
    563a:	41 0f 28 f3          	movaps %xmm11,%xmm6
  return (__m128) ((__v4sf)__A + (__v4sf)__B);
    563e:	44 0f 58 d9          	addps  %xmm1,%xmm11
  return (__m128) ((__v4sf)__A - (__v4sf)__B);
    5642:	0f 5c f1             	subps  %xmm1,%xmm6
    5645:	41 0f 28 cd          	movaps %xmm13,%xmm1
    5649:	0f 5c cd             	subps  %xmm5,%xmm1
  return (__m128) ((__v4sf)__A + (__v4sf)__B);
    564c:	41 0f 58 ed          	addps  %xmm13,%xmm5
  return (__m128) ((__v4sf)__A - (__v4sf)__B);
    5650:	45 0f 28 ea          	movaps %xmm10,%xmm13
    5654:	45 0f 5c ec          	subps  %xmm12,%xmm13
  return (__m128) ((__v4sf)__A + (__v4sf)__B);
    5658:	45 0f 58 d4          	addps  %xmm12,%xmm10
  return (__m128) ((__v4sf)__A - (__v4sf)__B);
    565c:	44 0f 28 c9          	movaps %xmm1,%xmm9
  return (__m128) ((__v4sf)__A + (__v4sf)__B);
    5660:	41 0f 28 ce          	movaps %xmm14,%xmm1
    5664:	0f 58 cc             	addps  %xmm4,%xmm1
  return (__m128) ((__v4sf)__A - (__v4sf)__B);
    5667:	41 0f 5c e6          	subps  %xmm14,%xmm4
  return (__m128) ((__v4sf)__A * (__v4sf)__B);
    566b:	44 0f 28 34 24       	movaps (%rsp),%xmm14
  return (__m128) ((__v4sf)__A + (__v4sf)__B);
    5670:	44 0f 28 e1          	movaps %xmm1,%xmm12
  return (__m128) ((__v4sf)__A - (__v4sf)__B);
    5674:	41 0f 28 cb          	movaps %xmm11,%xmm1
  return (__m128) ((__v4sf)__A + (__v4sf)__B);
    5678:	41 0f 58 e5          	addps  %xmm13,%xmm4
    567c:	45 0f 58 dc          	addps  %xmm12,%xmm11
  return (__m128) ((__v4sf)__A - (__v4sf)__B);
    5680:	41 0f 5c cc          	subps  %xmm12,%xmm1
  return (__m128) ((__v4sf)__A + (__v4sf)__B);
    5684:	44 0f 28 a4 24 10 01 	movaps 0x110(%rsp),%xmm12
    568b:	00 00 
    568d:	44 0f 29 9c 24 c0 00 	movaps %xmm11,0xc0(%rsp)
    5694:	00 00 
    5696:	44 0f 28 dd          	movaps %xmm5,%xmm11
  return (__m128) ((__v4sf)__A - (__v4sf)__B);
    569a:	41 0f 5c ea          	subps  %xmm10,%xmm5
  return (__m128) ((__v4sf)__A + (__v4sf)__B);
    569e:	45 0f 58 da          	addps  %xmm10,%xmm11
    56a2:	0f 29 8c 24 b0 00 00 	movaps %xmm1,0xb0(%rsp)
    56a9:	00 
    56aa:	0f 58 e9             	addps  %xmm1,%xmm5
    56ad:	44 0f 29 9c 24 80 00 	movaps %xmm11,0x80(%rsp)
    56b4:	00 00 
    56b6:	45 0f 28 d9          	movaps %xmm9,%xmm11
    56ba:	44 0f 58 ce          	addps  %xmm6,%xmm9
    56be:	45 0f 58 dd          	addps  %xmm13,%xmm11
  return (__m128) ((__v4sf)__A * (__v4sf)__B);
    56c2:	44 0f 28 ac 24 e0 03 	movaps 0x3e0(%rsp),%xmm13
    56c9:	00 00 
    56cb:	44 0f 28 d5          	movaps %xmm5,%xmm10
    56cf:	44 0f 59 d2          	mulps  %xmm2,%xmm10
    56d3:	41 0f 28 ed          	movaps %xmm13,%xmm5
    56d7:	44 0f 59 da          	mulps  %xmm2,%xmm11
    56db:	44 0f 29 94 24 90 00 	movaps %xmm10,0x90(%rsp)
    56e2:	00 00 
    56e4:	45 0f 28 d1          	movaps %xmm9,%xmm10
    56e8:	45 0f 59 d6          	mulps  %xmm14,%xmm10
  return (__m128) ((__v4sf)__A - (__v4sf)__B);
    56ec:	41 0f 5c e2          	subps  %xmm10,%xmm4
  return (__m128) ((__v4sf)__A * (__v4sf)__B);
    56f0:	0f 59 ec             	mulps  %xmm4,%xmm5
  return (__m128) ((__v4sf)__A - (__v4sf)__B);
    56f3:	44 0f 28 d4          	movaps %xmm4,%xmm10
    56f7:	41 0f 28 e0          	movaps %xmm8,%xmm4
    56fb:	0f 5c e0             	subps  %xmm0,%xmm4
  return (__m128) ((__v4sf)__A + (__v4sf)__B);
    56fe:	41 0f 58 c0          	addps  %xmm8,%xmm0
  return (__m128) ((__v4sf)__A - (__v4sf)__B);
    5702:	44 0f 28 c7          	movaps %xmm7,%xmm8
  return (__m128) ((__v4sf)__A + (__v4sf)__B);
    5706:	41 0f 58 e9          	addps  %xmm9,%xmm5
  return (__m128) ((__v4sf)__A - (__v4sf)__B);
    570a:	44 0f 28 ce          	movaps %xmm6,%xmm9
  return (__m128) ((__v4sf)__A + (__v4sf)__B);
    570e:	41 0f 58 f3          	addps  %xmm11,%xmm6
  return (__m128) ((__v4sf)__A - (__v4sf)__B);
    5712:	45 0f 5c cb          	subps  %xmm11,%xmm9
  return (__m128) ((__v4sf)__A * (__v4sf)__B);
    5716:	44 0f 28 5c 24 10    	movaps 0x10(%rsp),%xmm11
    571c:	0f 29 ac 24 d0 00 00 	movaps %xmm5,0xd0(%rsp)
    5723:	00 
    5724:	41 0f 59 ee          	mulps  %xmm14,%xmm5
  return (__m128) ((__v4sf)__A + (__v4sf)__B);
    5728:	0f 29 b4 24 00 01 00 	movaps %xmm6,0x100(%rsp)
    572f:	00 
  return (__m128) ((__v4sf)__A - (__v4sf)__B);
    5730:	44 0f 29 8c 24 f0 00 	movaps %xmm9,0xf0(%rsp)
    5737:	00 00 
  return (__m128) ((__v4sf)__A + (__v4sf)__B);
    5739:	44 0f 28 8c 24 20 01 	movaps 0x120(%rsp),%xmm9
    5740:	00 00 
  return (__m128) ((__v4sf)__A - (__v4sf)__B);
    5742:	44 0f 5c d5          	subps  %xmm5,%xmm10
    5746:	0f 28 ac 24 40 01 00 	movaps 0x140(%rsp),%xmm5
    574d:	00 
    574e:	44 0f 5c c5          	subps  %xmm5,%xmm8
  return (__m128) ((__v4sf)__A + (__v4sf)__B);
    5752:	0f 58 ef             	addps  %xmm7,%xmm5
  return (__m128) ((__v4sf)__A - (__v4sf)__B);
    5755:	44 0f 29 94 24 e0 00 	movaps %xmm10,0xe0(%rsp)
    575c:	00 00 
    575e:	44 0f 28 d3          	movaps %xmm3,%xmm10
    5762:	41 0f 28 f0          	movaps %xmm8,%xmm6
  return (__m128) ((__v4sf)__A + (__v4sf)__B);
    5766:	0f 28 cd             	movaps %xmm5,%xmm1
  return (__m128) ((__v4sf)__A - (__v4sf)__B);
    5769:	0f 28 e8             	movaps %xmm0,%xmm5
    576c:	44 0f 28 84 24 30 01 	movaps 0x130(%rsp),%xmm8
    5773:	00 00 
  return (__m128) ((__v4sf)__A + (__v4sf)__B);
    5775:	41 0f 58 d8          	addps  %xmm8,%xmm3
  return (__m128) ((__v4sf)__A - (__v4sf)__B);
    5779:	45 0f 5c d0          	subps  %xmm8,%xmm10
  return (__m128) ((__v4sf)__A + (__v4sf)__B);
    577d:	45 0f 28 c4          	movaps %xmm12,%xmm8
    5781:	45 0f 58 c1          	addps  %xmm9,%xmm8
  return (__m128) ((__v4sf)__A - (__v4sf)__B);
    5785:	45 0f 5c e1          	subps  %xmm9,%xmm12
    5789:	41 0f 28 fa          	movaps %xmm10,%xmm7
    578d:	41 0f 5c e8          	subps  %xmm8,%xmm5
  return (__m128) ((__v4sf)__A + (__v4sf)__B);
    5791:	41 0f 58 c0          	addps  %xmm8,%xmm0
    5795:	44 0f 28 c1          	movaps %xmm1,%xmm8
    5799:	44 0f 58 c3          	addps  %xmm3,%xmm8
  return (__m128) ((__v4sf)__A - (__v4sf)__B);
    579d:	0f 5c cb             	subps  %xmm3,%xmm1
    57a0:	44 0f 28 d0          	movaps %xmm0,%xmm10
    57a4:	44 0f 29 84 24 10 01 	movaps %xmm8,0x110(%rsp)
    57ab:	00 00 
    57ad:	45 0f 5c d0          	subps  %xmm8,%xmm10
  return (__m128) ((__v4sf)__A + (__v4sf)__B);
    57b1:	0f 58 cd             	addps  %xmm5,%xmm1
  return (__m128) ((__v4sf)__A * (__v4sf)__B);
    57b4:	0f 59 ca             	mulps  %xmm2,%xmm1
  return (__m128) ((__v4sf)__A - (__v4sf)__B);
    57b7:	45 0f 28 c2          	movaps %xmm10,%xmm8
  return (__m128) ((__v4sf)__A * (__v4sf)__B);
    57bb:	44 0f 28 54 24 20    	movaps 0x20(%rsp),%xmm10
    57c1:	44 0f 59 c2          	mulps  %xmm2,%xmm8
    57c5:	0f 28 d9             	movaps %xmm1,%xmm3
  return (__m128) ((__v4sf)__A - (__v4sf)__B);
    57c8:	41 0f 28 cc          	movaps %xmm12,%xmm1
  return (__m128) ((__v4sf)__A * (__v4sf)__B);
    57cc:	44 0f 29 84 24 20 01 	movaps %xmm8,0x120(%rsp)
    57d3:	00 00 
  return (__m128) ((__v4sf)__A + (__v4sf)__B);
    57d5:	44 0f 28 c6          	movaps %xmm6,%xmm8
    57d9:	0f 58 f4             	addps  %xmm4,%xmm6
    57dc:	0f 58 cf             	addps  %xmm7,%xmm1
    57df:	44 0f 58 c7          	addps  %xmm7,%xmm8
  return (__m128) ((__v4sf)__A * (__v4sf)__B);
    57e3:	41 0f 28 fd          	movaps %xmm13,%xmm7
    57e7:	44 0f 28 e6          	movaps %xmm6,%xmm12
    57eb:	45 0f 59 e6          	mulps  %xmm14,%xmm12
    57ef:	44 0f 59 c2          	mulps  %xmm2,%xmm8
  return (__m128) ((__v4sf)__A - (__v4sf)__B);
    57f3:	41 0f 5c cc          	subps  %xmm12,%xmm1
  return (__m128) ((__v4sf)__A * (__v4sf)__B);
    57f7:	0f 59 f9             	mulps  %xmm1,%xmm7
  return (__m128) ((__v4sf)__A + (__v4sf)__B);
    57fa:	0f 58 f7             	addps  %xmm7,%xmm6
  return (__m128) ((__v4sf)__A * (__v4sf)__B);
    57fd:	44 0f 28 e6          	movaps %xmm6,%xmm12
    5801:	45 0f 59 e6          	mulps  %xmm14,%xmm12
  return (__m128) ((__v4sf)__A - (__v4sf)__B);
    5805:	41 0f 5c cc          	subps  %xmm12,%xmm1
    5809:	44 0f 28 e4          	movaps %xmm4,%xmm12
  return (__m128) ((__v4sf)__A + (__v4sf)__B);
    580d:	41 0f 58 e0          	addps  %xmm8,%xmm4
  return (__m128) ((__v4sf)__A - (__v4sf)__B);
    5811:	45 0f 5c e0          	subps  %xmm8,%xmm12
    5815:	41 0f 28 fc          	movaps %xmm12,%xmm7
  return (__m128) ((__v4sf)__A + (__v4sf)__B);
    5819:	44 0f 28 e6          	movaps %xmm6,%xmm12
    581d:	44 0f 58 e4          	addps  %xmm4,%xmm12
  return (__m128) ((__v4sf)__A - (__v4sf)__B);
    5821:	0f 5c e6             	subps  %xmm6,%xmm4
    5824:	44 0f 28 cf          	movaps %xmm7,%xmm9
    5828:	44 0f 5c c9          	subps  %xmm1,%xmm9
  return (__m128) ((__v4sf)__A + (__v4sf)__B);
    582c:	0f 58 cf             	addps  %xmm7,%xmm1
    582f:	45 0f 28 c4          	movaps %xmm12,%xmm8
    5833:	44 0f 28 e5          	movaps %xmm5,%xmm12
  return (__m128) ((__v4sf)__A - (__v4sf)__B);
    5837:	0f 5c eb             	subps  %xmm3,%xmm5
  return (__m128) ((__v4sf)__A + (__v4sf)__B);
    583a:	44 0f 58 e3          	addps  %xmm3,%xmm12
  return (__m128) ((__v4sf)__A * (__v4sf)__B);
    583e:	45 0f 59 c3          	mulps  %xmm11,%xmm8
    5842:	45 0f 59 e2          	mulps  %xmm10,%xmm12
    5846:	44 0f 29 84 24 30 01 	movaps %xmm8,0x130(%rsp)
    584d:	00 00 
    584f:	44 0f 29 a4 24 40 01 	movaps %xmm12,0x140(%rsp)
    5856:	00 00 
    5858:	0f 59 64 24 60       	mulps  0x60(%rsp),%xmm4
    585d:	0f 28 5c 24 50       	movaps 0x50(%rsp),%xmm3
  return (__m128) ((__v4sf)__A - (__v4sf)__B);
    5862:	0f 28 bc 24 80 01 00 	movaps 0x180(%rsp),%xmm7
    5869:	00 
  return (__m128) ((__v4sf)__A * (__v4sf)__B);
    586a:	44 0f 59 4c 24 30    	mulps  0x30(%rsp),%xmm9
  return (__m128) ((__v4sf)__A + (__v4sf)__B);
    5870:	44 0f 28 a4 24 c0 01 	movaps 0x1c0(%rsp),%xmm12
    5877:	00 00 
  return (__m128) ((__v4sf)__A * (__v4sf)__B);
    5879:	0f 59 dd             	mulps  %xmm5,%xmm3
    587c:	0f 59 4c 24 40       	mulps  0x40(%rsp),%xmm1
    5881:	0f 29 a0 f0 13 00 00 	movaps %xmm4,0x13f0(%rax)
  return (__m128) ((__v4sf)__A - (__v4sf)__B);
    5888:	0f 28 e7             	movaps %xmm7,%xmm4
  return (__m128) ((__v4sf)__A + (__v4sf)__B);
    588b:	41 0f 58 ff          	addps  %xmm15,%xmm7
  return (__m128) ((__v4sf)__A * (__v4sf)__B);
    588f:	44 0f 29 8c 24 50 01 	movaps %xmm9,0x150(%rsp)
    5896:	00 00 
  return (__m128) ((__v4sf)__A - (__v4sf)__B);
    5898:	41 0f 5c e7          	subps  %xmm15,%xmm4
    589c:	44 0f 28 8c 24 d0 01 	movaps 0x1d0(%rsp),%xmm9
    58a3:	00 00 
  return (__m128) ((__v4sf)__A * (__v4sf)__B);
    58a5:	0f 29 9c 24 70 01 00 	movaps %xmm3,0x170(%rsp)
    58ac:	00 
  return (__m128) ((__v4sf)__A - (__v4sf)__B);
    58ad:	0f 28 9c 24 e0 01 00 	movaps 0x1e0(%rsp),%xmm3
    58b4:	00 
  return (__m128) ((__v4sf)__A + (__v4sf)__B);
    58b5:	0f 28 f7             	movaps %xmm7,%xmm6
  return (__m128) ((__v4sf)__A - (__v4sf)__B);
    58b8:	0f 28 bc 24 90 01 00 	movaps 0x190(%rsp),%xmm7
    58bf:	00 
  return (__m128) ((__v4sf)__A * (__v4sf)__B);
    58c0:	0f 29 8c 24 60 01 00 	movaps %xmm1,0x160(%rsp)
    58c7:	00 
  return (__m128) ((__v4sf)__A - (__v4sf)__B);
    58c8:	44 0f 28 c7          	movaps %xmm7,%xmm8
  return (__m128) ((__v4sf)__A + (__v4sf)__B);
    58cc:	0f 58 fb             	addps  %xmm3,%xmm7
  return (__m128) ((__v4sf)__A - (__v4sf)__B);
    58cf:	44 0f 5c c3          	subps  %xmm3,%xmm8
  return (__m128) ((__v4sf)__A + (__v4sf)__B);
    58d3:	0f 28 df             	movaps %xmm7,%xmm3
  return (__m128) ((__v4sf)__A - (__v4sf)__B);
    58d6:	0f 28 bc 24 a0 01 00 	movaps 0x1a0(%rsp),%xmm7
    58dd:	00 
    58de:	44 0f 28 ff          	movaps %xmm7,%xmm15
  return (__m128) ((__v4sf)__A + (__v4sf)__B);
    58e2:	41 0f 58 f9          	addps  %xmm9,%xmm7
  return (__m128) ((__v4sf)__A - (__v4sf)__B);
    58e6:	45 0f 5c f9          	subps  %xmm9,%xmm15
  return (__m128) ((__v4sf)__A + (__v4sf)__B);
    58ea:	0f 28 cf             	movaps %xmm7,%xmm1
  return (__m128) ((__v4sf)__A - (__v4sf)__B);
    58ed:	0f 28 fe             	movaps %xmm6,%xmm7
    58f0:	41 0f 28 ef          	movaps %xmm15,%xmm5
  return (__m128) ((__v4sf)__A + (__v4sf)__B);
    58f4:	44 0f 28 bc 24 b0 01 	movaps 0x1b0(%rsp),%xmm15
    58fb:	00 00 
    58fd:	45 0f 28 cf          	movaps %xmm15,%xmm9
  return (__m128) ((__v4sf)__A - (__v4sf)__B);
    5901:	45 0f 5c fc          	subps  %xmm12,%xmm15
  return (__m128) ((__v4sf)__A + (__v4sf)__B);
    5905:	45 0f 58 cc          	addps  %xmm12,%xmm9
  return (__m128) ((__v4sf)__A * (__v4sf)__B);
    5909:	44 0f 28 24 24       	movaps (%rsp),%xmm12
  return (__m128) ((__v4sf)__A - (__v4sf)__B);
    590e:	41 0f 5c f9          	subps  %xmm9,%xmm7
  return (__m128) ((__v4sf)__A + (__v4sf)__B);
    5912:	41 0f 58 f1          	addps  %xmm9,%xmm6
    5916:	44 0f 28 cb          	movaps %xmm3,%xmm9
    591a:	44 0f 58 c9          	addps  %xmm1,%xmm9
  return (__m128) ((__v4sf)__A - (__v4sf)__B);
    591e:	0f 5c d9             	subps  %xmm1,%xmm3
    5921:	41 0f 28 cf          	movaps %xmm15,%xmm1
  return (__m128) ((__v4sf)__A + (__v4sf)__B);
    5925:	0f 58 cd             	addps  %xmm5,%xmm1
  return (__m128) ((__v4sf)__A * (__v4sf)__B);
    5928:	45 0f 28 fd          	movaps %xmm13,%xmm15
  return (__m128) ((__v4sf)__A - (__v4sf)__B);
    592c:	44 0f 28 f6          	movaps %xmm6,%xmm14
    5930:	44 0f 29 8c 24 80 01 	movaps %xmm9,0x180(%rsp)
    5937:	00 00 
    5939:	45 0f 5c f1          	subps  %xmm9,%xmm14
  return (__m128) ((__v4sf)__A + (__v4sf)__B);
    593d:	0f 58 df             	addps  %xmm7,%xmm3
  return (__m128) ((__v4sf)__A * (__v4sf)__B);
    5940:	0f 59 da             	mulps  %xmm2,%xmm3
  return (__m128) ((__v4sf)__A - (__v4sf)__B);
    5943:	45 0f 28 ce          	movaps %xmm14,%xmm9
  return (__m128) ((__v4sf)__A + (__v4sf)__B);
    5947:	45 0f 28 f0          	movaps %xmm8,%xmm14
  return (__m128) ((__v4sf)__A * (__v4sf)__B);
    594b:	44 0f 59 ca          	mulps  %xmm2,%xmm9
  return (__m128) ((__v4sf)__A + (__v4sf)__B);
    594f:	44 0f 58 c4          	addps  %xmm4,%xmm8
    5953:	44 0f 58 f5          	addps  %xmm5,%xmm14
  return (__m128) ((__v4sf)__A * (__v4sf)__B);
    5957:	41 0f 28 ed          	movaps %xmm13,%xmm5
    595b:	44 0f 29 8c 24 90 01 	movaps %xmm9,0x190(%rsp)
    5962:	00 00 
  return (__m128) ((__v4sf)__A + (__v4sf)__B);
    5964:	45 0f 28 ce          	movaps %xmm14,%xmm9
  return (__m128) ((__v4sf)__A * (__v4sf)__B);
    5968:	45 0f 28 f0          	movaps %xmm8,%xmm14
    596c:	45 0f 59 f4          	mulps  %xmm12,%xmm14
    5970:	44 0f 59 ca          	mulps  %xmm2,%xmm9
  return (__m128) ((__v4sf)__A - (__v4sf)__B);
    5974:	41 0f 5c ce          	subps  %xmm14,%xmm1
  return (__m128) ((__v4sf)__A * (__v4sf)__B);
    5978:	0f 59 e9             	mulps  %xmm1,%xmm5
  return (__m128) ((__v4sf)__A + (__v4sf)__B);
    597b:	41 0f 58 e8          	addps  %xmm8,%xmm5
  return (__m128) ((__v4sf)__A * (__v4sf)__B);
    597f:	44 0f 28 f5          	movaps %xmm5,%xmm14
    5983:	45 0f 59 f4          	mulps  %xmm12,%xmm14
  return (__m128) ((__v4sf)__A - (__v4sf)__B);
    5987:	41 0f 5c ce          	subps  %xmm14,%xmm1
    598b:	44 0f 28 f4          	movaps %xmm4,%xmm14
  return (__m128) ((__v4sf)__A + (__v4sf)__B);
    598f:	41 0f 58 e1          	addps  %xmm9,%xmm4
  return (__m128) ((__v4sf)__A - (__v4sf)__B);
    5993:	45 0f 5c f1          	subps  %xmm9,%xmm14
    5997:	45 0f 28 c6          	movaps %xmm14,%xmm8
  return (__m128) ((__v4sf)__A + (__v4sf)__B);
    599b:	44 0f 28 f5          	movaps %xmm5,%xmm14
    599f:	44 0f 58 f4          	addps  %xmm4,%xmm14
  return (__m128) ((__v4sf)__A - (__v4sf)__B);
    59a3:	0f 5c e5             	subps  %xmm5,%xmm4
  return (__m128) ((__v4sf)__A * (__v4sf)__B);
    59a6:	0f 59 64 24 60       	mulps  0x60(%rsp),%xmm4
  return (__m128) ((__v4sf)__A + (__v4sf)__B);
    59ab:	45 0f 28 e6          	movaps %xmm14,%xmm12
    59af:	44 0f 28 f7          	movaps %xmm7,%xmm14
  return (__m128) ((__v4sf)__A - (__v4sf)__B);
    59b3:	0f 5c fb             	subps  %xmm3,%xmm7
  return (__m128) ((__v4sf)__A + (__v4sf)__B);
    59b6:	44 0f 58 f3          	addps  %xmm3,%xmm14
  return (__m128) ((__v4sf)__A * (__v4sf)__B);
    59ba:	0f 28 5c 24 50       	movaps 0x50(%rsp),%xmm3
    59bf:	45 0f 59 e3          	mulps  %xmm11,%xmm12
    59c3:	0f 29 a4 24 e0 01 00 	movaps %xmm4,0x1e0(%rsp)
    59ca:	00 
  return (__m128) ((__v4sf)__A - (__v4sf)__B);
    59cb:	0f 28 a4 24 f0 01 00 	movaps 0x1f0(%rsp),%xmm4
    59d2:	00 
  return (__m128) ((__v4sf)__A * (__v4sf)__B);
    59d3:	0f 59 df             	mulps  %xmm7,%xmm3
    59d6:	45 0f 28 de          	movaps %xmm14,%xmm11
  return (__m128) ((__v4sf)__A - (__v4sf)__B);
    59da:	45 0f 28 f0          	movaps %xmm8,%xmm14
    59de:	0f 28 fc             	movaps %xmm4,%xmm7
  return (__m128) ((__v4sf)__A * (__v4sf)__B);
    59e1:	45 0f 59 da          	mulps  %xmm10,%xmm11
  return (__m128) ((__v4sf)__A - (__v4sf)__B);
    59e5:	44 0f 5c f1          	subps  %xmm1,%xmm14
  return (__m128) ((__v4sf)__A + (__v4sf)__B);
    59e9:	41 0f 58 c8          	addps  %xmm8,%xmm1
  return (__m128) ((__v4sf)__A - (__v4sf)__B);
    59ed:	44 0f 28 84 24 40 02 	movaps 0x240(%rsp),%xmm8
    59f4:	00 00 
  return (__m128) ((__v4sf)__A * (__v4sf)__B);
    59f6:	0f 59 4c 24 40       	mulps  0x40(%rsp),%xmm1
    59fb:	0f 29 9c 24 d0 01 00 	movaps %xmm3,0x1d0(%rsp)
    5a02:	00 
  return (__m128) ((__v4sf)__A - (__v4sf)__B);
    5a03:	0f 28 9c 24 50 02 00 	movaps 0x250(%rsp),%xmm3
    5a0a:	00 
  return (__m128) ((__v4sf)__A * (__v4sf)__B);
    5a0b:	44 0f 29 9c 24 a0 01 	movaps %xmm11,0x1a0(%rsp)
    5a12:	00 00 
  return (__m128) ((__v4sf)__A + (__v4sf)__B);
    5a14:	0f 58 e3             	addps  %xmm3,%xmm4
  return (__m128) ((__v4sf)__A - (__v4sf)__B);
    5a17:	0f 5c fb             	subps  %xmm3,%xmm7
  return (__m128) ((__v4sf)__A * (__v4sf)__B);
    5a1a:	44 0f 28 5c 24 30    	movaps 0x30(%rsp),%xmm11
    5a20:	0f 29 8c 24 c0 01 00 	movaps %xmm1,0x1c0(%rsp)
    5a27:	00 
    5a28:	45 0f 59 de          	mulps  %xmm14,%xmm11
  return (__m128) ((__v4sf)__A + (__v4sf)__B);
    5a2c:	0f 28 dc             	movaps %xmm4,%xmm3
  return (__m128) ((__v4sf)__A - (__v4sf)__B);
    5a2f:	0f 28 a4 24 00 02 00 	movaps 0x200(%rsp),%xmm4
    5a36:	00 
    5a37:	0f 28 ef             	movaps %xmm7,%xmm5
    5a3a:	44 0f 28 f3          	movaps %xmm3,%xmm14
    5a3e:	44 0f 28 cc          	movaps %xmm4,%xmm9
  return (__m128) ((__v4sf)__A + (__v4sf)__B);
    5a42:	41 0f 58 e0          	addps  %xmm8,%xmm4
  return (__m128) ((__v4sf)__A - (__v4sf)__B);
    5a46:	45 0f 5c c8          	subps  %xmm8,%xmm9
  return (__m128) ((__v4sf)__A * (__v4sf)__B);
    5a4a:	44 0f 29 9c 24 b0 01 	movaps %xmm11,0x1b0(%rsp)
    5a51:	00 00 
  return (__m128) ((__v4sf)__A + (__v4sf)__B);
    5a53:	44 0f 28 dc          	movaps %xmm4,%xmm11
  return (__m128) ((__v4sf)__A - (__v4sf)__B);
    5a57:	0f 28 a4 24 10 02 00 	movaps 0x210(%rsp),%xmm4
    5a5e:	00 
    5a5f:	0f 28 bc 24 30 02 00 	movaps 0x230(%rsp),%xmm7
    5a66:	00 
  return (__m128) ((__v4sf)__A + (__v4sf)__B);
    5a67:	0f 58 b4 24 80 01 00 	addps  0x180(%rsp),%xmm6
    5a6e:	00 
    5a6f:	0f 58 84 24 10 01 00 	addps  0x110(%rsp),%xmm0
    5a76:	00 
    5a77:	44 0f 28 ac 24 20 02 	movaps 0x220(%rsp),%xmm13
    5a7e:	00 00 
  return (__m128) ((__v4sf)__A - (__v4sf)__B);
    5a80:	44 0f 28 d4          	movaps %xmm4,%xmm10
  return (__m128) ((__v4sf)__A + (__v4sf)__B);
    5a84:	0f 58 e7             	addps  %xmm7,%xmm4
  return (__m128) ((__v4sf)__A - (__v4sf)__B);
    5a87:	44 0f 5c d7          	subps  %xmm7,%xmm10
  return (__m128) ((__v4sf)__A + (__v4sf)__B);
    5a8b:	0f 28 bc 24 a0 00 00 	movaps 0xa0(%rsp),%xmm7
    5a92:	00 
    5a93:	41 0f 58 fd          	addps  %xmm13,%xmm7
    5a97:	0f 28 cc             	movaps %xmm4,%xmm1
  return (__m128) ((__v4sf)__A - (__v4sf)__B);
    5a9a:	44 0f 5c ac 24 a0 00 	subps  0xa0(%rsp),%xmm13
    5aa1:	00 00 
    5aa3:	44 0f 5c f7          	subps  %xmm7,%xmm14
  return (__m128) ((__v4sf)__A + (__v4sf)__B);
    5aa7:	0f 58 df             	addps  %xmm7,%xmm3
    5aaa:	41 0f 28 fb          	movaps %xmm11,%xmm7
    5aae:	0f 58 f9             	addps  %xmm1,%xmm7
  return (__m128) ((__v4sf)__A - (__v4sf)__B);
    5ab1:	44 0f 5c d9          	subps  %xmm1,%xmm11
    5ab5:	41 0f 28 cd          	movaps %xmm13,%xmm1
  return (__m128) ((__v4sf)__A + (__v4sf)__B);
    5ab9:	41 0f 58 ca          	addps  %xmm10,%xmm1
  return (__m128) ((__v4sf)__A - (__v4sf)__B);
    5abd:	41 0f 28 e6          	movaps %xmm14,%xmm4
    5ac1:	44 0f 28 f3          	movaps %xmm3,%xmm14
    5ac5:	44 0f 5c f7          	subps  %xmm7,%xmm14
    5ac9:	0f 29 bc 24 f0 01 00 	movaps %xmm7,0x1f0(%rsp)
    5ad0:	00 
  return (__m128) ((__v4sf)__A + (__v4sf)__B);
    5ad1:	44 0f 58 dc          	addps  %xmm4,%xmm11
    5ad5:	0f 58 9c 24 f0 01 00 	addps  0x1f0(%rsp),%xmm3
    5adc:	00 
  return (__m128) ((__v4sf)__A * (__v4sf)__B);
    5add:	44 0f 59 da          	mulps  %xmm2,%xmm11
  return (__m128) ((__v4sf)__A - (__v4sf)__B);
    5ae1:	41 0f 28 fe          	movaps %xmm14,%xmm7
  return (__m128) ((__v4sf)__A + (__v4sf)__B);
    5ae5:	45 0f 28 f1          	movaps %xmm9,%xmm14
    5ae9:	45 0f 58 f2          	addps  %xmm10,%xmm14
    5aed:	44 0f 58 cd          	addps  %xmm5,%xmm9
  return (__m128) ((__v4sf)__A * (__v4sf)__B);
    5af1:	44 0f 28 54 24 10    	movaps 0x10(%rsp),%xmm10
    5af7:	0f 59 fa             	mulps  %xmm2,%xmm7
  return (__m128) ((__v4sf)__A + (__v4sf)__B);
    5afa:	45 0f 28 c6          	movaps %xmm14,%xmm8
  return (__m128) ((__v4sf)__A * (__v4sf)__B);
    5afe:	44 0f 28 34 24       	movaps (%rsp),%xmm14
    5b03:	44 0f 59 c2          	mulps  %xmm2,%xmm8
    5b07:	45 0f 59 f1          	mulps  %xmm9,%xmm14
  return (__m128) ((__v4sf)__A - (__v4sf)__B);
    5b0b:	41 0f 5c ce          	subps  %xmm14,%xmm1
  return (__m128) ((__v4sf)__A * (__v4sf)__B);
    5b0f:	44 0f 28 34 24       	movaps (%rsp),%xmm14
    5b14:	44 0f 59 f9          	mulps  %xmm1,%xmm15
    5b18:	45 0f 28 ef          	movaps %xmm15,%xmm13
  return (__m128) ((__v4sf)__A + (__v4sf)__B);
    5b1c:	45 0f 58 e9          	addps  %xmm9,%xmm13
  return (__m128) ((__v4sf)__A * (__v4sf)__B);
    5b20:	44 0f 28 4c 24 20    	movaps 0x20(%rsp),%xmm9
    5b26:	45 0f 59 f5          	mulps  %xmm13,%xmm14
  return (__m128) ((__v4sf)__A - (__v4sf)__B);
    5b2a:	41 0f 5c ce          	subps  %xmm14,%xmm1
    5b2e:	44 0f 28 f5          	movaps %xmm5,%xmm14
  return (__m128) ((__v4sf)__A + (__v4sf)__B);
    5b32:	41 0f 58 e8          	addps  %xmm8,%xmm5
  return (__m128) ((__v4sf)__A - (__v4sf)__B);
    5b36:	45 0f 5c f0          	subps  %xmm8,%xmm14
  return (__m128) ((__v4sf)__A * (__v4sf)__B);
    5b3a:	44 0f 28 44 24 30    	movaps 0x30(%rsp),%xmm8
  return (__m128) ((__v4sf)__A - (__v4sf)__B);
    5b40:	45 0f 28 fe          	movaps %xmm14,%xmm15
  return (__m128) ((__v4sf)__A + (__v4sf)__B);
    5b44:	45 0f 28 f5          	movaps %xmm13,%xmm14
    5b48:	44 0f 58 f5          	addps  %xmm5,%xmm14
  return (__m128) ((__v4sf)__A - (__v4sf)__B);
    5b4c:	41 0f 5c ed          	subps  %xmm13,%xmm5
  return (__m128) ((__v4sf)__A * (__v4sf)__B);
    5b50:	0f 59 6c 24 60       	mulps  0x60(%rsp),%xmm5
  return (__m128) ((__v4sf)__A + (__v4sf)__B);
    5b55:	44 0f 28 ac 24 c0 00 	movaps 0xc0(%rsp),%xmm13
    5b5c:	00 00 
  return (__m128) ((__v4sf)__A * (__v4sf)__B);
    5b5e:	45 0f 59 d6          	mulps  %xmm14,%xmm10
  return (__m128) ((__v4sf)__A + (__v4sf)__B);
    5b62:	44 0f 28 f4          	movaps %xmm4,%xmm14
  return (__m128) ((__v4sf)__A - (__v4sf)__B);
    5b66:	41 0f 5c e3          	subps  %xmm11,%xmm4
  return (__m128) ((__v4sf)__A + (__v4sf)__B);
    5b6a:	45 0f 58 f3          	addps  %xmm11,%xmm14
  return (__m128) ((__v4sf)__A * (__v4sf)__B);
    5b6e:	0f 59 64 24 50       	mulps  0x50(%rsp),%xmm4
  return (__m128) ((__v4sf)__A + (__v4sf)__B);
    5b73:	44 0f 28 9c 24 80 00 	movaps 0x80(%rsp),%xmm11
    5b7a:	00 00 
    5b7c:	45 0f 58 dd          	addps  %xmm13,%xmm11
  return (__m128) ((__v4sf)__A * (__v4sf)__B);
    5b80:	45 0f 59 ce          	mulps  %xmm14,%xmm9
  return (__m128) ((__v4sf)__A - (__v4sf)__B);
    5b84:	45 0f 28 f7          	movaps %xmm15,%xmm14
  return (__m128) ((__v4sf)__A + (__v4sf)__B);
    5b88:	41 0f 58 da          	addps  %xmm10,%xmm3
  return (__m128) ((__v4sf)__A - (__v4sf)__B);
    5b8c:	44 0f 5c f1          	subps  %xmm1,%xmm14
  return (__m128) ((__v4sf)__A + (__v4sf)__B);
    5b90:	41 0f 58 cf          	addps  %xmm15,%xmm1
  *(__m128_u *)__P = __A;
    5b94:	44 0f 29 98 80 0b 00 	movaps %xmm11,0xb80(%rax)
    5b9b:	00 
  return (__m128) ((__v4sf)__A * (__v4sf)__B);
    5b9c:	0f 59 4c 24 40       	mulps  0x40(%rsp),%xmm1
  return (__m128) ((__v4sf)__A + (__v4sf)__B);
    5ba1:	44 0f 28 bc 24 30 01 	movaps 0x130(%rsp),%xmm15
    5ba8:	00 00 
    5baa:	44 0f 28 9c 24 00 01 	movaps 0x100(%rsp),%xmm11
    5bb1:	00 00 
    5bb3:	0f 58 f3             	addps  %xmm3,%xmm6
    5bb6:	41 0f 58 dc          	addps  %xmm12,%xmm3
  return (__m128) ((__v4sf)__A * (__v4sf)__B);
    5bba:	45 0f 59 c6          	mulps  %xmm14,%xmm8
  return (__m128) ((__v4sf)__A + (__v4sf)__B);
    5bbe:	44 0f 28 b4 24 a0 01 	movaps 0x1a0(%rsp),%xmm14
    5bc5:	00 00 
    5bc7:	41 0f 58 c7          	addps  %xmm15,%xmm0
    5bcb:	45 0f 58 d1          	addps  %xmm9,%xmm10
  *(__m128_u *)__P = __A;
    5bcf:	0f 11 98 58 0c 00 00 	movups %xmm3,0xc58(%rax)
  return (__m128) ((__v4sf)__A + (__v4sf)__B);
    5bd6:	0f 28 9c 24 d0 00 00 	movaps 0xd0(%rsp),%xmm3
    5bdd:	00 
  *(__m128_u *)__P = __A;
    5bde:	0f 29 80 10 0c 00 00 	movaps %xmm0,0xc10(%rax)
  return (__m128) ((__v4sf)__A + (__v4sf)__B);
    5be5:	45 0f 58 e2          	addps  %xmm10,%xmm12
    5be9:	45 0f 58 d6          	addps  %xmm14,%xmm10
    5bed:	0f 28 c3             	movaps %xmm3,%xmm0
  *(__m128_u *)__P = __A;
    5bf0:	0f 11 b0 c8 0b 00 00 	movups %xmm6,0xbc8(%rax)
  return (__m128) ((__v4sf)__A + (__v4sf)__B);
    5bf7:	45 0f 58 c8          	addps  %xmm8,%xmm9
    5bfb:	44 0f 58 c7          	addps  %xmm7,%xmm8
    5bff:	41 0f 58 c3          	addps  %xmm11,%xmm0
  return (__m128) ((__v4sf)__A * (__v4sf)__B);
    5c03:	0f 59 44 24 10       	mulps  0x10(%rsp),%xmm0
  return (__m128) ((__v4sf)__A + (__v4sf)__B);
    5c08:	0f 58 f9             	addps  %xmm1,%xmm7
  *(__m128_u *)__P = __A;
    5c0b:	44 0f 11 a0 e8 0c 00 	movups %xmm12,0xce8(%rax)
    5c12:	00 
  return (__m128) ((__v4sf)__A + (__v4sf)__B);
    5c13:	0f 58 cc             	addps  %xmm4,%xmm1
    5c16:	0f 58 e5             	addps  %xmm5,%xmm4
    5c19:	44 0f 28 a4 24 40 01 	movaps 0x140(%rsp),%xmm12
    5c20:	00 00 
  *(__m128_u *)__P = __A;
    5c22:	44 0f 11 90 78 0d 00 	movups %xmm10,0xd78(%rax)
    5c29:	00 
    5c2a:	0f 29 80 a0 0c 00 00 	movaps %xmm0,0xca0(%rax)
  return (__m128) ((__v4sf)__A + (__v4sf)__B);
    5c31:	41 0f 28 c7          	movaps %xmm15,%xmm0
    5c35:	41 0f 58 c4          	addps  %xmm12,%xmm0
  *(__m128_u *)__P = __A;
    5c39:	0f 29 80 30 0d 00 00 	movaps %xmm0,0xd30(%rax)
  return (__m128) ((__v4sf)__A + (__v4sf)__B);
    5c40:	0f 28 b4 24 b0 00 00 	movaps 0xb0(%rsp),%xmm6
    5c47:	00 
    5c48:	0f 28 84 24 90 00 00 	movaps 0x90(%rsp),%xmm0
    5c4f:	00 
    5c50:	44 0f 28 94 24 50 01 	movaps 0x150(%rsp),%xmm10
    5c57:	00 00 
  return (__m128) ((__v4sf)__A - (__v4sf)__B);
    5c59:	44 0f 28 bc 24 f0 00 	movaps 0xf0(%rsp),%xmm15
    5c60:	00 00 
  return (__m128) ((__v4sf)__A + (__v4sf)__B);
    5c62:	0f 58 c6             	addps  %xmm6,%xmm0
  return (__m128) ((__v4sf)__A * (__v4sf)__B);
    5c65:	0f 59 44 24 20       	mulps  0x20(%rsp),%xmm0
  *(__m128_u *)__P = __A;
    5c6a:	0f 29 80 c0 0d 00 00 	movaps %xmm0,0xdc0(%rax)
  return (__m128) ((__v4sf)__A + (__v4sf)__B);
    5c71:	41 0f 28 c6          	movaps %xmm14,%xmm0
    5c75:	44 0f 28 b4 24 b0 01 	movaps 0x1b0(%rsp),%xmm14
    5c7c:	00 00 
    5c7e:	41 0f 58 c1          	addps  %xmm9,%xmm0
    5c82:	45 0f 58 ce          	addps  %xmm14,%xmm9
  *(__m128_u *)__P = __A;
    5c86:	0f 11 80 08 0e 00 00 	movups %xmm0,0xe08(%rax)
  return (__m128) ((__v4sf)__A + (__v4sf)__B);
    5c8d:	41 0f 28 c4          	movaps %xmm12,%xmm0
  return (__m128) ((__v4sf)__A - (__v4sf)__B);
    5c91:	44 0f 28 a4 24 e0 00 	movaps 0xe0(%rsp),%xmm12
    5c98:	00 00 
  return (__m128) ((__v4sf)__A + (__v4sf)__B);
    5c9a:	41 0f 58 c2          	addps  %xmm10,%xmm0
  *(__m128_u *)__P = __A;
    5c9e:	44 0f 11 88 98 0e 00 	movups %xmm9,0xe98(%rax)
    5ca5:	00 
  return (__m128) ((__v4sf)__A + (__v4sf)__B);
    5ca6:	44 0f 28 8c 24 90 01 	movaps 0x190(%rsp),%xmm9
    5cad:	00 00 
  *(__m128_u *)__P = __A;
    5caf:	0f 29 80 50 0e 00 00 	movaps %xmm0,0xe50(%rax)
  return (__m128) ((__v4sf)__A - (__v4sf)__B);
    5cb6:	41 0f 28 c7          	movaps %xmm15,%xmm0
    5cba:	41 0f 5c c4          	subps  %xmm12,%xmm0
  return (__m128) ((__v4sf)__A * (__v4sf)__B);
    5cbe:	0f 59 44 24 30       	mulps  0x30(%rsp),%xmm0
  *(__m128_u *)__P = __A;
    5cc3:	0f 29 80 e0 0e 00 00 	movaps %xmm0,0xee0(%rax)
  return (__m128) ((__v4sf)__A + (__v4sf)__B);
    5cca:	41 0f 28 c6          	movaps %xmm14,%xmm0
    5cce:	41 0f 58 c0          	addps  %xmm8,%xmm0
    5cd2:	45 0f 58 c1          	addps  %xmm9,%xmm8
  *(__m128_u *)__P = __A;
    5cd6:	0f 11 80 28 0f 00 00 	movups %xmm0,0xf28(%rax)
  return (__m128) ((__v4sf)__A + (__v4sf)__B);
    5cdd:	41 0f 28 c2          	movaps %xmm10,%xmm0
    5ce1:	44 0f 28 94 24 20 01 	movaps 0x120(%rsp),%xmm10
    5ce8:	00 00 
  *(__m128_u *)__P = __A;
    5cea:	44 0f 11 80 b8 0f 00 	movups %xmm8,0xfb8(%rax)
    5cf1:	00 
  return (__m128) ((__v4sf)__A + (__v4sf)__B);
    5cf2:	41 0f 58 c2          	addps  %xmm10,%xmm0
  *(__m128_u *)__P = __A;
    5cf6:	0f 29 80 70 0f 00 00 	movaps %xmm0,0xf70(%rax)
  return (__m128) ((__v4sf)__A - (__v4sf)__B);
    5cfd:	41 0f 28 c5          	movaps %xmm13,%xmm0
    5d01:	0f 5c 84 24 80 00 00 	subps  0x80(%rsp),%xmm0
    5d08:	00 
  return (__m128) ((__v4sf)__A + (__v4sf)__B);
    5d09:	44 0f 28 ac 24 60 01 	movaps 0x160(%rsp),%xmm13
    5d10:	00 00 
  return (__m128) ((__v4sf)__A * (__v4sf)__B);
    5d12:	0f 59 c2             	mulps  %xmm2,%xmm0
  *(__m128_u *)__P = __A;
    5d15:	0f 29 80 00 10 00 00 	movaps %xmm0,0x1000(%rax)
  return (__m128) ((__v4sf)__A + (__v4sf)__B);
    5d1c:	41 0f 28 c1          	movaps %xmm9,%xmm0
    5d20:	0f 58 c7             	addps  %xmm7,%xmm0
  *(__m128_u *)__P = __A;
    5d23:	0f 11 80 48 10 00 00 	movups %xmm0,0x1048(%rax)
  return (__m128) ((__v4sf)__A + (__v4sf)__B);
    5d2a:	41 0f 28 c2          	movaps %xmm10,%xmm0
    5d2e:	44 0f 28 94 24 c0 01 	movaps 0x1c0(%rsp),%xmm10
    5d35:	00 00 
    5d37:	41 0f 58 c5          	addps  %xmm13,%xmm0
    5d3b:	41 0f 58 fa          	addps  %xmm10,%xmm7
  *(__m128_u *)__P = __A;
    5d3f:	0f 29 80 90 10 00 00 	movaps %xmm0,0x1090(%rax)
  return (__m128) ((__v4sf)__A + (__v4sf)__B);
    5d46:	41 0f 28 c4          	movaps %xmm12,%xmm0
    5d4a:	44 0f 28 a4 24 d0 01 	movaps 0x1d0(%rsp),%xmm12
    5d51:	00 00 
    5d53:	41 0f 58 c7          	addps  %xmm15,%xmm0
  return (__m128) ((__v4sf)__A * (__v4sf)__B);
    5d57:	0f 59 44 24 40       	mulps  0x40(%rsp),%xmm0
  *(__m128_u *)__P = __A;
    5d5c:	0f 11 b8 d8 10 00 00 	movups %xmm7,0x10d8(%rax)
  return (__m128) ((__v4sf)__A + (__v4sf)__B);
    5d63:	0f 28 bc 24 70 01 00 	movaps 0x170(%rsp),%xmm7
    5d6a:	00 
  *(__m128_u *)__P = __A;
    5d6b:	0f 29 80 20 11 00 00 	movaps %xmm0,0x1120(%rax)
  return (__m128) ((__v4sf)__A + (__v4sf)__B);
    5d72:	41 0f 28 c2          	movaps %xmm10,%xmm0
    5d76:	0f 58 c1             	addps  %xmm1,%xmm0
    5d79:	41 0f 58 cc          	addps  %xmm12,%xmm1
  *(__m128_u *)__P = __A;
    5d7d:	0f 11 80 68 11 00 00 	movups %xmm0,0x1168(%rax)
  return (__m128) ((__v4sf)__A + (__v4sf)__B);
    5d84:	41 0f 28 c5          	movaps %xmm13,%xmm0
    5d88:	0f 58 c7             	addps  %xmm7,%xmm0
  *(__m128_u *)__P = __A;
    5d8b:	0f 11 88 f8 11 00 00 	movups %xmm1,0x11f8(%rax)
    5d92:	0f 29 80 b0 11 00 00 	movaps %xmm0,0x11b0(%rax)
  return (__m128) ((__v4sf)__A - (__v4sf)__B);
    5d99:	0f 5c b4 24 90 00 00 	subps  0x90(%rsp),%xmm6
    5da0:	00 
  return (__m128) ((__v4sf)__A * (__v4sf)__B);
    5da1:	0f 28 44 24 50       	movaps 0x50(%rsp),%xmm0
  return (__m128) ((__v4sf)__A + (__v4sf)__B);
    5da6:	0f 58 b8 f0 13 00 00 	addps  0x13f0(%rax),%xmm7
  *(__m128_u *)__P = __A;
    5dad:	0f 11 a8 38 14 00 00 	movups %xmm5,0x1438(%rax)
  return (__m128) ((__v4sf)__A * (__v4sf)__B);
    5db4:	0f 59 c6             	mulps  %xmm6,%xmm0
  return (__m128) ((__v4sf)__A + (__v4sf)__B);
    5db7:	0f 28 b4 24 e0 01 00 	movaps 0x1e0(%rsp),%xmm6
    5dbe:	00 
  *(__m128_u *)__P = __A;
    5dbf:	0f 29 b8 d0 12 00 00 	movaps %xmm7,0x12d0(%rax)
    5dc6:	0f 29 80 40 12 00 00 	movaps %xmm0,0x1240(%rax)
  return (__m128) ((__v4sf)__A + (__v4sf)__B);
    5dcd:	41 0f 28 c4          	movaps %xmm12,%xmm0
    5dd1:	0f 58 c4             	addps  %xmm4,%xmm0
    5dd4:	0f 58 e6             	addps  %xmm6,%xmm4
    5dd7:	0f 58 f5             	addps  %xmm5,%xmm6
  *(__m128_u *)__P = __A;
    5dda:	0f 11 80 88 12 00 00 	movups %xmm0,0x1288(%rax)
  return (__m128) ((__v4sf)__A - (__v4sf)__B);
    5de1:	41 0f 28 c3          	movaps %xmm11,%xmm0
    5de5:	0f 5c c3             	subps  %xmm3,%xmm0
  return (__m128) ((__v4sf)__A * (__v4sf)__B);
    5de8:	0f 59 44 24 60       	mulps  0x60(%rsp),%xmm0
  *(__m128_u *)__P = __A;
    5ded:	0f 11 a0 18 13 00 00 	movups %xmm4,0x1318(%rax)
    5df4:	0f 11 b0 a8 13 00 00 	movups %xmm6,0x13a8(%rax)
    5dfb:	0f 29 80 60 13 00 00 	movaps %xmm0,0x1360(%rax)
    5e02:	48 39 c8             	cmp    %rcx,%rax
    5e05:	0f 85 bd f3 ff ff    	jne    51c8 <mp3dec_decode_frame+0x1408>
    for (i = 0; i < nch; i++)
    5e0b:	48 81 c6 40 02 00 00 	add    $0x240,%rsi
    5e12:	48 81 c1 00 09 00 00 	add    $0x900,%rcx
    5e19:	48 39 f7             	cmp    %rsi,%rdi
    5e1c:	0f 85 8b f3 ff ff    	jne    51ad <mp3dec_decode_frame+0x13ed>
    5e22:	b9 e0 01 00 00       	mov    $0x1e0,%ecx
    5e27:	4c 89 ce             	mov    %r9,%rsi
    5e2a:	4c 89 44 24 50       	mov    %r8,0x50(%rsp)
    5e2f:	4d 89 f7             	mov    %r14,%r15
    5e32:	48 8d 94 24 30 26 00 	lea    0x2630(%rsp),%rdx
    5e39:	00 
    5e3a:	44 89 64 24 20       	mov    %r12d,0x20(%rsp)
    5e3f:	4d 89 ce             	mov    %r9,%r14
    5e42:	48 89 d7             	mov    %rdx,%rdi
    5e45:	89 5c 24 30          	mov    %ebx,0x30(%rsp)
    5e49:	49 89 d4             	mov    %rdx,%r12
    5e4c:	f3 48 a5             	rep movsq %ds:(%rsi),%es:(%rdi)
    for (i = 0; i < nbands; i += 2)
    5e4f:	89 e9                	mov    %ebp,%ecx
    5e51:	48 8b b4 24 00 04 00 	mov    0x400(%rsp),%rsi
    5e58:	00 
    5e59:	44 89 6c 24 40       	mov    %r13d,0x40(%rsp)
    5e5e:	c1 e1 06             	shl    $0x6,%ecx
    5e61:	4d 89 c5             	mov    %r8,%r13
    5e64:	48 63 c9             	movslq %ecx,%rcx
    5e67:	48 89 f3             	mov    %rsi,%rbx
    5e6a:	48 8d 04 09          	lea    (%rcx,%rcx,1),%rax
    5e6e:	48 89 04 24          	mov    %rax,(%rsp)
    5e72:	48 8d 84 24 c0 13 00 	lea    0x13c0(%rsp),%rax
    5e79:	00 
    5e7a:	48 89 44 24 10       	mov    %rax,0x10(%rsp)
        mp3d_synth(grbuf + i, pcm + 32*nch*i, nch, lins + i*64);
    5e7f:	4c 89 e1             	mov    %r12,%rcx
    5e82:	48 89 de             	mov    %rbx,%rsi
    5e85:	4c 89 ef             	mov    %r13,%rdi
    5e88:	89 ea                	mov    %ebp,%edx
    5e8a:	e8 31 da ff ff       	call   38c0 <mp3d_synth>
    for (i = 0; i < nbands; i += 2)
    5e8f:	48 8b 04 24          	mov    (%rsp),%rax
    5e93:	49 83 c5 08          	add    $0x8,%r13
    5e97:	49 81 c4 00 02 00 00 	add    $0x200,%r12
    5e9e:	48 01 c3             	add    %rax,%rbx
    5ea1:	48 8b 44 24 10       	mov    0x10(%rsp),%rax
    5ea6:	49 39 c5             	cmp    %rax,%r13
    5ea9:	75 d4                	jne    5e7f <mp3dec_decode_frame+0x20bf>
    if (nch == 1)
    5eab:	4d 89 f1             	mov    %r14,%r9
    5eae:	44 8b 64 24 20       	mov    0x20(%rsp),%r12d
    5eb3:	8b 5c 24 30          	mov    0x30(%rsp),%ebx
    5eb7:	4d 89 fe             	mov    %r15,%r14
    5eba:	44 8b 6c 24 40       	mov    0x40(%rsp),%r13d
    5ebf:	4c 8b 44 24 50       	mov    0x50(%rsp),%r8
    5ec4:	83 fd 01             	cmp    $0x1,%ebp
    5ec7:	0f 85 35 17 00 00    	jne    7602 <mp3dec_decode_frame+0x3842>
    5ecd:	4c 89 c9             	mov    %r9,%rcx
    5ed0:	48 8d 84 24 30 32 00 	lea    0x3230(%rsp),%rax
    5ed7:	00 
    5ed8:	48 8d 94 24 30 41 00 	lea    0x4130(%rsp),%rdx
    5edf:	00 
            qmf_state[i] = lins[nbands*64 + i];
    5ee0:	0f 28 08             	movaps (%rax),%xmm1
    5ee3:	0f 28 40 10          	movaps 0x10(%rax),%xmm0
        for (i = 0; i < 15*64; i += 2)
    5ee7:	48 83 c0 20          	add    $0x20,%rax
    5eeb:	48 83 c1 20          	add    $0x20,%rcx
            qmf_state[i] = lins[nbands*64 + i];
    5eef:	f3 0f 11 49 e0       	movss  %xmm1,-0x20(%rcx)
    5ef4:	0f 15 c9             	unpckhps %xmm1,%xmm1
    5ef7:	f3 0f 11 41 f0       	movss  %xmm0,-0x10(%rcx)
    5efc:	0f 15 c0             	unpckhps %xmm0,%xmm0
    5eff:	f3 0f 11 49 e8       	movss  %xmm1,-0x18(%rcx)
    5f04:	f3 0f 11 41 f8       	movss  %xmm0,-0x8(%rcx)
        for (i = 0; i < 15*64; i += 2)
    5f09:	48 39 d0             	cmp    %rdx,%rax
    5f0c:	75 d2                	jne    5ee0 <mp3dec_decode_frame+0x2120>
  return __builtin___memset_chk (__dest, __ch, __len,
    5f0e:	31 c0                	xor    %eax,%eax
    5f10:	b9 40 02 00 00       	mov    $0x240,%ecx
    5f15:	4c 89 c7             	mov    %r8,%rdi
                i = 0;
    5f18:	31 ed                	xor    %ebp,%ebp
    5f1a:	f3 48 ab             	rep stos %rax,%es:(%rdi)
                pcm += 384*info->channels;
    5f1d:	48 8b 84 24 f8 03 00 	mov    0x3f8(%rsp),%rax
    5f24:	00 
    5f25:	48 8b 94 24 00 04 00 	mov    0x400(%rsp),%rdx
    5f2c:	00 
    5f2d:	8b 40 08             	mov    0x8(%rax),%eax
    5f30:	8d 04 40             	lea    (%rax,%rax,2),%eax
    5f33:	c1 e0 07             	shl    $0x7,%eax
    5f36:	48 98                	cltq
    5f38:	48 8d 04 42          	lea    (%rdx,%rax,2),%rax
    5f3c:	48 89 84 24 00 04 00 	mov    %rax,0x400(%rsp)
    5f43:	00 
    5f44:	e9 b0 ec ff ff       	jmp    4bf9 <mp3dec_decode_frame+0xe39>
    next = *p++ & (255 >> s);
    5f49:	44 8b 54 24 70       	mov    0x70(%rsp),%r10d
    5f4e:	8b 34 24             	mov    (%rsp),%esi
    for (i = 0; i < 2*sci->total_bands; i++)
    5f51:	45 31 db             	xor    %r11d,%r11d
    next = *p++ & (255 >> s);
    5f54:	bb ff 00 00 00       	mov    $0xff,%ebx
    5f59:	48 8d 94 24 b2 07 00 	lea    0x7b2(%rsp),%rdx
    5f60:	00 
        sci->scfcod[i] = sci->bitalloc[i] ? HDR_IS_LAYER_1(hdr) ? 2 : get_bits(bs, 2) : 6;
    5f61:	80 7a c0 00          	cmpb   $0x0,-0x40(%rdx)
    5f65:	b8 06 00 00 00       	mov    $0x6,%eax
    5f6a:	74 3c                	je     5fa8 <mp3dec_decode_frame+0x21e8>
    if ((bs->pos += n) > bs->limit)
    5f6c:	8d 7e 02             	lea    0x2(%rsi),%edi
    5f6f:	31 c0                	xor    %eax,%eax
    5f71:	41 39 fe             	cmp    %edi,%r14d
    5f74:	7c 30                	jl     5fa6 <mp3dec_decode_frame+0x21e6>
    5f76:	89 f1                	mov    %esi,%ecx
    const uint8_t *p = bs->buf + (bs->pos >> 3);
    5f78:	c1 fe 03             	sar    $0x3,%esi
    next = *p++ & (255 >> s);
    5f7b:	41 89 dc             	mov    %ebx,%r12d
    const uint8_t *p = bs->buf + (bs->pos >> 3);
    5f7e:	48 63 f6             	movslq %esi,%rsi
    5f81:	83 e1 07             	and    $0x7,%ecx
    5f84:	4c 01 fe             	add    %r15,%rsi
    next = *p++ & (255 >> s);
    5f87:	41 d3 fc             	sar    %cl,%r12d
    5f8a:	0f b6 06             	movzbl (%rsi),%eax
    5f8d:	44 21 e0             	and    %r12d,%eax
    while ((shl -= 8) > 0)
    5f90:	83 f9 07             	cmp    $0x7,%ecx
    5f93:	0f 85 99 41 00 00    	jne    a132 <mp3dec_decode_frame+0x6372>
        cache |= next << shl;
    5f99:	44 8d 24 00          	lea    (%rax,%rax,1),%r12d
        next = *p++;
    5f9d:	0f b6 46 01          	movzbl 0x1(%rsi),%eax
    return cache | (next >> -shl);
    5fa1:	d3 e8                	shr    %cl,%eax
        sci->scfcod[i] = sci->bitalloc[i] ? HDR_IS_LAYER_1(hdr) ? 2 : get_bits(bs, 2) : 6;
    5fa3:	44 09 e0             	or     %r12d,%eax
    if ((bs->pos += n) > bs->limit)
    5fa6:	89 fe                	mov    %edi,%esi
    for (i = 0; i < 2*sci->total_bands; i++)
    5fa8:	41 83 c3 01          	add    $0x1,%r11d
        sci->scfcod[i] = sci->bitalloc[i] ? HDR_IS_LAYER_1(hdr) ? 2 : get_bits(bs, 2) : 6;
    5fac:	88 02                	mov    %al,(%rdx)
    for (i = 0; i < 2*sci->total_bands; i++)
    5fae:	48 83 c2 01          	add    $0x1,%rdx
    5fb2:	45 39 d3             	cmp    %r10d,%r11d
    5fb5:	7c aa                	jl     5f61 <mp3dec_decode_frame+0x21a1>
    5fb7:	89 34 24             	mov    %esi,(%rsp)
    5fba:	e9 fa e6 ff ff       	jmp    46b9 <mp3dec_decode_frame+0x8f9>
    int sr_idx = HDR_GET_MY_SAMPLE_RATE(hdr); sr_idx -= (sr_idx != 0);
    5fbf:	0f b6 1c 24          	movzbl (%rsp),%ebx
    5fc3:	89 d8                	mov    %ebx,%eax
    5fc5:	89 d9                	mov    %ebx,%ecx
    5fc7:	c0 e8 03             	shr    $0x3,%al
    5fca:	c0 e9 04             	shr    $0x4,%cl
    5fcd:	83 e1 01             	and    $0x1,%ecx
    5fd0:	83 e0 01             	and    $0x1,%eax
    5fd3:	01 c8                	add    %ecx,%eax
    5fd5:	8d 0c 40             	lea    (%rax,%rax,2),%ecx
    5fd8:	41 0f b6 44 24 02    	movzbl 0x2(%r12),%eax
    5fde:	c0 e8 02             	shr    $0x2,%al
    5fe1:	83 e0 03             	and    $0x3,%eax
    5fe4:	01 c1                	add    %eax,%ecx
    5fe6:	0f 95 c0             	setne  %al
    5fe9:	0f b6 c0             	movzbl %al,%eax
    5fec:	29 c1                	sub    %eax,%ecx
    int gr_count = HDR_IS_MONO(hdr) ? 1 : 2;
    5fee:	89 f0                	mov    %esi,%eax
    5ff0:	83 e0 c0             	and    $0xffffffc0,%eax
    int sr_idx = HDR_GET_MY_SAMPLE_RATE(hdr); sr_idx -= (sr_idx != 0);
    5ff3:	41 89 cb             	mov    %ecx,%r11d
    int gr_count = HDR_IS_MONO(hdr) ? 1 : 2;
    5ff6:	31 c9                	xor    %ecx,%ecx
    5ff8:	3c c0                	cmp    $0xc0,%al
    5ffa:	0f 94 c1             	sete   %cl
    5ffd:	83 c1 06             	add    $0x6,%ecx
    6000:	3c c0                	cmp    $0xc0,%al
    6002:	41 0f 95 c1          	setne  %r9b
    6006:	0f 95 c0             	setne  %al
    6009:	45 0f b6 d1          	movzbl %r9b,%r10d
    600d:	41 0f b6 f9          	movzbl %r9b,%edi
    6011:	0f b6 c0             	movzbl %al,%eax
    6014:	45 0f b6 c9          	movzbl %r9b,%r9d
    6018:	83 c0 09             	add    $0x9,%eax
    601b:	47 8d 54 12 09       	lea    0x9(%r10,%r10,1),%r10d
    6020:	8d 7c 3f 02          	lea    0x2(%rdi,%rdi,1),%edi
    6024:	41 83 c1 01          	add    $0x1,%r9d
    if (HDR_TEST_MPEG1(hdr))
    6028:	83 e3 08             	and    $0x8,%ebx
    602b:	0f 84 77 16 00 00    	je     76a8 <mp3dec_decode_frame+0x38e8>
    if ((bs->pos += n) > bs->limit)
    6031:	83 c2 09             	add    $0x9,%edx
    6034:	c7 44 24 10 00 00 00 	movl   $0x0,0x10(%rsp)
    603b:	00 
    603c:	41 39 d6             	cmp    %edx,%r14d
    603f:	7c 14                	jl     6055 <mp3dec_decode_frame+0x2295>
    next = *p++ & (255 >> s);
    6041:	41 0f b6 08          	movzbl (%r8),%ecx
        next = *p++;
    6045:	41 0f b6 40 01       	movzbl 0x1(%r8),%eax
        cache |= next << shl;
    604a:	01 c9                	add    %ecx,%ecx
    return cache | (next >> -shl);
    604c:	c1 e8 07             	shr    $0x7,%eax
    604f:	09 c1                	or     %eax,%ecx
    6051:	89 4c 24 10          	mov    %ecx,0x10(%rsp)
    if ((bs->pos += n) > bs->limit)
    6055:	42 8d 1c 12          	lea    (%rdx,%r10,1),%ebx
        return 0;
    6059:	45 31 ed             	xor    %r13d,%r13d
    if ((bs->pos += n) > bs->limit)
    605c:	41 39 de             	cmp    %ebx,%r14d
    605f:	7c 25                	jl     6086 <mp3dec_decode_frame+0x22c6>
    const uint8_t *p = bs->buf + (bs->pos >> 3);
    6061:	c1 fa 03             	sar    $0x3,%edx
    return cache | (next >> -shl);
    6064:	b9 08 00 00 00       	mov    $0x8,%ecx
    const uint8_t *p = bs->buf + (bs->pos >> 3);
    6069:	48 63 c2             	movslq %edx,%rax
    return cache | (next >> -shl);
    606c:	29 f9                	sub    %edi,%ecx
    const uint8_t *p = bs->buf + (bs->pos >> 3);
    606e:	4c 01 f8             	add    %r15,%rax
        next = *p++;
    6071:	0f b6 50 01          	movzbl 0x1(%rax),%edx
    next = *p++ & (255 >> s);
    6075:	0f b6 00             	movzbl (%rax),%eax
    return cache | (next >> -shl);
    6078:	d3 ea                	shr    %cl,%edx
    next = *p++ & (255 >> s);
    607a:	83 e0 7f             	and    $0x7f,%eax
        cache |= next << shl;
    607d:	89 f9                	mov    %edi,%ecx
    607f:	d3 e0                	shl    %cl,%eax
    return cache | (next >> -shl);
    6081:	09 c2                	or     %eax,%edx
    6083:	41 89 d5             	mov    %edx,%r13d
    6086:	49 63 c3             	movslq %r11d,%rax
        if (HDR_IS_MONO(hdr))
    6089:	83 e6 c0             	and    $0xffffffc0,%esi
        gr->sfbtab = g_scf_long[sr_idx];
    608c:	48 8d 0d 8d b1 00 00 	lea    0xb18d(%rip),%rcx        # 11220 <g_scf_long.25>
    6093:	c7 44 24 30 00 00 00 	movl   $0x0,0x30(%rsp)
    609a:	00 
    609b:	48 8d 14 40          	lea    (%rax,%rax,2),%rdx
        if (HDR_IS_MONO(hdr))
    609f:	40 88 74 24 60       	mov    %sil,0x60(%rsp)
    next = *p++ & (255 >> s);
    60a4:	bd ff 00 00 00       	mov    $0xff,%ebp
        gr->sfbtab = g_scf_long[sr_idx];
    60a9:	48 c1 e2 03          	shl    $0x3,%rdx
            gr->region_count[0] = 7;
    60ad:	4c 89 a4 24 80 00 00 	mov    %r12,0x80(%rsp)
    60b4:	00 
        gr->sfbtab = g_scf_long[sr_idx];
    60b5:	48 29 c2             	sub    %rax,%rdx
    60b8:	48 8d 04 80          	lea    (%rax,%rax,4),%rax
    60bc:	48 01 ca             	add    %rcx,%rdx
    60bf:	48 c1 e0 03          	shl    $0x3,%rax
    60c3:	48 89 54 24 40       	mov    %rdx,0x40(%rsp)
    60c8:	48 8d 94 24 00 08 00 	lea    0x800(%rsp),%rdx
    60cf:	00 
    60d0:	48 89 94 24 18 04 00 	mov    %rdx,0x418(%rsp)
    60d7:	00 
    60d8:	8d 57 ff             	lea    -0x1(%rdi),%edx
    60db:	48 c1 e2 05          	shl    $0x5,%rdx
    60df:	48 89 44 24 70       	mov    %rax,0x70(%rsp)
    60e4:	48 8d 84 24 10 13 00 	lea    0x1310(%rsp),%rax
    60eb:	00 
    60ec:	48 8d 94 14 30 13 00 	lea    0x1330(%rsp,%rdx,1),%rdx
    60f3:	00 
    60f4:	48 89 84 24 50 04 00 	mov    %rax,0x450(%rsp)
    60fb:	00 
    60fc:	48 89 54 24 50       	mov    %rdx,0x50(%rsp)
    6101:	48 89 c2             	mov    %rax,%rdx
        gr->scalefac_compress = (uint16_t)get_bits(bs, HDR_TEST_MPEG1(hdr) ? 4 : 9);
    6104:	0f b6 04 24          	movzbl (%rsp),%eax
    6108:	83 e0 08             	and    $0x8,%eax
    610b:	88 44 24 20          	mov    %al,0x20(%rsp)
            scfsi <<= 4;
    610f:	44 89 e8             	mov    %r13d,%eax
    if ((bs->pos += n) > bs->limit)
    6112:	8d 73 0c             	lea    0xc(%rbx),%esi
            scfsi <<= 4;
    6115:	c1 e0 04             	shl    $0x4,%eax
    6118:	80 7c 24 60 c0       	cmpb   $0xc0,0x60(%rsp)
    611d:	44 0f 44 e8          	cmove  %eax,%r13d
    if ((bs->pos += n) > bs->limit)
    6121:	31 c9                	xor    %ecx,%ecx
    6123:	41 39 f6             	cmp    %esi,%r14d
    6126:	7c 5c                	jl     6184 <mp3dec_decode_frame+0x23c4>
    const uint8_t *p = bs->buf + (bs->pos >> 3);
    6128:	41 89 d9             	mov    %ebx,%r9d
    uint32_t next, cache = 0, s = bs->pos & 7;
    612b:	89 df                	mov    %ebx,%edi
    next = *p++ & (255 >> s);
    612d:	41 89 e8             	mov    %ebp,%r8d
    const uint8_t *p = bs->buf + (bs->pos >> 3);
    6130:	41 c1 f9 03          	sar    $0x3,%r9d
    uint32_t next, cache = 0, s = bs->pos & 7;
    6134:	83 e7 07             	and    $0x7,%edi
    const uint8_t *p = bs->buf + (bs->pos >> 3);
    6137:	4d 63 c9             	movslq %r9d,%r9
    next = *p++ & (255 >> s);
    613a:	89 f9                	mov    %edi,%ecx
    while ((shl -= 8) > 0)
    613c:	44 8d 57 04          	lea    0x4(%rdi),%r10d
    6140:	83 ef 04             	sub    $0x4,%edi
    const uint8_t *p = bs->buf + (bs->pos >> 3);
    6143:	4d 01 f9             	add    %r15,%r9
    next = *p++ & (255 >> s);
    6146:	41 d3 f8             	sar    %cl,%r8d
        cache |= next << shl;
    6149:	44 89 d1             	mov    %r10d,%ecx
    next = *p++ & (255 >> s);
    614c:	41 0f b6 01          	movzbl (%r9),%eax
    6150:	41 21 c0             	and    %eax,%r8d
        next = *p++;
    6153:	41 0f b6 41 01       	movzbl 0x1(%r9),%eax
        cache |= next << shl;
    6158:	41 d3 e0             	shl    %cl,%r8d
    while ((shl -= 8) > 0)
    615b:	85 ff                	test   %edi,%edi
    615d:	0f 8e a5 11 00 00    	jle    7308 <mp3dec_decode_frame+0x3548>
        cache |= next << shl;
    6163:	89 f9                	mov    %edi,%ecx
    6165:	d3 e0                	shl    %cl,%eax
    6167:	41 09 c0             	or     %eax,%r8d
        next = *p++;
    616a:	41 0f b6 41 02       	movzbl 0x2(%r9),%eax
    return cache | (next >> -shl);
    616f:	b9 08 00 00 00       	mov    $0x8,%ecx
    6174:	29 f9                	sub    %edi,%ecx
    6176:	d3 e8                	shr    %cl,%eax
    6178:	44 09 c0             	or     %r8d,%eax
        gr->part_23_length = (uint16_t)get_bits(bs, 12);
    617b:	89 c1                	mov    %eax,%ecx
        part_23_sum += gr->part_23_length;
    617d:	0f b7 c0             	movzwl %ax,%eax
    6180:	01 44 24 30          	add    %eax,0x30(%rsp)
    if ((bs->pos += n) > bs->limit)
    6184:	8d 43 15             	lea    0x15(%rbx),%eax
        gr->part_23_length = (uint16_t)get_bits(bs, 12);
    6187:	66 89 4a 08          	mov    %cx,0x8(%rdx)
    if ((bs->pos += n) > bs->limit)
    618b:	41 39 c6             	cmp    %eax,%r14d
    618e:	0f 8c 9c 0f 00 00    	jl     7130 <mp3dec_decode_frame+0x3370>
    uint32_t next, cache = 0, s = bs->pos & 7;
    6194:	89 f1                	mov    %esi,%ecx
    const uint8_t *p = bs->buf + (bs->pos >> 3);
    6196:	c1 fe 03             	sar    $0x3,%esi
    next = *p++ & (255 >> s);
    6199:	41 89 ea             	mov    %ebp,%r10d
    const uint8_t *p = bs->buf + (bs->pos >> 3);
    619c:	48 63 f6             	movslq %esi,%rsi
    uint32_t next, cache = 0, s = bs->pos & 7;
    619f:	83 e1 07             	and    $0x7,%ecx
    const uint8_t *p = bs->buf + (bs->pos >> 3);
    61a2:	4c 01 fe             	add    %r15,%rsi
    while ((shl -= 8) > 0)
    61a5:	44 8d 41 01          	lea    0x1(%rcx),%r8d
    next = *p++ & (255 >> s);
    61a9:	41 d3 fa             	sar    %cl,%r10d
    61ac:	0f b6 3e             	movzbl (%rsi),%edi
        cache |= next << shl;
    61af:	44 89 c1             	mov    %r8d,%ecx
        next = *p++;
    61b2:	0f b6 76 01          	movzbl 0x1(%rsi),%esi
    next = *p++ & (255 >> s);
    61b6:	44 21 d7             	and    %r10d,%edi
        cache |= next << shl;
    61b9:	d3 e7                	shl    %cl,%edi
    return cache | (next >> -shl);
    61bb:	b9 08 00 00 00       	mov    $0x8,%ecx
    61c0:	44 29 c1             	sub    %r8d,%ecx
    61c3:	d3 ee                	shr    %cl,%esi
    61c5:	09 f7                	or     %esi,%edi
        gr->big_values = (uint16_t)get_bits(bs,  9);
    61c7:	66 89 7a 0a          	mov    %di,0xa(%rdx)
        if (gr->big_values > 288)
    61cb:	81 ff 20 01 00 00    	cmp    $0x120,%edi
    61d1:	0f 87 ad eb ff ff    	ja     4d84 <mp3dec_decode_frame+0xfc4>
    if ((bs->pos += n) > bs->limit)
    61d7:	8d 73 1d             	lea    0x1d(%rbx),%esi
    61da:	31 c9                	xor    %ecx,%ecx
    61dc:	41 39 f6             	cmp    %esi,%r14d
    61df:	7c 39                	jl     621a <mp3dec_decode_frame+0x245a>
    61e1:	41 89 c0             	mov    %eax,%r8d
    const uint8_t *p = bs->buf + (bs->pos >> 3);
    61e4:	c1 f8 03             	sar    $0x3,%eax
    next = *p++ & (255 >> s);
    61e7:	89 eb                	mov    %ebp,%ebx
    const uint8_t *p = bs->buf + (bs->pos >> 3);
    61e9:	48 98                	cltq
    61eb:	41 83 e0 07          	and    $0x7,%r8d
    61ef:	4c 01 f8             	add    %r15,%rax
    next = *p++ & (255 >> s);
    61f2:	44 89 c1             	mov    %r8d,%ecx
    61f5:	0f b6 38             	movzbl (%rax),%edi
    61f8:	d3 fb                	sar    %cl,%ebx
    61fa:	21 df                	and    %ebx,%edi
    while ((shl -= 8) > 0)
    61fc:	45 85 c0             	test   %r8d,%r8d
    61ff:	74 17                	je     6218 <mp3dec_decode_frame+0x2458>
        next = *p++;
    6201:	0f b6 40 01          	movzbl 0x1(%rax),%eax
    return cache | (next >> -shl);
    6205:	b9 08 00 00 00       	mov    $0x8,%ecx
    620a:	44 29 c1             	sub    %r8d,%ecx
    620d:	d3 e8                	shr    %cl,%eax
        cache |= next << shl;
    620f:	44 89 c1             	mov    %r8d,%ecx
    6212:	d3 e7                	shl    %cl,%edi
    return cache | (next >> -shl);
    6214:	09 f8                	or     %edi,%eax
    6216:	89 c7                	mov    %eax,%edi
        gr->global_gain = (uint8_t)get_bits(bs, 8);
    6218:	89 f9                	mov    %edi,%ecx
        gr->scalefac_compress = (uint16_t)get_bits(bs, HDR_TEST_MPEG1(hdr) ? 4 : 9);
    621a:	80 7c 24 20 01       	cmpb   $0x1,0x20(%rsp)
        gr->global_gain = (uint8_t)get_bits(bs, 8);
    621f:	88 4a 0e             	mov    %cl,0xe(%rdx)
        gr->scalefac_compress = (uint16_t)get_bits(bs, HDR_TEST_MPEG1(hdr) ? 4 : 9);
    6222:	45 19 c0             	sbb    %r8d,%r8d
    6225:	31 c0                	xor    %eax,%eax
    6227:	41 83 e0 05          	and    $0x5,%r8d
    622b:	41 83 c0 04          	add    $0x4,%r8d
    if ((bs->pos += n) > bs->limit)
    622f:	41 8d 3c 30          	lea    (%r8,%rsi,1),%edi
    6233:	41 39 fe             	cmp    %edi,%r14d
    6236:	7c 3d                	jl     6275 <mp3dec_decode_frame+0x24b5>
    uint32_t next, cache = 0, s = bs->pos & 7;
    6238:	89 f1                	mov    %esi,%ecx
    const uint8_t *p = bs->buf + (bs->pos >> 3);
    623a:	c1 fe 03             	sar    $0x3,%esi
    next = *p++ & (255 >> s);
    623d:	89 eb                	mov    %ebp,%ebx
    const uint8_t *p = bs->buf + (bs->pos >> 3);
    623f:	48 63 f6             	movslq %esi,%rsi
    uint32_t next, cache = 0, s = bs->pos & 7;
    6242:	83 e1 07             	and    $0x7,%ecx
    const uint8_t *p = bs->buf + (bs->pos >> 3);
    6245:	4c 01 fe             	add    %r15,%rsi
    int shl = n + s;
    6248:	41 01 c8             	add    %ecx,%r8d
    next = *p++ & (255 >> s);
    624b:	d3 fb                	sar    %cl,%ebx
    624d:	0f b6 06             	movzbl (%rsi),%eax
    while ((shl -= 8) > 0)
    6250:	41 8d 48 f8          	lea    -0x8(%r8),%ecx
    next = *p++ & (255 >> s);
    6254:	21 d8                	and    %ebx,%eax
    while ((shl -= 8) > 0)
    6256:	85 c9                	test   %ecx,%ecx
    6258:	0f 8e b2 10 00 00    	jle    7310 <mp3dec_decode_frame+0x3550>
        cache |= next << shl;
    625e:	d3 e0                	shl    %cl,%eax
    6260:	41 89 c0             	mov    %eax,%r8d
        next = *p++;
    6263:	0f b6 46 01          	movzbl 0x1(%rsi),%eax
    return cache | (next >> -shl);
    6267:	be 08 00 00 00       	mov    $0x8,%esi
    626c:	29 ce                	sub    %ecx,%esi
    626e:	89 f1                	mov    %esi,%ecx
    6270:	d3 e8                	shr    %cl,%eax
        gr->scalefac_compress = (uint16_t)get_bits(bs, HDR_TEST_MPEG1(hdr) ? 4 : 9);
    6272:	44 09 c0             	or     %r8d,%eax
        gr->sfbtab = g_scf_long[sr_idx];
    6275:	48 8b 5c 24 40       	mov    0x40(%rsp),%rbx
    if ((bs->pos += n) > bs->limit)
    627a:	8d 4f 01             	lea    0x1(%rdi),%ecx
        gr->scalefac_compress = (uint16_t)get_bits(bs, HDR_TEST_MPEG1(hdr) ? 4 : 9);
    627d:	66 89 42 0c          	mov    %ax,0xc(%rdx)
    const uint8_t *p = bs->buf + (bs->pos >> 3);
    6281:	41 89 c8             	mov    %ecx,%r8d
    6284:	41 89 c9             	mov    %ecx,%r9d
        gr->sfbtab = g_scf_long[sr_idx];
    6287:	48 89 1a             	mov    %rbx,(%rdx)
    const uint8_t *p = bs->buf + (bs->pos >> 3);
    628a:	41 c1 f8 03          	sar    $0x3,%r8d
        gr->n_long_sfb  = 22;
    628e:	0f b7 1d ab b5 00 00 	movzwl 0xb5ab(%rip),%ebx        # 11840 <g_pow43+0x420>
    6295:	41 83 e1 07          	and    $0x7,%r9d
    const uint8_t *p = bs->buf + (bs->pos >> 3);
    6299:	4d 63 c0             	movslq %r8d,%r8
        gr->n_long_sfb  = 22;
    629c:	66 89 5a 11          	mov    %bx,0x11(%rdx)
    const uint8_t *p = bs->buf + (bs->pos >> 3);
    62a0:	4d 01 f8             	add    %r15,%r8
    if ((bs->pos += n) > bs->limit)
    62a3:	41 39 ce             	cmp    %ecx,%r14d
    62a6:	0f 8c 27 0d 00 00    	jl     6fd3 <mp3dec_decode_frame+0x3213>
    const uint8_t *p = bs->buf + (bs->pos >> 3);
    62ac:	41 89 fa             	mov    %edi,%r10d
    uint32_t next, cache = 0, s = bs->pos & 7;
    62af:	89 f9                	mov    %edi,%ecx
    next = *p++ & (255 >> s);
    62b1:	89 ee                	mov    %ebp,%esi
    const uint8_t *p = bs->buf + (bs->pos >> 3);
    62b3:	41 c1 fa 03          	sar    $0x3,%r10d
    uint32_t next, cache = 0, s = bs->pos & 7;
    62b7:	83 e1 07             	and    $0x7,%ecx
    const uint8_t *p = bs->buf + (bs->pos >> 3);
    62ba:	4d 63 d2             	movslq %r10d,%r10
    next = *p++ & (255 >> s);
    62bd:	d3 fe                	sar    %cl,%esi
    62bf:	47 0f b6 14 17       	movzbl (%r15,%r10,1),%r10d
    62c4:	41 21 f2             	and    %esi,%r10d
    int shl = n + s;
    62c7:	8d 71 01             	lea    0x1(%rcx),%esi
    return cache | (next >> -shl);
    62ca:	b9 08 00 00 00       	mov    $0x8,%ecx
    62cf:	29 f1                	sub    %esi,%ecx
    62d1:	41 d3 ea             	shr    %cl,%r10d
        if (get_bits(bs, 1))
    62d4:	45 85 d2             	test   %r10d,%r10d
    62d7:	0f 84 f6 0c 00 00    	je     6fd3 <mp3dec_decode_frame+0x3213>
    if ((bs->pos += n) > bs->limit)
    62dd:	44 8d 57 03          	lea    0x3(%rdi),%r10d
    62e1:	45 39 d6             	cmp    %r10d,%r14d
    62e4:	0f 8c 96 ea ff ff    	jl     4d80 <mp3dec_decode_frame+0xfc0>
    next = *p++ & (255 >> s);
    62ea:	41 0f b6 30          	movzbl (%r8),%esi
    62ee:	89 eb                	mov    %ebp,%ebx
    62f0:	44 89 c9             	mov    %r9d,%ecx
    62f3:	d3 fb                	sar    %cl,%ebx
    62f5:	21 de                	and    %ebx,%esi
    while ((shl -= 8) > 0)
    62f7:	41 83 f9 07          	cmp    $0x7,%r9d
    62fb:	0f 85 42 14 00 00    	jne    7743 <mp3dec_decode_frame+0x3983>
        cache |= next << shl;
    6301:	44 8d 1c 36          	lea    (%rsi,%rsi,1),%r11d
        next = *p++;
    6305:	41 0f b6 70 01       	movzbl 0x1(%r8),%esi
    return cache | (next >> -shl);
    630a:	44 89 c9             	mov    %r9d,%ecx
    630d:	d3 ee                	shr    %cl,%esi
    630f:	44 09 de             	or     %r11d,%esi
            gr->block_type = (uint8_t)get_bits(bs, 2);
    6312:	40 88 72 0f          	mov    %sil,0xf(%rdx)
            if (!gr->block_type)
    6316:	40 84 f6             	test   %sil,%sil
    6319:	0f 84 65 ea ff ff    	je     4d84 <mp3dec_decode_frame+0xfc4>
    if ((bs->pos += n) > bs->limit)
    631f:	44 8d 47 04          	lea    0x4(%rdi),%r8d
    6323:	45 39 c6             	cmp    %r8d,%r14d
    6326:	0f 8c 54 0e 00 00    	jl     7180 <mp3dec_decode_frame+0x33c0>
    uint32_t next, cache = 0, s = bs->pos & 7;
    632c:	44 89 d1             	mov    %r10d,%ecx
    const uint8_t *p = bs->buf + (bs->pos >> 3);
    632f:	41 c1 fa 03          	sar    $0x3,%r10d
            gr->region_count[0] = 7;
    6333:	0f b7 1d 08 b5 00 00 	movzwl 0xb508(%rip),%ebx        # 11842 <g_pow43+0x422>
    const uint8_t *p = bs->buf + (bs->pos >> 3);
    633a:	4d 63 ca             	movslq %r10d,%r9
    uint32_t next, cache = 0, s = bs->pos & 7;
    633d:	83 e1 07             	and    $0x7,%ecx
    next = *p++ & (255 >> s);
    6340:	41 89 ea             	mov    %ebp,%r10d
    6343:	47 0f b6 0c 0f       	movzbl (%r15,%r9,1),%r9d
    6348:	41 d3 fa             	sar    %cl,%r10d
            gr->region_count[0] = 7;
    634b:	66 89 5a 16          	mov    %bx,0x16(%rdx)
    next = *p++ & (255 >> s);
    634f:	45 21 d1             	and    %r10d,%r9d
    int shl = n + s;
    6352:	44 8d 51 01          	lea    0x1(%rcx),%r10d
    return cache | (next >> -shl);
    6356:	b9 08 00 00 00       	mov    $0x8,%ecx
    635b:	44 29 d1             	sub    %r10d,%ecx
    635e:	41 d3 e9             	shr    %cl,%r9d
            gr->mixed_block_flag = (uint8_t)get_bits(bs, 1);
    6361:	44 88 4a 10          	mov    %r9b,0x10(%rdx)
            if (gr->block_type == SHORT_BLOCK_TYPE)
    6365:	40 80 fe 02          	cmp    $0x2,%sil
    6369:	0f 84 68 0e 00 00    	je     71d7 <mp3dec_decode_frame+0x3417>
    if ((bs->pos += n) > bs->limit)
    636f:	44 8d 4f 0e          	lea    0xe(%rdi),%r9d
    6373:	45 39 ce             	cmp    %r9d,%r14d
    6376:	0f 8c 50 0e 00 00    	jl     71cc <mp3dec_decode_frame+0x340c>
    const uint8_t *p = bs->buf + (bs->pos >> 3);
    637c:	44 89 c6             	mov    %r8d,%esi
    uint32_t next, cache = 0, s = bs->pos & 7;
    637f:	44 89 c3             	mov    %r8d,%ebx
    next = *p++ & (255 >> s);
    6382:	41 89 ea             	mov    %ebp,%r10d
    const uint8_t *p = bs->buf + (bs->pos >> 3);
    6385:	c1 fe 03             	sar    $0x3,%esi
    uint32_t next, cache = 0, s = bs->pos & 7;
    6388:	83 e3 07             	and    $0x7,%ebx
    const uint8_t *p = bs->buf + (bs->pos >> 3);
    638b:	48 63 f6             	movslq %esi,%rsi
    next = *p++ & (255 >> s);
    638e:	89 d9                	mov    %ebx,%ecx
    while ((shl -= 8) > 0)
    6390:	44 8d 5b 02          	lea    0x2(%rbx),%r11d
    const uint8_t *p = bs->buf + (bs->pos >> 3);
    6394:	4c 01 fe             	add    %r15,%rsi
    next = *p++ & (255 >> s);
    6397:	41 d3 fa             	sar    %cl,%r10d
    639a:	0f b6 0e             	movzbl (%rsi),%ecx
        next = *p++;
    639d:	44 0f b6 46 01       	movzbl 0x1(%rsi),%r8d
    next = *p++ & (255 >> s);
    63a2:	41 21 ca             	and    %ecx,%r10d
        cache |= next << shl;
    63a5:	44 89 d9             	mov    %r11d,%ecx
    63a8:	41 d3 e2             	shl    %cl,%r10d
    while ((shl -= 8) > 0)
    63ab:	83 fb 07             	cmp    $0x7,%ebx
    63ae:	75 11                	jne    63c1 <mp3dec_decode_frame+0x2601>
        cache |= next << shl;
    63b0:	45 01 c0             	add    %r8d,%r8d
    63b3:	41 bb 01 00 00 00    	mov    $0x1,%r11d
    63b9:	45 09 c2             	or     %r8d,%r10d
        next = *p++;
    63bc:	44 0f b6 46 02       	movzbl 0x2(%rsi),%r8d
    return cache | (next >> -shl);
    63c1:	b9 08 00 00 00       	mov    $0x8,%ecx
    63c6:	44 29 d9             	sub    %r11d,%ecx
    63c9:	41 d3 e8             	shr    %cl,%r8d
    63cc:	45 09 d0             	or     %r10d,%r8d
        gr->table_select[0] = (uint8_t)(tables >> 10);
    63cf:	45 89 c2             	mov    %r8d,%r10d
        gr->table_select[1] = (uint8_t)((tables >> 5) & 31);
    63d2:	41 83 e0 1f          	and    $0x1f,%r8d
        gr->table_select[0] = (uint8_t)(tables >> 10);
    63d6:	41 c1 ea 05          	shr    $0x5,%r10d
    63da:	41 81 e2 ff 00 00 00 	and    $0xff,%r10d
    if ((bs->pos += n) > bs->limit)
    63e1:	44 8d 5f 11          	lea    0x11(%rdi),%r11d
    63e5:	31 c9                	xor    %ecx,%ecx
    63e7:	45 39 de             	cmp    %r11d,%r14d
    63ea:	7c 45                	jl     6431 <mp3dec_decode_frame+0x2671>
    uint32_t next, cache = 0, s = bs->pos & 7;
    63ec:	44 89 cb             	mov    %r9d,%ebx
    const uint8_t *p = bs->buf + (bs->pos >> 3);
    63ef:	41 c1 f9 03          	sar    $0x3,%r9d
    next = *p++ & (255 >> s);
    63f3:	41 89 ec             	mov    %ebp,%r12d
    const uint8_t *p = bs->buf + (bs->pos >> 3);
    63f6:	4d 63 c9             	movslq %r9d,%r9
    uint32_t next, cache = 0, s = bs->pos & 7;
    63f9:	83 e3 07             	and    $0x7,%ebx
    const uint8_t *p = bs->buf + (bs->pos >> 3);
    63fc:	4d 01 f9             	add    %r15,%r9
    next = *p++ & (255 >> s);
    63ff:	89 d9                	mov    %ebx,%ecx
    6401:	41 0f b6 31          	movzbl (%r9),%esi
    6405:	41 d3 fc             	sar    %cl,%r12d
    while ((shl -= 8) > 0)
    6408:	8d 4b fb             	lea    -0x5(%rbx),%ecx
    next = *p++ & (255 >> s);
    640b:	44 21 e6             	and    %r12d,%esi
    while ((shl -= 8) > 0)
    640e:	85 c9                	test   %ecx,%ecx
    6410:	0f 8e 42 13 00 00    	jle    7758 <mp3dec_decode_frame+0x3998>
        cache |= next << shl;
    6416:	89 f3                	mov    %esi,%ebx
        next = *p++;
    6418:	41 0f b6 71 01       	movzbl 0x1(%r9),%esi
        cache |= next << shl;
    641d:	d3 e3                	shl    %cl,%ebx
    return cache | (next >> -shl);
    641f:	41 b9 08 00 00 00    	mov    $0x8,%r9d
    6425:	41 29 c9             	sub    %ecx,%r9d
    6428:	44 89 c9             	mov    %r9d,%ecx
    642b:	d3 ee                	shr    %cl,%esi
    642d:	89 f1                	mov    %esi,%ecx
            gr->subblock_gain[0] = (uint8_t)get_bits(bs, 3);
    642f:	09 d9                	or     %ebx,%ecx
    if ((bs->pos += n) > bs->limit)
    6431:	44 8d 4f 14          	lea    0x14(%rdi),%r9d
            gr->subblock_gain[0] = (uint8_t)get_bits(bs, 3);
    6435:	88 4a 19             	mov    %cl,0x19(%rdx)
    if ((bs->pos += n) > bs->limit)
    6438:	31 c9                	xor    %ecx,%ecx
    643a:	45 39 ce             	cmp    %r9d,%r14d
    643d:	7c 45                	jl     6484 <mp3dec_decode_frame+0x26c4>
    uint32_t next, cache = 0, s = bs->pos & 7;
    643f:	44 89 db             	mov    %r11d,%ebx
    const uint8_t *p = bs->buf + (bs->pos >> 3);
    6442:	41 c1 fb 03          	sar    $0x3,%r11d
    next = *p++ & (255 >> s);
    6446:	41 89 ec             	mov    %ebp,%r12d
    const uint8_t *p = bs->buf + (bs->pos >> 3);
    6449:	4d 63 db             	movslq %r11d,%r11
    uint32_t next, cache = 0, s = bs->pos & 7;
    644c:	83 e3 07             	and    $0x7,%ebx
    const uint8_t *p = bs->buf + (bs->pos >> 3);
    644f:	4d 01 fb             	add    %r15,%r11
    next = *p++ & (255 >> s);
    6452:	89 d9                	mov    %ebx,%ecx
    6454:	41 0f b6 33          	movzbl (%r11),%esi
    6458:	41 d3 fc             	sar    %cl,%r12d
    while ((shl -= 8) > 0)
    645b:	8d 4b fb             	lea    -0x5(%rbx),%ecx
    next = *p++ & (255 >> s);
    645e:	44 21 e6             	and    %r12d,%esi
    while ((shl -= 8) > 0)
    6461:	85 c9                	test   %ecx,%ecx
    6463:	0f 8e f9 12 00 00    	jle    7762 <mp3dec_decode_frame+0x39a2>
        cache |= next << shl;
    6469:	89 f3                	mov    %esi,%ebx
        next = *p++;
    646b:	41 0f b6 73 01       	movzbl 0x1(%r11),%esi
        cache |= next << shl;
    6470:	d3 e3                	shl    %cl,%ebx
    return cache | (next >> -shl);
    6472:	41 bb 08 00 00 00    	mov    $0x8,%r11d
    6478:	41 29 cb             	sub    %ecx,%r11d
    647b:	44 89 d9             	mov    %r11d,%ecx
    647e:	d3 ee                	shr    %cl,%esi
    6480:	89 f1                	mov    %esi,%ecx
            gr->subblock_gain[1] = (uint8_t)get_bits(bs, 3);
    6482:	09 d9                	or     %ebx,%ecx
    if ((bs->pos += n) > bs->limit)
    6484:	83 c7 17             	add    $0x17,%edi
            gr->subblock_gain[1] = (uint8_t)get_bits(bs, 3);
    6487:	88 4a 1a             	mov    %cl,0x1a(%rdx)
    if ((bs->pos += n) > bs->limit)
    648a:	31 c9                	xor    %ecx,%ecx
    648c:	41 39 fe             	cmp    %edi,%r14d
    648f:	7c 47                	jl     64d8 <mp3dec_decode_frame+0x2718>
    uint32_t next, cache = 0, s = bs->pos & 7;
    6491:	45 89 cb             	mov    %r9d,%r11d
    const uint8_t *p = bs->buf + (bs->pos >> 3);
    6494:	41 c1 f9 03          	sar    $0x3,%r9d
    next = *p++ & (255 >> s);
    6498:	89 eb                	mov    %ebp,%ebx
    const uint8_t *p = bs->buf + (bs->pos >> 3);
    649a:	4d 63 c9             	movslq %r9d,%r9
    uint32_t next, cache = 0, s = bs->pos & 7;
    649d:	41 83 e3 07          	and    $0x7,%r11d
    const uint8_t *p = bs->buf + (bs->pos >> 3);
    64a1:	4d 01 f9             	add    %r15,%r9
    next = *p++ & (255 >> s);
    64a4:	44 89 d9             	mov    %r11d,%ecx
    64a7:	41 0f b6 31          	movzbl (%r9),%esi
    64ab:	d3 fb                	sar    %cl,%ebx
    while ((shl -= 8) > 0)
    64ad:	41 8d 4b fb          	lea    -0x5(%r11),%ecx
    next = *p++ & (255 >> s);
    64b1:	21 de                	and    %ebx,%esi
    while ((shl -= 8) > 0)
    64b3:	85 c9                	test   %ecx,%ecx
    64b5:	0f 8e b1 12 00 00    	jle    776c <mp3dec_decode_frame+0x39ac>
        cache |= next << shl;
    64bb:	d3 e6                	shl    %cl,%esi
    64bd:	41 89 f3             	mov    %esi,%r11d
        next = *p++;
    64c0:	41 0f b6 71 01       	movzbl 0x1(%r9),%esi
    return cache | (next >> -shl);
    64c5:	41 b9 08 00 00 00    	mov    $0x8,%r9d
    64cb:	41 29 c9             	sub    %ecx,%r9d
    64ce:	44 89 c9             	mov    %r9d,%ecx
    64d1:	d3 ee                	shr    %cl,%esi
    64d3:	89 f1                	mov    %esi,%ecx
            gr->subblock_gain[2] = (uint8_t)get_bits(bs, 3);
    64d5:	44 09 d9             	or     %r11d,%ecx
    64d8:	88 4a 1b             	mov    %cl,0x1b(%rdx)
    64db:	45 31 c9             	xor    %r9d,%r9d
        gr->preflag = HDR_TEST_MPEG1(hdr) ? get_bits(bs, 1) : (gr->scalefac_compress >= 500);
    64de:	66 3d f3 01          	cmp    $0x1f3,%ax
        gr->table_select[0] = (uint8_t)(tables >> 10);
    64e2:	44 88 52 13          	mov    %r10b,0x13(%rdx)
        gr->preflag = HDR_TEST_MPEG1(hdr) ? get_bits(bs, 1) : (gr->scalefac_compress >= 500);
    64e6:	0f 97 c0             	seta   %al
    64e9:	80 7c 24 20 00       	cmpb   $0x0,0x20(%rsp)
        gr->table_select[1] = (uint8_t)((tables >> 5) & 31);
    64ee:	44 88 42 14          	mov    %r8b,0x14(%rdx)
        gr->table_select[2] = (uint8_t)((tables) & 31);
    64f2:	44 88 4a 15          	mov    %r9b,0x15(%rdx)
        gr->preflag = HDR_TEST_MPEG1(hdr) ? get_bits(bs, 1) : (gr->scalefac_compress >= 500);
    64f6:	0f 85 41 0c 00 00    	jne    713d <mp3dec_decode_frame+0x337d>
    64fc:	88 42 1c             	mov    %al,0x1c(%rdx)
    if ((bs->pos += n) > bs->limit)
    64ff:	8d 47 01             	lea    0x1(%rdi),%eax
    6502:	31 c9                	xor    %ecx,%ecx
    6504:	41 39 c6             	cmp    %eax,%r14d
    6507:	7c 2b                	jl     6534 <mp3dec_decode_frame+0x2774>
    const uint8_t *p = bs->buf + (bs->pos >> 3);
    6509:	89 fe                	mov    %edi,%esi
    uint32_t next, cache = 0, s = bs->pos & 7;
    650b:	89 f9                	mov    %edi,%ecx
    next = *p++ & (255 >> s);
    650d:	41 89 e8             	mov    %ebp,%r8d
    const uint8_t *p = bs->buf + (bs->pos >> 3);
    6510:	c1 fe 03             	sar    $0x3,%esi
    uint32_t next, cache = 0, s = bs->pos & 7;
    6513:	83 e1 07             	and    $0x7,%ecx
    const uint8_t *p = bs->buf + (bs->pos >> 3);
    6516:	48 63 f6             	movslq %esi,%rsi
    next = *p++ & (255 >> s);
    6519:	41 d3 f8             	sar    %cl,%r8d
    651c:	41 0f b6 34 37       	movzbl (%r15,%rsi,1),%esi
    6521:	44 21 c6             	and    %r8d,%esi
    int shl = n + s;
    6524:	44 8d 41 01          	lea    0x1(%rcx),%r8d
    return cache | (next >> -shl);
    6528:	b9 08 00 00 00       	mov    $0x8,%ecx
    652d:	44 29 c1             	sub    %r8d,%ecx
        gr->scalefac_scale = (uint8_t)get_bits(bs, 1);
    6530:	d3 ee                	shr    %cl,%esi
    6532:	89 f1                	mov    %esi,%ecx
    if ((bs->pos += n) > bs->limit)
    6534:	8d 5f 02             	lea    0x2(%rdi),%ebx
        gr->scalefac_scale = (uint8_t)get_bits(bs, 1);
    6537:	88 4a 1d             	mov    %cl,0x1d(%rdx)
    if ((bs->pos += n) > bs->limit)
    653a:	41 39 de             	cmp    %ebx,%r14d
    653d:	0f 8c bb 0b 00 00    	jl     70fe <mp3dec_decode_frame+0x333e>
    uint32_t next, cache = 0, s = bs->pos & 7;
    6543:	89 c1                	mov    %eax,%ecx
    const uint8_t *p = bs->buf + (bs->pos >> 3);
    6545:	c1 f8 03             	sar    $0x3,%eax
    next = *p++ & (255 >> s);
    6548:	89 ee                	mov    %ebp,%esi
        gr++;
    654a:	48 83 c2 20          	add    $0x20,%rdx
    const uint8_t *p = bs->buf + (bs->pos >> 3);
    654e:	48 98                	cltq
    uint32_t next, cache = 0, s = bs->pos & 7;
    6550:	83 e1 07             	and    $0x7,%ecx
    next = *p++ & (255 >> s);
    6553:	41 0f b6 04 07       	movzbl (%r15,%rax,1),%eax
    6558:	d3 fe                	sar    %cl,%esi
    655a:	21 f0                	and    %esi,%eax
    int shl = n + s;
    655c:	8d 71 01             	lea    0x1(%rcx),%esi
    return cache | (next >> -shl);
    655f:	b9 08 00 00 00       	mov    $0x8,%ecx
    6564:	29 f1                	sub    %esi,%ecx
    6566:	d3 e8                	shr    %cl,%eax
        gr->count1_table = (uint8_t)get_bits(bs, 1);
    6568:	88 42 fe             	mov    %al,-0x2(%rdx)
        gr->scfsi = (uint8_t)((scfsi >> 12) & 15);
    656b:	44 89 e8             	mov    %r13d,%eax
        scfsi <<= 4;
    656e:	41 c1 e5 04          	shl    $0x4,%r13d
        gr->scfsi = (uint8_t)((scfsi >> 12) & 15);
    6572:	c1 e8 0c             	shr    $0xc,%eax
    6575:	83 e0 0f             	and    $0xf,%eax
    6578:	88 42 ff             	mov    %al,-0x1(%rdx)
    } while(--gr_count);
    657b:	48 39 54 24 50       	cmp    %rdx,0x50(%rsp)
    6580:	0f 85 89 fb ff ff    	jne    610f <mp3dec_decode_frame+0x234f>
    if (part_23_sum + bs->pos > bs->limit + main_data_begin*8)
    6586:	8b 44 24 30          	mov    0x30(%rsp),%eax
    658a:	8b 54 24 10          	mov    0x10(%rsp),%edx
    658e:	4c 8b a4 24 80 00 00 	mov    0x80(%rsp),%r12
    6595:	00 
    6596:	01 d8                	add    %ebx,%eax
    6598:	41 8d 14 d6          	lea    (%r14,%rdx,8),%edx
    659c:	39 d0                	cmp    %edx,%eax
    659e:	0f 8f e0 e7 ff ff    	jg     4d84 <mp3dec_decode_frame+0xfc4>
        if (main_data_begin < 0 || bs_frame->pos > bs_frame->limit)
    65a4:	41 39 de             	cmp    %ebx,%r14d
    65a7:	0f 8c d7 e7 ff ff    	jl     4d84 <mp3dec_decode_frame+0xfc4>
    int bytes_have = MINIMP3_MIN(h->reserv, main_data_begin);
    65ad:	48 8b b4 24 f0 03 00 	mov    0x3f0(%rsp),%rsi
    65b4:	00 
    65b5:	8b 7c 24 10          	mov    0x10(%rsp),%edi
    int frame_bytes = (bs->limit - bs->pos)/8;
    65b9:	44 89 f0             	mov    %r14d,%eax
  return __builtin___memcpy_chk (__dest, __src, __len,
    65bc:	48 8d ac 24 10 08 00 	lea    0x810(%rsp),%rbp
    65c3:	00 
    65c4:	29 d8                	sub    %ebx,%eax
    int bytes_have = MINIMP3_MIN(h->reserv, main_data_begin);
    65c6:	44 8b b6 00 18 00 00 	mov    0x1800(%rsi),%r14d
    int frame_bytes = (bs->limit - bs->pos)/8;
    65cd:	c1 f8 03             	sar    $0x3,%eax
    int bytes_have = MINIMP3_MIN(h->reserv, main_data_begin);
    65d0:	41 89 f8             	mov    %edi,%r8d
    memcpy(s->maindata, h->reserv_buf + MINIMP3_MAX(0, h->reserv - main_data_begin), MINIMP3_MIN(h->reserv, main_data_begin));
    65d3:	4c 8d ae 0c 18 00 00 	lea    0x180c(%rsi),%r13
    int frame_bytes = (bs->limit - bs->pos)/8;
    65da:	89 04 24             	mov    %eax,(%rsp)
    int bytes_have = MINIMP3_MIN(h->reserv, main_data_begin);
    65dd:	44 39 f7             	cmp    %r14d,%edi
    memcpy(s->maindata, h->reserv_buf + MINIMP3_MAX(0, h->reserv - main_data_begin), MINIMP3_MIN(h->reserv, main_data_begin));
    65e0:	44 89 f1             	mov    %r14d,%ecx
    int bytes_have = MINIMP3_MIN(h->reserv, main_data_begin);
    65e3:	45 0f 4f c6          	cmovg  %r14d,%r8d
    memcpy(s->maindata, h->reserv_buf + MINIMP3_MAX(0, h->reserv - main_data_begin), MINIMP3_MIN(h->reserv, main_data_begin));
    65e7:	29 f9                	sub    %edi,%ecx
    65e9:	48 89 ef             	mov    %rbp,%rdi
    65ec:	48 63 c1             	movslq %ecx,%rax
    65ef:	31 c9                	xor    %ecx,%ecx
    65f1:	85 c0                	test   %eax,%eax
    65f3:	49 63 d0             	movslq %r8d,%rdx
    65f6:	44 89 44 24 30       	mov    %r8d,0x30(%rsp)
    65fb:	48 0f 48 c1          	cmovs  %rcx,%rax
    65ff:	b9 70 3f 00 00       	mov    $0x3f70,%ecx
    6604:	48 89 54 24 20       	mov    %rdx,0x20(%rsp)
    6609:	49 8d 74 05 00       	lea    0x0(%r13,%rax,1),%rsi
    660e:	e8 ad be ff ff       	call   24c0 <__memcpy_chk@plt>
    6613:	48 8b 54 24 20       	mov    0x20(%rsp),%rdx
    6618:	b9 80 3f 00 00       	mov    $0x3f80,%ecx
    memcpy(s->maindata + bytes_have, bs->buf + bs->pos/8, frame_bytes);
    661d:	8d 73 07             	lea    0x7(%rbx),%esi
    6620:	48 8d 42 10          	lea    0x10(%rdx),%rax
    6624:	48 8d 7c 15 00       	lea    0x0(%rbp,%rdx,1),%rdi
    6629:	48 39 c8             	cmp    %rcx,%rax
    662c:	48 0f 42 c1          	cmovb  %rcx,%rax
    6630:	48 29 d0             	sub    %rdx,%rax
    6633:	85 db                	test   %ebx,%ebx
    6635:	0f 49 f3             	cmovns %ebx,%esi
    6638:	48 8d 48 f0          	lea    -0x10(%rax),%rcx
    663c:	48 63 04 24          	movslq (%rsp),%rax
    6640:	c1 fe 03             	sar    $0x3,%esi
    6643:	48 89 c2             	mov    %rax,%rdx
    6646:	48 63 f6             	movslq %esi,%rsi
    6649:	4c 01 fe             	add    %r15,%rsi
    664c:	e8 6f be ff ff       	call   24c0 <__memcpy_chk@plt>
    bs_init(&s->bs, s->maindata, bytes_have + frame_bytes);
    6651:	8b 04 24             	mov    (%rsp),%eax
    6654:	44 8b 44 24 30       	mov    0x30(%rsp),%r8d
    bs->buf   = data;
    6659:	48 89 ac 24 00 08 00 	mov    %rbp,0x800(%rsp)
    6660:	00 
    bs->pos   = 0;
    6661:	c7 84 24 08 08 00 00 	movl   $0x0,0x808(%rsp)
    6668:	00 00 00 00 
    bs_init(&s->bs, s->maindata, bytes_have + frame_bytes);
    666c:	42 8d 14 00          	lea    (%rax,%r8,1),%edx
    bs->limit = bytes*8;
    6670:	c1 e2 03             	shl    $0x3,%edx
    return h->reserv >= main_data_begin;
    6673:	44 39 74 24 10       	cmp    %r14d,0x10(%rsp)
    bs->limit = bytes*8;
    6678:	89 94 24 0c 08 00 00 	mov    %edx,0x80c(%rsp)
    return h->reserv >= main_data_begin;
    667f:	41 0f 9e c6          	setle  %r14b
        if (success)
    6683:	0f 8f 09 11 00 00    	jg     7792 <mp3dec_decode_frame+0x39d2>
    6689:	48 8d 84 24 90 13 00 	lea    0x1390(%rsp),%rax
    6690:	00 
    6691:	48 8b b4 24 f0 03 00 	mov    0x3f0(%rsp),%rsi
    6698:	00 
    6699:	4d 89 ef             	mov    %r13,%r15
    669c:	c7 84 24 10 04 00 00 	movl   $0x0,0x410(%rsp)
    66a3:	00 00 00 00 
    66a7:	48 89 84 24 e0 03 00 	mov    %rax,0x3e0(%rsp)
    66ae:	00 
    66af:	48 8b 84 24 f8 03 00 	mov    0x3f8(%rsp),%rax
    66b6:	00 
    66b7:	44 88 b4 24 40 04 00 	mov    %r14b,0x440(%rsp)
    66be:	00 
    66bf:	8b 40 08             	mov    0x8(%rax),%eax
    66c2:	48 89 ac 24 48 04 00 	mov    %rbp,0x448(%rsp)
    66c9:	00 
    66ca:	89 84 24 a0 00 00 00 	mov    %eax,0xa0(%rsp)
    66d1:	48 8d 84 24 30 26 00 	lea    0x2630(%rsp),%rax
    66d8:	00 
    66d9:	48 89 84 24 08 04 00 	mov    %rax,0x408(%rsp)
    66e0:	00 
    66e1:	48 8d 86 00 09 00 00 	lea    0x900(%rsi),%rax
    66e8:	48 89 84 24 20 04 00 	mov    %rax,0x420(%rsp)
    66ef:	00 
    66f0:	48 8d 84 24 d8 13 00 	lea    0x13d8(%rsp),%rax
    66f7:	00 
    66f8:	48 89 84 24 58 04 00 	mov    %rax,0x458(%rsp)
    66ff:	00 
    6700:	48 8d 84 24 30 38 00 	lea    0x3830(%rsp),%rax
    6707:	00 
    6708:	48 89 84 24 30 04 00 	mov    %rax,0x430(%rsp)
    670f:	00 
  return __builtin___memset_chk (__dest, __ch, __len,
    6710:	48 8b bc 24 e0 03 00 	mov    0x3e0(%rsp),%rdi
    6717:	00 
    6718:	31 c0                	xor    %eax,%eax
    671a:	b9 40 02 00 00       	mov    $0x240,%ecx
                L3_decode(dec, &scratch, scratch.gr_info + igr*info->channels, info->channels);
    671f:	8b 9c 24 a0 00 00 00 	mov    0xa0(%rsp),%ebx
    6726:	48 8b 94 24 50 04 00 	mov    0x450(%rsp),%rdx
    672d:	00 
    672e:	f3 48 ab             	rep stos %rax,%es:(%rdi)
    6731:	8b 84 24 10 04 00 00 	mov    0x410(%rsp),%eax
    6738:	f7 d8                	neg    %eax
    673a:	21 d8                	and    %ebx,%eax
    673c:	48 98                	cltq
    673e:	48 c1 e0 05          	shl    $0x5,%rax
    6742:	48 01 d0             	add    %rdx,%rax
    6745:	48 89 84 24 d0 00 00 	mov    %rax,0xd0(%rsp)
    674c:	00 
    for (ch = 0; ch < nch; ch++)
    674d:	85 db                	test   %ebx,%ebx
    674f:	0f 8e 23 34 00 00    	jle    9b78 <mp3dec_decode_frame+0x5db8>
    int pos = (s->bs.pos + 7)/8u;
    6755:	8b 84 24 08 08 00 00 	mov    0x808(%rsp),%eax
    675c:	4c 8d ac 24 90 25 00 	lea    0x2590(%rsp),%r13
    6763:	00 
    6764:	48 c7 84 24 00 01 00 	movq   $0x3f30,0x100(%rsp)
    676b:	00 30 3f 00 00 
    6770:	f3 0f 10 1d 08 af 00 	movss  0xaf08(%rip),%xmm3        # 11680 <g_pow43+0x260>
    6777:	00 
    for (ch = 0; ch < nch; ch++)
    6778:	c7 84 24 c0 00 00 00 	movl   $0x0,0xc0(%rsp)
    677f:	00 00 00 00 
    int pos = (s->bs.pos + 7)/8u;
    6783:	89 84 24 e0 00 00 00 	mov    %eax,0xe0(%rsp)
    678a:	48 8b 84 24 e0 03 00 	mov    0x3e0(%rsp),%rax
    6791:	00 
        DEQ_COUNT1(2);
    6792:	4c 89 bc 24 40 01 00 	mov    %r15,0x140(%rsp)
    6799:	00 
    679a:	48 89 84 24 f0 00 00 	mov    %rax,0xf0(%rsp)
    67a1:	00 
    67a2:	48 8b 84 24 d0 00 00 	mov    0xd0(%rsp),%rax
    67a9:	00 
    67aa:	4c 89 a4 24 50 01 00 	mov    %r12,0x150(%rsp)
    67b1:	00 
    67b2:	48 83 c0 13          	add    $0x13,%rax
    67b6:	4c 89 ac 24 20 01 00 	mov    %r13,0x120(%rsp)
    67bd:	00 
    67be:	48 89 84 24 90 00 00 	mov    %rax,0x90(%rsp)
    67c5:	00 
    67c6:	48 8d 84 24 90 47 00 	lea    0x4790(%rsp),%rax
    67cd:	00 
    67ce:	48 89 84 24 b0 00 00 	mov    %rax,0xb0(%rsp)
    67d5:	00 
    67d6:	48 8d 05 23 a7 00 00 	lea    0xa723(%rip),%rax        # 10f00 <g_expfrac.18>
    67dd:	48 89 84 24 10 01 00 	mov    %rax,0x110(%rsp)
    67e4:	00 
        int layer3gr_limit = s->bs.pos + gr_info[ch].part_23_length;
    67e5:	48 8b bc 24 90 00 00 	mov    0x90(%rsp),%rdi
    67ec:	00 
    67ed:	48 8b 9c 24 00 01 00 	mov    0x100(%rsp),%rbx
    67f4:	00 
    67f5:	0f b7 47 f5          	movzwl -0xb(%rdi),%eax
    67f9:	01 84 24 e0 00 00 00 	add    %eax,0xe0(%rsp)
    6800:	b8 80 3f 00 00       	mov    $0x3f80,%eax
    6805:	48 39 c3             	cmp    %rax,%rbx
    6808:	48 0f 43 c3          	cmovae %rbx,%rax
    680c:	48 29 d8             	sub    %rbx,%rax
    680f:	49 89 c1             	mov    %rax,%r9
        L3_decode_scalefactors(h->header, s->ist_pos[ch], &s->bs, gr_info + ch, s->scf, ch);
    6812:	48 8b 84 24 18 04 00 	mov    0x418(%rsp),%rax
    6819:	00 
    681a:	48 01 c3             	add    %rax,%rbx
    const uint8_t *scf_partition = g_scf_partitions[!!gr->n_short_sfb + !gr->n_long_sfb];
    681d:	31 c0                	xor    %eax,%eax
    681f:	80 7f ff 00          	cmpb   $0x0,-0x1(%rdi)
    6823:	0f 95 c0             	setne  %al
    6826:	80 7f fe 01          	cmpb   $0x1,-0x2(%rdi)
    682a:	48 83 d0 00          	adc    $0x0,%rax
    682e:	48 8d 14 c5 00 00 00 	lea    0x0(,%rax,8),%rdx
    6835:	00 
    6836:	48 29 c2             	sub    %rax,%rdx
    6839:	48 8d 05 00 a7 00 00 	lea    0xa700(%rip),%rax        # 10f40 <g_scf_partitions.22>
    6840:	48 8d 04 90          	lea    (%rax,%rdx,4),%rax
        int part = g_scfc_decode[gr->scalefac_compress];
    6844:	0f b7 57 f9          	movzwl -0x7(%rdi),%edx
    const uint8_t *scf_partition = g_scf_partitions[!!gr->n_short_sfb + !gr->n_long_sfb];
    6848:	48 89 44 24 20       	mov    %rax,0x20(%rsp)
    int i, scf_shift = gr->scalefac_scale + 1, gain_exp, scfsi = gr->scfsi;
    684d:	0f b6 47 0a          	movzbl 0xa(%rdi),%eax
    6851:	83 c0 01             	add    $0x1,%eax
    6854:	89 44 24 30          	mov    %eax,0x30(%rsp)
    if (HDR_TEST_MPEG1(hdr))
    6858:	48 8b 84 24 f0 03 00 	mov    0x3f0(%rsp),%rax
    685f:	00 
    6860:	f6 80 09 18 00 00 08 	testb  $0x8,0x1809(%rax)
    6867:	0f 84 85 2b 00 00    	je     93f2 <mp3dec_decode_frame+0x5632>
    int i, scf_shift = gr->scalefac_scale + 1, gain_exp, scfsi = gr->scfsi;
    686d:	0f b6 47 0c          	movzbl 0xc(%rdi),%eax
    6871:	89 c7                	mov    %eax,%edi
        int part = g_scfc_decode[gr->scalefac_compress];
    6873:	48 8d 05 b6 a6 00 00 	lea    0xa6b6(%rip),%rax        # 10f30 <g_scfc_decode.21>
    687a:	0f b6 14 10          	movzbl (%rax,%rdx,1),%edx
    687e:	89 d1                	mov    %edx,%ecx
        scf_size[3] = scf_size[2] = (uint8_t)(part & 3);
    6880:	c1 ea 02             	shr    $0x2,%edx
    6883:	83 e1 03             	and    $0x3,%ecx
    6886:	89 c8                	mov    %ecx,%eax
    6888:	c1 e0 08             	shl    $0x8,%eax
    688b:	09 c8                	or     %ecx,%eax
    688d:	c1 e0 08             	shl    $0x8,%eax
    6890:	09 d0                	or     %edx,%eax
    6892:	c1 e0 08             	shl    $0x8,%eax
    6895:	09 d0                	or     %edx,%eax
        scf_size[1] = scf_size[0] = (uint8_t)(part >> 2);
    6897:	89 84 24 8c 47 00 00 	mov    %eax,0x478c(%rsp)
    for (i = 0; i < 4 && scf_count[i]; i++, scfsi *= 2)
    689e:	4c 89 cd             	mov    %r9,%rbp
        scf_size[1] = scf_size[0] = (uint8_t)(part >> 2);
    68a1:	45 31 f6             	xor    %r14d,%r14d
    68a4:	41 bf 28 00 00 00    	mov    $0x28,%r15d
    68aa:	4c 8b ac 24 b0 00 00 	mov    0xb0(%rsp),%r13
    68b1:	00 
    68b2:	41 89 f9             	mov    %edi,%r9d
    for (i = 0; i < 4 && scf_count[i]; i++, scfsi *= 2)
    68b5:	48 8b 44 24 20       	mov    0x20(%rsp),%rax
    68ba:	42 0f b6 04 30       	movzbl (%rax,%r14,1),%eax
    68bf:	84 c0                	test   %al,%al
    68c1:	0f 84 b0 00 00 00    	je     6977 <mp3dec_decode_frame+0x2bb7>
            memcpy(scf, ist_pos, cnt);
    68c7:	44 0f b6 e0          	movzbl %al,%r12d
        if (scfsi & 8)
    68cb:	41 f6 c1 08          	test   $0x8,%r9b
    68cf:	0f 85 14 12 00 00    	jne    7ae9 <mp3dec_decode_frame+0x3d29>
            int bits = scf_size[i];
    68d5:	46 0f b6 94 34 8c 47 	movzbl 0x478c(%rsp,%r14,1),%r10d
    68dc:	00 00 
    68de:	44 89 d1             	mov    %r10d,%ecx
            if (!bits)
    68e1:	45 85 d2             	test   %r10d,%r10d
    68e4:	0f 85 25 12 00 00    	jne    7b0f <mp3dec_decode_frame+0x3d4f>
    68ea:	4c 89 f9             	mov    %r15,%rcx
    68ed:	4c 89 e2             	mov    %r12,%rdx
    68f0:	31 f6                	xor    %esi,%esi
    68f2:	4c 89 ef             	mov    %r13,%rdi
    68f5:	44 89 0c 24          	mov    %r9d,(%rsp)
    68f9:	e8 e2 bc ff ff       	call   25e0 <__memset_chk@plt>
    68fe:	48 89 e9             	mov    %rbp,%rcx
    6901:	4c 89 e2             	mov    %r12,%rdx
    6904:	31 f6                	xor    %esi,%esi
    6906:	48 89 df             	mov    %rbx,%rdi
    6909:	e8 d2 bc ff ff       	call   25e0 <__memset_chk@plt>
    690e:	44 8b 0c 24          	mov    (%rsp),%r9d
    6912:	f3 0f 10 1d 66 ad 00 	movss  0xad66(%rip),%xmm3        # 11680 <g_pow43+0x260>
    6919:	00 
        ist_pos += cnt;
    691a:	b8 80 3f 00 00       	mov    $0x3f80,%eax
    691f:	48 39 c5             	cmp    %rax,%rbp
    6922:	48 0f 43 c5          	cmovae %rbp,%rax
    6926:	4a 8d 0c 20          	lea    (%rax,%r12,1),%rcx
    692a:	48 89 ca             	mov    %rcx,%rdx
    692d:	48 29 ea             	sub    %rbp,%rdx
    6930:	48 39 c2             	cmp    %rax,%rdx
    6933:	48 0f 42 d0          	cmovb  %rax,%rdx
    6937:	48 29 cd             	sub    %rcx,%rbp
    693a:	b8 28 00 00 00       	mov    $0x28,%eax
    693f:	4c 01 e3             	add    %r12,%rbx
        scf += cnt;
    6942:	48 01 d5             	add    %rdx,%rbp
    6945:	49 39 c7             	cmp    %rax,%r15
    6948:	49 0f 43 c7          	cmovae %r15,%rax
    694c:	4a 8d 0c 20          	lea    (%rax,%r12,1),%rcx
    6950:	48 89 ca             	mov    %rcx,%rdx
    6953:	4c 29 fa             	sub    %r15,%rdx
    6956:	48 39 c2             	cmp    %rax,%rdx
    6959:	48 0f 42 d0          	cmovb  %rax,%rdx
    695d:	49 29 cf             	sub    %rcx,%r15
    for (i = 0; i < 4 && scf_count[i]; i++, scfsi *= 2)
    6960:	49 83 c6 01          	add    $0x1,%r14
        scf += cnt;
    6964:	4d 01 e5             	add    %r12,%r13
    for (i = 0; i < 4 && scf_count[i]; i++, scfsi *= 2)
    6967:	45 01 c9             	add    %r9d,%r9d
    696a:	49 01 d7             	add    %rdx,%r15
    696d:	49 83 fe 04          	cmp    $0x4,%r14
    6971:	0f 85 3e ff ff ff    	jne    68b5 <mp3dec_decode_frame+0x2af5>
    if (gr->n_short_sfb)
    6977:	48 8b 9c 24 90 00 00 	mov    0x90(%rsp),%rbx
    697e:	00 
    scf[0] = scf[1] = scf[2] = 0;
    697f:	45 31 c0             	xor    %r8d,%r8d
    6982:	41 c6 45 02 00       	movb   $0x0,0x2(%r13)
    6987:	66 45 89 45 00       	mov    %r8w,0x0(%r13)
    if (gr->n_short_sfb)
    698c:	0f b6 7b ff          	movzbl -0x1(%rbx),%edi
    6990:	40 84 ff             	test   %dil,%dil
    6993:	0f 84 07 2a 00 00    	je     93a0 <mp3dec_decode_frame+0x55e0>
        int sh = 3 - scf_shift;
    6999:	8b 44 24 30          	mov    0x30(%rsp),%eax
    699d:	b9 03 00 00 00       	mov    $0x3,%ecx
            iscf[gr->n_long_sfb + i + 2] += gr->subblock_gain[2] << sh;
    69a2:	44 0f b6 43 08       	movzbl 0x8(%rbx),%r8d
            iscf[gr->n_long_sfb + i + 0] += gr->subblock_gain[0] << sh;
    69a7:	0f b6 73 fe          	movzbl -0x2(%rbx),%esi
        int sh = 3 - scf_shift;
    69ab:	29 c1                	sub    %eax,%ecx
            iscf[gr->n_long_sfb + i + 0] += gr->subblock_gain[0] << sh;
    69ad:	0f b6 43 06          	movzbl 0x6(%rbx),%eax
            iscf[gr->n_long_sfb + i + 2] += gr->subblock_gain[2] << sh;
    69b1:	41 d3 e0             	shl    %cl,%r8d
            iscf[gr->n_long_sfb + i + 0] += gr->subblock_gain[0] << sh;
    69b4:	49 89 f3             	mov    %rsi,%r11
    69b7:	d3 e0                	shl    %cl,%eax
    69b9:	89 c5                	mov    %eax,%ebp
    69bb:	41 89 c4             	mov    %eax,%r12d
            iscf[gr->n_long_sfb + i + 1] += gr->subblock_gain[1] << sh;
    69be:	0f b6 43 07          	movzbl 0x7(%rbx),%eax
    69c2:	d3 e0                	shl    %cl,%eax
    69c4:	b9 ab aa aa aa       	mov    $0xaaaaaaab,%ecx
    69c9:	41 89 c5             	mov    %eax,%r13d
    69cc:	8d 47 ff             	lea    -0x1(%rdi),%eax
    69cf:	48 89 c2             	mov    %rax,%rdx
    69d2:	48 0f af c1          	imul   %rcx,%rax
    69d6:	48 c1 e8 21          	shr    $0x21,%rax
    69da:	49 89 c7             	mov    %rax,%r15
    69dd:	44 8d 70 01          	lea    0x1(%rax),%r14d
    69e1:	83 fa 14             	cmp    $0x14,%edx
    69e4:	0f 86 7e 31 00 00    	jbe    9b68 <mp3dec_decode_frame+0x5da8>
            iscf[gr->n_long_sfb + i + 0] += gr->subblock_gain[0] << sh;
    69ea:	40 0f b6 d5          	movzbl %bpl,%edx
    69ee:	44 0f b6 d6          	movzbl %sil,%r10d
    69f2:	45 0f b6 c8          	movzbl %r8b,%r9d
    69f6:	41 0f b6 cd          	movzbl %r13b,%ecx
    69fa:	48 8b 84 24 b0 00 00 	mov    0xb0(%rsp),%rax
    6a01:	00 
    6a02:	49 01 c2             	add    %rax,%r10
    6a05:	48 89 d0             	mov    %rdx,%rax
    6a08:	48 c1 e0 08          	shl    $0x8,%rax
    6a0c:	f3 41 0f 7e 42 08    	movq   0x8(%r10),%xmm0
    6a12:	4c 09 c8             	or     %r9,%rax
    6a15:	48 c1 e0 08          	shl    $0x8,%rax
    6a19:	48 09 c8             	or     %rcx,%rax
    6a1c:	48 c1 e0 08          	shl    $0x8,%rax
    6a20:	48 09 d0             	or     %rdx,%rax
    6a23:	48 c1 e0 08          	shl    $0x8,%rax
    6a27:	4c 09 c8             	or     %r9,%rax
    6a2a:	48 c1 e0 08          	shl    $0x8,%rax
    6a2e:	48 09 c8             	or     %rcx,%rax
    6a31:	48 c1 e0 08          	shl    $0x8,%rax
    6a35:	48 09 d0             	or     %rdx,%rax
    6a38:	48 c1 e0 08          	shl    $0x8,%rax
    6a3c:	4c 09 c8             	or     %r9,%rax
    6a3f:	66 48 0f 6e c8       	movq   %rax,%xmm1
    6a44:	4c 89 c8             	mov    %r9,%rax
    6a47:	48 c1 e0 08          	shl    $0x8,%rax
    6a4b:	66 0f fc c8          	paddb  %xmm0,%xmm1
    6a4f:	f3 41 0f 7e 42 10    	movq   0x10(%r10),%xmm0
    6a55:	48 09 c8             	or     %rcx,%rax
    6a58:	48 c1 e0 08          	shl    $0x8,%rax
    6a5c:	48 09 d0             	or     %rdx,%rax
    6a5f:	66 41 0f d6 4a 08    	movq   %xmm1,0x8(%r10)
    6a65:	48 c1 e0 08          	shl    $0x8,%rax
    6a69:	4c 09 c8             	or     %r9,%rax
    6a6c:	48 c1 e0 08          	shl    $0x8,%rax
    6a70:	48 09 c8             	or     %rcx,%rax
    6a73:	48 c1 e0 08          	shl    $0x8,%rax
    6a77:	48 09 d0             	or     %rdx,%rax
    6a7a:	48 c1 e0 08          	shl    $0x8,%rax
    6a7e:	4c 09 c8             	or     %r9,%rax
    6a81:	48 c1 e0 08          	shl    $0x8,%rax
    6a85:	48 09 c8             	or     %rcx,%rax
    6a88:	66 48 0f 6e d0       	movq   %rax,%xmm2
    6a8d:	48 89 c8             	mov    %rcx,%rax
    6a90:	48 c1 e0 08          	shl    $0x8,%rax
    6a94:	66 0f fc c2          	paddb  %xmm2,%xmm0
    6a98:	f3 41 0f 7e 12       	movq   (%r10),%xmm2
    6a9d:	48 09 d0             	or     %rdx,%rax
    6aa0:	48 c1 e0 08          	shl    $0x8,%rax
    6aa4:	4c 09 c8             	or     %r9,%rax
    6aa7:	66 41 0f d6 42 10    	movq   %xmm0,0x10(%r10)
    6aad:	48 c1 e0 08          	shl    $0x8,%rax
    6ab1:	48 09 c8             	or     %rcx,%rax
    6ab4:	48 c1 e0 08          	shl    $0x8,%rax
    6ab8:	48 09 d0             	or     %rdx,%rax
    6abb:	48 c1 e0 08          	shl    $0x8,%rax
    6abf:	49 09 c1             	or     %rax,%r9
    6ac2:	49 c1 e1 08          	shl    $0x8,%r9
    6ac6:	4c 09 c9             	or     %r9,%rcx
    6ac9:	48 c1 e1 08          	shl    $0x8,%rcx
    6acd:	48 09 d1             	or     %rdx,%rcx
    6ad0:	44 89 f2             	mov    %r14d,%edx
    6ad3:	66 48 0f 6e e1       	movq   %rcx,%xmm4
    6ad8:	83 e2 f8             	and    $0xfffffff8,%edx
    6adb:	41 83 e6 07          	and    $0x7,%r14d
    6adf:	66 0f fc d4          	paddb  %xmm4,%xmm2
    6ae3:	8d 04 52             	lea    (%rdx,%rdx,2),%eax
    6ae6:	66 41 0f d6 12       	movq   %xmm2,(%r10)
    6aeb:	0f 84 3e 01 00 00    	je     6c2f <mp3dec_decode_frame+0x2e6f>
    6af1:	44 89 f9             	mov    %r15d,%ecx
    6af4:	29 d1                	sub    %edx,%ecx
    6af6:	44 8d 71 01          	lea    0x1(%rcx),%r14d
    6afa:	83 f9 02             	cmp    $0x2,%ecx
    6afd:	0f 86 a9 00 00 00    	jbe    6bac <mp3dec_decode_frame+0x2dec>
    6b03:	48 8b 9c 24 b0 00 00 	mov    0xb0(%rsp),%rbx
    6b0a:	00 
    6b0b:	48 8d 14 52          	lea    (%rdx,%rdx,2),%rdx
    6b0f:	45 0f b6 cd          	movzbl %r13b,%r9d
    6b13:	45 0f b6 d0          	movzbl %r8b,%r10d
    6b17:	4c 01 da             	add    %r11,%rdx
    6b1a:	44 0f b6 dd          	movzbl %bpl,%r11d
    6b1e:	48 8d 0c 13          	lea    (%rbx,%rdx,1),%rcx
    6b22:	44 89 ca             	mov    %r9d,%edx
    6b25:	c1 e2 08             	shl    $0x8,%edx
    6b28:	66 0f 6e 41 04       	movd   0x4(%rcx),%xmm0
    6b2d:	44 09 da             	or     %r11d,%edx
    6b30:	c1 e2 08             	shl    $0x8,%edx
    6b33:	44 09 d2             	or     %r10d,%edx
    6b36:	c1 e2 08             	shl    $0x8,%edx
    6b39:	44 09 ca             	or     %r9d,%edx
    6b3c:	66 0f 6e ca          	movd   %edx,%xmm1
    6b40:	44 89 d2             	mov    %r10d,%edx
    6b43:	c1 e2 08             	shl    $0x8,%edx
    6b46:	66 0f fc c8          	paddb  %xmm0,%xmm1
    6b4a:	66 0f 6e 41 08       	movd   0x8(%rcx),%xmm0
    6b4f:	44 09 ca             	or     %r9d,%edx
    6b52:	c1 e2 08             	shl    $0x8,%edx
    6b55:	44 09 da             	or     %r11d,%edx
    6b58:	66 0f 7e 49 04       	movd   %xmm1,0x4(%rcx)
    6b5d:	c1 e2 08             	shl    $0x8,%edx
    6b60:	44 09 d2             	or     %r10d,%edx
    6b63:	66 0f 6e d2          	movd   %edx,%xmm2
    6b67:	44 89 da             	mov    %r11d,%edx
    6b6a:	c1 e2 08             	shl    $0x8,%edx
    6b6d:	66 0f fc c2          	paddb  %xmm2,%xmm0
    6b71:	66 0f 6e 11          	movd   (%rcx),%xmm2
    6b75:	41 09 d2             	or     %edx,%r10d
    6b78:	41 c1 e2 08          	shl    $0x8,%r10d
    6b7c:	45 09 d1             	or     %r10d,%r9d
    6b7f:	66 0f 7e 41 08       	movd   %xmm0,0x8(%rcx)
    6b84:	41 c1 e1 08          	shl    $0x8,%r9d
    6b88:	45 09 d9             	or     %r11d,%r9d
    6b8b:	66 41 0f 6e e1       	movd   %r9d,%xmm4
    6b90:	66 0f fc d4          	paddb  %xmm4,%xmm2
    6b94:	66 0f 7e 11          	movd   %xmm2,(%rcx)
    6b98:	41 f6 c6 03          	test   $0x3,%r14b
    6b9c:	0f 84 8d 00 00 00    	je     6c2f <mp3dec_decode_frame+0x2e6f>
    6ba2:	41 83 e6 fc          	and    $0xfffffffc,%r14d
    6ba6:	43 8d 14 76          	lea    (%r14,%r14,2),%edx
    6baa:	01 d0                	add    %edx,%eax
    6bac:	8d 14 06             	lea    (%rsi,%rax,1),%edx
    6baf:	4c 8b b4 24 b0 00 00 	mov    0xb0(%rsp),%r14
    6bb6:	00 
    6bb7:	44 89 eb             	mov    %r13d,%ebx
    6bba:	41 0f b6 cc          	movzbl %r12b,%ecx
    6bbe:	4c 63 ca             	movslq %edx,%r9
    6bc1:	88 dd                	mov    %bl,%ch
            iscf[gr->n_long_sfb + i + 2] += gr->subblock_gain[2] << sh;
    6bc3:	83 c2 02             	add    $0x2,%edx
    6bc6:	4d 01 f1             	add    %r14,%r9
    6bc9:	48 63 d2             	movslq %edx,%rdx
            iscf[gr->n_long_sfb + i + 0] += gr->subblock_gain[0] << sh;
    6bcc:	41 0f b7 19          	movzwl (%r9),%ebx
    6bd0:	00 cb                	add    %cl,%bl
    6bd2:	00 ef                	add    %ch,%bh
    6bd4:	66 41 89 19          	mov    %bx,(%r9)
            iscf[gr->n_long_sfb + i + 2] += gr->subblock_gain[2] << sh;
    6bd8:	44 00 84 14 90 47 00 	add    %r8b,0x4790(%rsp,%rdx,1)
    6bdf:	00 
        for (i = 0; i < gr->n_short_sfb; i += 3)
    6be0:	8d 50 03             	lea    0x3(%rax),%edx
    6be3:	39 fa                	cmp    %edi,%edx
    6be5:	7d 48                	jge    6c2f <mp3dec_decode_frame+0x2e6f>
            iscf[gr->n_long_sfb + i + 0] += gr->subblock_gain[0] << sh;
    6be7:	01 f2                	add    %esi,%edx
        for (i = 0; i < gr->n_short_sfb; i += 3)
    6be9:	83 c0 06             	add    $0x6,%eax
    6bec:	4c 63 ca             	movslq %edx,%r9
            iscf[gr->n_long_sfb + i + 2] += gr->subblock_gain[2] << sh;
    6bef:	83 c2 02             	add    $0x2,%edx
    6bf2:	4d 01 f1             	add    %r14,%r9
    6bf5:	48 63 d2             	movslq %edx,%rdx
            iscf[gr->n_long_sfb + i + 0] += gr->subblock_gain[0] << sh;
    6bf8:	41 0f b7 19          	movzwl (%r9),%ebx
    6bfc:	00 cb                	add    %cl,%bl
    6bfe:	00 ef                	add    %ch,%bh
    6c00:	66 41 89 19          	mov    %bx,(%r9)
            iscf[gr->n_long_sfb + i + 2] += gr->subblock_gain[2] << sh;
    6c04:	44 00 84 14 90 47 00 	add    %r8b,0x4790(%rsp,%rdx,1)
    6c0b:	00 
        for (i = 0; i < gr->n_short_sfb; i += 3)
    6c0c:	39 c7                	cmp    %eax,%edi
    6c0e:	7e 1f                	jle    6c2f <mp3dec_decode_frame+0x2e6f>
            iscf[gr->n_long_sfb + i + 0] += gr->subblock_gain[0] << sh;
    6c10:	01 f0                	add    %esi,%eax
    6c12:	48 63 d0             	movslq %eax,%rdx
            iscf[gr->n_long_sfb + i + 2] += gr->subblock_gain[2] << sh;
    6c15:	83 c0 02             	add    $0x2,%eax
    6c18:	4c 01 f2             	add    %r14,%rdx
    6c1b:	48 98                	cltq
            iscf[gr->n_long_sfb + i + 0] += gr->subblock_gain[0] << sh;
    6c1d:	0f b7 1a             	movzwl (%rdx),%ebx
    6c20:	00 d9                	add    %bl,%cl
    6c22:	00 fd                	add    %bh,%ch
    6c24:	66 89 0a             	mov    %cx,(%rdx)
            iscf[gr->n_long_sfb + i + 2] += gr->subblock_gain[2] << sh;
    6c27:	44 00 84 04 90 47 00 	add    %r8b,0x4790(%rsp,%rax,1)
    6c2e:	00 
    gain_exp = gr->global_gain + BITS_DEQUANTIZER_OUT*4 - 210 - (HDR_IS_MS_STEREO(hdr) ? 2 : 0);
    6c2f:	48 8b 84 24 90 00 00 	mov    0x90(%rsp),%rax
    6c36:	00 
    gain = L3_ldexp_q2(1 << (MAX_SCFI/4),  MAX_SCFI - gain_exp);
    6c37:	f3 0f 10 15 29 84 00 	movss  0x8429(%rip),%xmm2        # f068 <_IO_stdin_used+0x68>
    6c3e:	00 
        y *= g_expfrac[e & 3]*(1 << 30 >> (e >> 2));
    6c3f:	41 b8 00 00 00 40    	mov    $0x40000000,%r8d
    6c45:	4c 8b 8c 24 10 01 00 	mov    0x110(%rsp),%r9
    6c4c:	00 
    gain_exp = gr->global_gain + BITS_DEQUANTIZER_OUT*4 - 210 - (HDR_IS_MS_STEREO(hdr) ? 2 : 0);
    6c4d:	0f b6 50 fb          	movzbl -0x5(%rax),%edx
    6c51:	48 8b 84 24 f0 03 00 	mov    0x3f0(%rsp),%rax
    6c58:	00 
    6c59:	0f b6 80 0b 18 00 00 	movzbl 0x180b(%rax),%eax
    6c60:	88 04 24             	mov    %al,(%rsp)
    6c63:	83 e0 e0             	and    $0xffffffe0,%eax
    6c66:	3c 60                	cmp    $0x60,%al
    6c68:	0f 94 c0             	sete   %al
    6c6b:	0f b6 c0             	movzbl %al,%eax
    6c6e:	01 c0                	add    %eax,%eax
    6c70:	29 d0                	sub    %edx,%eax
    gain = L3_ldexp_q2(1 << (MAX_SCFI/4),  MAX_SCFI - gain_exp);
    6c72:	8d 90 02 01 00 00    	lea    0x102(%rax),%edx
        e = MINIMP3_MIN(30*4, exp_q2);
    6c78:	b8 78 00 00 00       	mov    $0x78,%eax
        y *= g_expfrac[e & 3]*(1 << 30 >> (e >> 2));
    6c7d:	44 89 c3             	mov    %r8d,%ebx
    6c80:	66 0f ef c0          	pxor   %xmm0,%xmm0
        e = MINIMP3_MIN(30*4, exp_q2);
    6c84:	39 c2                	cmp    %eax,%edx
    6c86:	0f 4e c2             	cmovle %edx,%eax
        y *= g_expfrac[e & 3]*(1 << 30 >> (e >> 2));
    6c89:	89 c1                	mov    %eax,%ecx
    } while ((exp_q2 -= e) > 0);
    6c8b:	29 c2                	sub    %eax,%edx
        y *= g_expfrac[e & 3]*(1 << 30 >> (e >> 2));
    6c8d:	c1 f9 02             	sar    $0x2,%ecx
    6c90:	d3 fb                	sar    %cl,%ebx
    6c92:	89 c1                	mov    %eax,%ecx
    6c94:	83 e1 03             	and    $0x3,%ecx
    6c97:	f3 0f 2a c3          	cvtsi2ss %ebx,%xmm0
    6c9b:	f3 41 0f 59 04 89    	mulss  (%r9,%rcx,4),%xmm0
    6ca1:	f3 0f 59 d0          	mulss  %xmm0,%xmm2
    } while ((exp_q2 -= e) > 0);
    6ca5:	85 d2                	test   %edx,%edx
    6ca7:	7f cf                	jg     6c78 <mp3dec_decode_frame+0x2eb8>
    for (i = 0; i < (int)(gr->n_long_sfb + gr->n_short_sfb); i++)
    6ca9:	01 fe                	add    %edi,%esi
    6cab:	41 b8 00 00 00 00    	mov    $0x0,%r8d
        y *= g_expfrac[e & 3]*(1 << 30 >> (e >> 2));
    6cb1:	bf 00 00 00 40       	mov    $0x40000000,%edi
    6cb6:	4c 63 ce             	movslq %esi,%r9
    for (i = 0; i < (int)(gr->n_long_sfb + gr->n_short_sfb); i++)
    6cb9:	74 72                	je     6d2d <mp3dec_decode_frame+0x2f6d>
    6cbb:	44 8b 54 24 30       	mov    0x30(%rsp),%r10d
    6cc0:	4c 8b 9c 24 18 04 00 	mov    0x418(%rsp),%r11
    6cc7:	00 
    6cc8:	48 8b 9c 24 b0 00 00 	mov    0xb0(%rsp),%rbx
    6ccf:	00 
    6cd0:	48 8b b4 24 10 01 00 	mov    0x110(%rsp),%rsi
    6cd7:	00 
        scf[i] = L3_ldexp_q2(gain, iscf[i] << scf_shift);
    6cd8:	42 0f b6 14 03       	movzbl (%rbx,%r8,1),%edx
    6cdd:	44 89 d1             	mov    %r10d,%ecx
    6ce0:	0f 28 ca             	movaps %xmm2,%xmm1
    6ce3:	d3 e2                	shl    %cl,%edx
static float L3_ldexp_q2(float y, int exp_q2)
    6ce5:	0f 1f 00             	nopl   (%rax)
        e = MINIMP3_MIN(30*4, exp_q2);
    6ce8:	b8 78 00 00 00       	mov    $0x78,%eax
        y *= g_expfrac[e & 3]*(1 << 30 >> (e >> 2));
    6ced:	41 89 fe             	mov    %edi,%r14d
    6cf0:	66 0f ef c0          	pxor   %xmm0,%xmm0
        e = MINIMP3_MIN(30*4, exp_q2);
    6cf4:	39 c2                	cmp    %eax,%edx
    6cf6:	0f 4e c2             	cmovle %edx,%eax
        y *= g_expfrac[e & 3]*(1 << 30 >> (e >> 2));
    6cf9:	89 c1                	mov    %eax,%ecx
    } while ((exp_q2 -= e) > 0);
    6cfb:	29 c2                	sub    %eax,%edx
        y *= g_expfrac[e & 3]*(1 << 30 >> (e >> 2));
    6cfd:	c1 f9 02             	sar    $0x2,%ecx
    6d00:	41 d3 fe             	sar    %cl,%r14d
    6d03:	89 c1                	mov    %eax,%ecx
    6d05:	83 e1 03             	and    $0x3,%ecx
    6d08:	f3 41 0f 2a c6       	cvtsi2ss %r14d,%xmm0
    6d0d:	f3 0f 59 04 8e       	mulss  (%rsi,%rcx,4),%xmm0
    6d12:	f3 0f 59 c8          	mulss  %xmm0,%xmm1
    } while ((exp_q2 -= e) > 0);
    6d16:	85 d2                	test   %edx,%edx
    6d18:	7f ce                	jg     6ce8 <mp3dec_decode_frame+0x2f28>
        scf[i] = L3_ldexp_q2(gain, iscf[i] << scf_shift);
    6d1a:	f3 43 0f 11 8c 83 90 	movss  %xmm1,0x1d90(%r11,%r8,4)
    6d21:	1d 00 00 
    for (i = 0; i < (int)(gr->n_long_sfb + gr->n_short_sfb); i++)
    6d24:	49 83 c0 01          	add    $0x1,%r8
    6d28:	4d 39 c8             	cmp    %r9,%r8
    6d2b:	75 ab                	jne    6cd8 <mp3dec_decode_frame+0x2f18>
    const uint8_t *bs_next_ptr = bs->buf + bs->pos/8;
    6d2d:	8b 8c 24 08 08 00 00 	mov    0x808(%rsp),%ecx
    6d34:	48 8b 94 24 00 08 00 	mov    0x800(%rsp),%rdx
    6d3b:	00 
    int ireg = 0, big_val_cnt = gr_info->big_values;
    6d3c:	48 8b 84 24 90 00 00 	mov    0x90(%rsp),%rax
    6d43:	00 
        L3_huffman(s->grbuf[ch], &s->bs, gr_info + ch, s->scf, layer3gr_limit);
    6d44:	48 8b ac 24 f0 00 00 	mov    0xf0(%rsp),%rbp
    6d4b:	00 
    const uint8_t *bs_next_ptr = bs->buf + bs->pos/8;
    6d4c:	85 c9                	test   %ecx,%ecx
    6d4e:	8d 71 07             	lea    0x7(%rcx),%esi
    6d51:	0f 49 f1             	cmovns %ecx,%esi
    int ireg = 0, big_val_cnt = gr_info->big_values;
    6d54:	0f b7 58 f7          	movzwl -0x9(%rax),%ebx
    uint32_t bs_cache = (((bs_next_ptr[0]*256u + bs_next_ptr[1])*256u + bs_next_ptr[2])*256u + bs_next_ptr[3]) << (bs->pos & 7);
    6d58:	83 e1 07             	and    $0x7,%ecx
    const uint8_t *sfb = gr_info->sfbtab;
    6d5b:	4c 8b 68 ed          	mov    -0x13(%rax),%r13
    int pairs_to_decode, np, bs_sh = (bs->pos & 7) - 8;
    6d5f:	44 8d 79 f8          	lea    -0x8(%rcx),%r15d
    const uint8_t *bs_next_ptr = bs->buf + bs->pos/8;
    6d63:	c1 fe 03             	sar    $0x3,%esi
    int ireg = 0, big_val_cnt = gr_info->big_values;
    6d66:	41 89 da             	mov    %ebx,%r10d
    const uint8_t *bs_next_ptr = bs->buf + bs->pos/8;
    6d69:	48 63 f6             	movslq %esi,%rsi
    6d6c:	48 01 d6             	add    %rdx,%rsi
    uint32_t bs_cache = (((bs_next_ptr[0]*256u + bs_next_ptr[1])*256u + bs_next_ptr[2])*256u + bs_next_ptr[3]) << (bs->pos & 7);
    6d6f:	0f b6 3e             	movzbl (%rsi),%edi
    6d72:	44 0f b6 46 01       	movzbl 0x1(%rsi),%r8d
    bs_next_ptr += 4;
    6d77:	4c 8d 76 04          	lea    0x4(%rsi),%r14
    uint32_t bs_cache = (((bs_next_ptr[0]*256u + bs_next_ptr[1])*256u + bs_next_ptr[2])*256u + bs_next_ptr[3]) << (bs->pos & 7);
    6d7b:	c1 e7 08             	shl    $0x8,%edi
    6d7e:	44 01 c7             	add    %r8d,%edi
    6d81:	44 0f b6 46 02       	movzbl 0x2(%rsi),%r8d
    6d86:	c1 e7 08             	shl    $0x8,%edi
    6d89:	44 01 c7             	add    %r8d,%edi
    6d8c:	44 0f b6 46 03       	movzbl 0x3(%rsi),%r8d
    6d91:	c1 e7 08             	shl    $0x8,%edi
    6d94:	44 01 c7             	add    %r8d,%edi
    6d97:	d3 e7                	shl    %cl,%edi
    6d99:	41 89 fc             	mov    %edi,%r12d
    while (big_val_cnt > 0)
    6d9c:	85 db                	test   %ebx,%ebx
    6d9e:	0f 84 c6 2c 00 00    	je     9a6a <mp3dec_decode_frame+0x5caa>
    return g_pow43[16 + ((x + sign) >> 6)]*(1.f + frac*((4.f/3) + frac*(2.f/9)))*mult;
    6da4:	48 89 94 24 30 01 00 	mov    %rdx,0x130(%rsp)
    6dab:	00 
    6dac:	49 89 c1             	mov    %rax,%r9
    while (big_val_cnt > 0)
    6daf:	4c 8b 84 24 20 01 00 	mov    0x120(%rsp),%r8
    6db6:	00 
    6db7:	48 8d 1d 62 a6 00 00 	lea    0xa662(%rip),%rbx        # 11420 <g_pow43>
    return g_pow43[16 + ((x + sign) >> 6)]*(1.f + frac*((4.f/3) + frac*(2.f/9)))*mult;
    6dbe:	f3 0f 10 35 ba 82 00 	movss  0x82ba(%rip),%xmm6        # f080 <_IO_stdin_used+0x80>
    6dc5:	00 
    6dc6:	4c 89 e8             	mov    %r13,%rax
    6dc9:	45 89 d3             	mov    %r10d,%r11d
    6dcc:	4c 89 ce             	mov    %r9,%rsi
    6dcf:	f3 0f 10 2d ad 82 00 	movss  0x82ad(%rip),%xmm5        # f084 <_IO_stdin_used+0x84>
    6dd6:	00 
    6dd7:	f3 0f 10 25 99 82 00 	movss  0x8299(%rip),%xmm4        # f078 <_IO_stdin_used+0x78>
    6dde:	00 
        const int16_t *codebook = tabs + tabindex[tab_num];
    6ddf:	0f b6 0e             	movzbl (%rsi),%ecx
    6de2:	48 8d 3d d7 a0 00 00 	lea    0xa0d7(%rip),%rdi        # 10ec0 <tabindex.17>
    6de9:	4c 8d 15 d0 8f 00 00 	lea    0x8fd0(%rip),%r10        # fdc0 <tabs.16>
        int sfb_cnt = gr_info->region_count[ireg++];
    6df0:	0f b6 56 03          	movzbl 0x3(%rsi),%edx
        const int16_t *codebook = tabs + tabindex[tab_num];
    6df4:	48 0f bf 3c 4f       	movswq (%rdi,%rcx,2),%rdi
    6df9:	48 8d 54 10 01       	lea    0x1(%rax,%rdx,1),%rdx
    6dfe:	4d 8d 0c 7a          	lea    (%r10,%rdi,2),%r9
        int linbits = g_linbits[tab_num];
    6e02:	48 8d 3d 97 8f 00 00 	lea    0x8f97(%rip),%rdi        # fda0 <g_linbits.15>
    6e09:	0f b6 3c 0f          	movzbl (%rdi,%rcx,1),%edi
    6e0d:	89 7c 24 30          	mov    %edi,0x30(%rsp)
        if (linbits)
    6e11:	85 ff                	test   %edi,%edi
    6e13:	0f 84 1e 0b 00 00    	je     7937 <mp3dec_decode_frame+0x3b77>
                            lsb += PEEK_BITS(linbits);
    6e19:	41 bd 20 00 00 00    	mov    $0x20,%r13d
    6e1f:	48 89 b4 24 60 01 00 	mov    %rsi,0x160(%rsp)
    6e26:	00 
    6e27:	4c 89 c1             	mov    %r8,%rcx
    6e2a:	41 29 fd             	sub    %edi,%r13d
    6e2d:	48 89 94 24 80 00 00 	mov    %rdx,0x80(%rsp)
    6e34:	00 
    6e35:	48 89 c2             	mov    %rax,%rdx
    6e38:	44 89 6c 24 40       	mov    %r13d,0x40(%rsp)
    6e3d:	0f 1f 00             	nopl   (%rax)
                np = *sfb++ / 2;
    6e40:	0f b6 02             	movzbl (%rdx),%eax
                one = *scf++;
    6e43:	f3 0f 10 09          	movss  (%rcx),%xmm1
                np = *sfb++ / 2;
    6e47:	48 83 c2 01          	add    $0x1,%rdx
                one = *scf++;
    6e4b:	48 83 c1 04          	add    $0x4,%rcx
                pairs_to_decode = MINIMP3_MIN(big_val_cnt, np);
    6e4f:	44 89 de             	mov    %r11d,%esi
    6e52:	48 89 6c 24 50       	mov    %rbp,0x50(%rsp)
    6e57:	48 8d 7d 08          	lea    0x8(%rbp),%rdi
                np = *sfb++ / 2;
    6e5b:	d0 e8                	shr    $1,%al
    6e5d:	0f b6 c0             	movzbl %al,%eax
                pairs_to_decode = MINIMP3_MIN(big_val_cnt, np);
    6e60:	44 39 d8             	cmp    %r11d,%eax
    6e63:	89 44 24 70          	mov    %eax,0x70(%rsp)
    6e67:	0f 4e f0             	cmovle %eax,%esi
    6e6a:	44 8d 46 ff          	lea    -0x1(%rsi),%r8d
    6e6e:	4e 8d 54 c5 10       	lea    0x10(%rbp,%r8,8),%r10
    6e73:	4c 89 44 24 60       	mov    %r8,0x60(%rsp)
    6e78:	44 89 dd             	mov    %r11d,%ebp
    6e7b:	49 89 d0             	mov    %rdx,%r8
    6e7e:	49 89 cb             	mov    %rcx,%r11
    6e81:	0f 1f 80 00 00 00 00 	nopl   0x0(%rax)
                    int leaf = codebook[PEEK_BITS(w)];
    6e88:	44 89 e0             	mov    %r12d,%eax
    6e8b:	48 8d 57 f8          	lea    -0x8(%rdi),%rdx
    6e8f:	c1 e8 1b             	shr    $0x1b,%eax
    6e92:	41 0f bf 04 41       	movswl (%r9,%rax,2),%eax
                    while (leaf < 0)
    6e97:	85 c0                	test   %eax,%eax
    6e99:	79 30                	jns    6ecb <mp3dec_decode_frame+0x310b>
                    int j, w = 5;
    6e9b:	be 05 00 00 00       	mov    $0x5,%esi
                        FLUSH_BITS(w);
    6ea0:	89 f1                	mov    %esi,%ecx
    6ea2:	41 01 f7             	add    %esi,%r15d
                        w = leaf & 7;
    6ea5:	89 c6                	mov    %eax,%esi
                        leaf = codebook[PEEK_BITS(w) - (leaf >> 3)];
    6ea7:	c1 f8 03             	sar    $0x3,%eax
                        FLUSH_BITS(w);
    6eaa:	41 d3 e4             	shl    %cl,%r12d
                        w = leaf & 7;
    6ead:	83 e6 07             	and    $0x7,%esi
                        leaf = codebook[PEEK_BITS(w) - (leaf >> 3)];
    6eb0:	b9 20 00 00 00       	mov    $0x20,%ecx
    6eb5:	29 f1                	sub    %esi,%ecx
    6eb7:	45 89 e5             	mov    %r12d,%r13d
    6eba:	41 d3 ed             	shr    %cl,%r13d
    6ebd:	44 89 e9             	mov    %r13d,%ecx
    6ec0:	29 c1                	sub    %eax,%ecx
    6ec2:	41 0f bf 04 49       	movswl (%r9,%rcx,2),%eax
                    while (leaf < 0)
    6ec7:	85 c0                	test   %eax,%eax
    6ec9:	78 d5                	js     6ea0 <mp3dec_decode_frame+0x30e0>
                    FLUSH_BITS(leaf >> 8);
    6ecb:	89 c1                	mov    %eax,%ecx
    6ecd:	4c 89 04 24          	mov    %r8,(%rsp)
    6ed1:	41 89 e8             	mov    %ebp,%r8d
    6ed4:	4c 89 cd             	mov    %r9,%rbp
    6ed7:	c1 f9 08             	sar    $0x8,%ecx
    6eda:	41 d3 e4             	shl    %cl,%r12d
    6edd:	41 01 cf             	add    %ecx,%r15d
                        int lsb = leaf & 0x0F;
    6ee0:	89 c6                	mov    %eax,%esi
    6ee2:	83 e6 0f             	and    $0xf,%esi
                        if (lsb == 15)
    6ee5:	83 fe 0f             	cmp    $0xf,%esi
    6ee8:	0f 84 22 09 00 00    	je     7810 <mp3dec_decode_frame+0x3a50>
                            *dst = g_pow43[16 + lsb - 16*(bs_cache >> 31)]*one;
    6eee:	45 89 e1             	mov    %r12d,%r9d
    6ef1:	8d 4e 10             	lea    0x10(%rsi),%ecx
    6ef4:	41 c1 e9 1f          	shr    $0x1f,%r9d
    6ef8:	41 c1 e1 04          	shl    $0x4,%r9d
    6efc:	44 29 c9             	sub    %r9d,%ecx
    6eff:	f3 0f 10 04 8b       	movss  (%rbx,%rcx,4),%xmm0
    6f04:	f3 0f 59 c1          	mulss  %xmm1,%xmm0
                        FLUSH_BITS(lsb ? 1 : 0);
    6f08:	85 f6                	test   %esi,%esi
                            *dst = one*L3_pow_43(lsb)*((int32_t)bs_cache < 0 ? -1: 1);
    6f0a:	f3 0f 11 02          	movss  %xmm0,(%rdx)
                        FLUSH_BITS(lsb ? 1 : 0);
    6f0e:	40 0f 95 c6          	setne  %sil
    6f12:	0f 95 c1             	setne  %cl
                    for (j = 0; j < 2; j++, dst++, leaf >>= 4)
    6f15:	48 83 c2 04          	add    $0x4,%rdx
    6f19:	c1 f8 04             	sar    $0x4,%eax
                        FLUSH_BITS(lsb ? 1 : 0);
    6f1c:	40 0f b6 f6          	movzbl %sil,%esi
    6f20:	41 d3 e4             	shl    %cl,%r12d
    6f23:	41 01 f7             	add    %esi,%r15d
                    for (j = 0; j < 2; j++, dst++, leaf >>= 4)
    6f26:	48 39 fa             	cmp    %rdi,%rdx
    6f29:	75 b5                	jne    6ee0 <mp3dec_decode_frame+0x3120>
                    CHECK_BITS;
    6f2b:	49 89 e9             	mov    %rbp,%r9
    6f2e:	44 89 c5             	mov    %r8d,%ebp
    6f31:	4c 8b 04 24          	mov    (%rsp),%r8
    6f35:	45 85 ff             	test   %r15d,%r15d
    6f38:	78 3c                	js     6f76 <mp3dec_decode_frame+0x31b6>
    6f3a:	44 89 fe             	mov    %r15d,%esi
    6f3d:	44 89 f9             	mov    %r15d,%ecx
    6f40:	4c 89 f2             	mov    %r14,%rdx
    6f43:	83 ce f8             	or     $0xfffffff8,%esi
    6f46:	66 2e 0f 1f 84 00 00 	cs nopw 0x0(%rax,%rax,1)
    6f4d:	00 00 00 
    6f50:	0f b6 02             	movzbl (%rdx),%eax
    6f53:	48 83 c2 01          	add    $0x1,%rdx
    6f57:	d3 e0                	shl    %cl,%eax
    6f59:	83 e9 08             	sub    $0x8,%ecx
    6f5c:	41 09 c4             	or     %eax,%r12d
    6f5f:	39 f1                	cmp    %esi,%ecx
    6f61:	75 ed                	jne    6f50 <mp3dec_decode_frame+0x3190>
    6f63:	44 89 f8             	mov    %r15d,%eax
    6f66:	c1 e8 03             	shr    $0x3,%eax
    6f69:	8d 50 01             	lea    0x1(%rax),%edx
    6f6c:	f7 d8                	neg    %eax
    6f6e:	49 01 d6             	add    %rdx,%r14
    6f71:	45 8d 7c c7 f8       	lea    -0x8(%r15,%rax,8),%r15d
                } while (--pairs_to_decode);
    6f76:	48 83 c7 08          	add    $0x8,%rdi
    6f7a:	49 39 fa             	cmp    %rdi,%r10
    6f7d:	0f 85 05 ff ff ff    	jne    6e88 <mp3dec_decode_frame+0x30c8>
    6f83:	8b 44 24 70          	mov    0x70(%rsp),%eax
    6f87:	4c 89 c2             	mov    %r8,%rdx
    6f8a:	4c 89 d9             	mov    %r11,%rcx
    6f8d:	4c 8b 44 24 60       	mov    0x60(%rsp),%r8
    6f92:	41 89 eb             	mov    %ebp,%r11d
    6f95:	48 8b 6c 24 50       	mov    0x50(%rsp),%rbp
            } while ((big_val_cnt -= np) > 0 && --sfb_cnt >= 0);
    6f9a:	41 29 c3             	sub    %eax,%r11d
    6f9d:	4a 8d 6c c5 08       	lea    0x8(%rbp,%r8,8),%rbp
    6fa2:	45 85 db             	test   %r11d,%r11d
    6fa5:	0f 8e 72 0c 00 00    	jle    7c1d <mp3dec_decode_frame+0x3e5d>
    6fab:	48 8b 84 24 80 00 00 	mov    0x80(%rsp),%rax
    6fb2:	00 
    6fb3:	48 39 c2             	cmp    %rax,%rdx
    6fb6:	0f 85 84 fe ff ff    	jne    6e40 <mp3dec_decode_frame+0x3080>
    6fbc:	48 8b b4 24 60 01 00 	mov    0x160(%rsp),%rsi
    6fc3:	00 
    6fc4:	48 89 d0             	mov    %rdx,%rax
    6fc7:	49 89 c8             	mov    %rcx,%r8
    while (big_val_cnt > 0)
    6fca:	48 83 c6 01          	add    $0x1,%rsi
    6fce:	e9 0c fe ff ff       	jmp    6ddf <mp3dec_decode_frame+0x301f>
            gr->block_type = 0;
    6fd3:	45 31 db             	xor    %r11d,%r11d
    if ((bs->pos += n) > bs->limit)
    6fd6:	8d 77 10             	lea    0x10(%rdi),%esi
            gr->block_type = 0;
    6fd9:	66 44 89 5a 0f       	mov    %r11w,0xf(%rdx)
    if ((bs->pos += n) > bs->limit)
    6fde:	41 39 f6             	cmp    %esi,%r14d
    6fe1:	0f 8c 8b 01 00 00    	jl     7172 <mp3dec_decode_frame+0x33b2>
    next = *p++ & (255 >> s);
    6fe7:	44 89 c9             	mov    %r9d,%ecx
    6fea:	41 89 eb             	mov    %ebp,%r11d
    while ((shl -= 8) > 0)
    6fed:	41 8d 59 07          	lea    0x7(%r9),%ebx
    6ff1:	41 83 e9 01          	sub    $0x1,%r9d
    next = *p++ & (255 >> s);
    6ff5:	41 d3 fb             	sar    %cl,%r11d
    6ff8:	41 0f b6 08          	movzbl (%r8),%ecx
        next = *p++;
    6ffc:	45 0f b6 50 01       	movzbl 0x1(%r8),%r10d
    next = *p++ & (255 >> s);
    7001:	41 21 cb             	and    %ecx,%r11d
        cache |= next << shl;
    7004:	89 d9                	mov    %ebx,%ecx
    7006:	41 d3 e3             	shl    %cl,%r11d
    while ((shl -= 8) > 0)
    7009:	45 85 c9             	test   %r9d,%r9d
    700c:	0f 8e 8e 06 00 00    	jle    76a0 <mp3dec_decode_frame+0x38e0>
        cache |= next << shl;
    7012:	44 89 c9             	mov    %r9d,%ecx
    7015:	41 d3 e2             	shl    %cl,%r10d
    7018:	45 09 d3             	or     %r10d,%r11d
        next = *p++;
    701b:	45 0f b6 50 02       	movzbl 0x2(%r8),%r10d
    return cache | (next >> -shl);
    7020:	b9 08 00 00 00       	mov    $0x8,%ecx
    7025:	44 29 c9             	sub    %r9d,%ecx
    7028:	41 d3 ea             	shr    %cl,%r10d
    702b:	45 89 d1             	mov    %r10d,%r9d
    702e:	45 09 d9             	or     %r11d,%r9d
        gr->table_select[1] = (uint8_t)((tables >> 5) & 31);
    7031:	45 89 c8             	mov    %r9d,%r8d
        gr->table_select[0] = (uint8_t)(tables >> 10);
    7034:	45 89 ca             	mov    %r9d,%r10d
        gr->table_select[2] = (uint8_t)((tables) & 31);
    7037:	41 83 e1 1f          	and    $0x1f,%r9d
        gr->table_select[1] = (uint8_t)((tables >> 5) & 31);
    703b:	41 c1 e8 05          	shr    $0x5,%r8d
        gr->table_select[0] = (uint8_t)(tables >> 10);
    703f:	41 c1 ea 0a          	shr    $0xa,%r10d
        gr->table_select[1] = (uint8_t)((tables >> 5) & 31);
    7043:	41 83 e0 1f          	and    $0x1f,%r8d
    if ((bs->pos += n) > bs->limit)
    7047:	8d 5f 14             	lea    0x14(%rdi),%ebx
    704a:	31 c9                	xor    %ecx,%ecx
    704c:	89 9c 24 90 00 00 00 	mov    %ebx,0x90(%rsp)
    7053:	41 39 de             	cmp    %ebx,%r14d
    7056:	7c 43                	jl     709b <mp3dec_decode_frame+0x32db>
    uint32_t next, cache = 0, s = bs->pos & 7;
    7058:	89 f3                	mov    %esi,%ebx
    const uint8_t *p = bs->buf + (bs->pos >> 3);
    705a:	c1 fe 03             	sar    $0x3,%esi
    next = *p++ & (255 >> s);
    705d:	41 89 ec             	mov    %ebp,%r12d
    const uint8_t *p = bs->buf + (bs->pos >> 3);
    7060:	4c 63 de             	movslq %esi,%r11
    uint32_t next, cache = 0, s = bs->pos & 7;
    7063:	83 e3 07             	and    $0x7,%ebx
    const uint8_t *p = bs->buf + (bs->pos >> 3);
    7066:	4d 01 fb             	add    %r15,%r11
    next = *p++ & (255 >> s);
    7069:	89 d9                	mov    %ebx,%ecx
    706b:	41 0f b6 33          	movzbl (%r11),%esi
    706f:	41 d3 fc             	sar    %cl,%r12d
    while ((shl -= 8) > 0)
    7072:	8d 4b fc             	lea    -0x4(%rbx),%ecx
    next = *p++ & (255 >> s);
    7075:	44 21 e6             	and    %r12d,%esi
    while ((shl -= 8) > 0)
    7078:	85 c9                	test   %ecx,%ecx
    707a:	0f 8e f6 02 00 00    	jle    7376 <mp3dec_decode_frame+0x35b6>
        cache |= next << shl;
    7080:	89 f3                	mov    %esi,%ebx
        next = *p++;
    7082:	41 0f b6 73 01       	movzbl 0x1(%r11),%esi
        cache |= next << shl;
    7087:	d3 e3                	shl    %cl,%ebx
    return cache | (next >> -shl);
    7089:	41 bb 08 00 00 00    	mov    $0x8,%r11d
    708f:	41 29 cb             	sub    %ecx,%r11d
    7092:	44 89 d9             	mov    %r11d,%ecx
    7095:	d3 ee                	shr    %cl,%esi
    7097:	89 f1                	mov    %esi,%ecx
            gr->region_count[0] = (uint8_t)get_bits(bs, 4);
    7099:	09 d9                	or     %ebx,%ecx
    if ((bs->pos += n) > bs->limit)
    709b:	83 c7 17             	add    $0x17,%edi
            gr->region_count[0] = (uint8_t)get_bits(bs, 4);
    709e:	88 4a 16             	mov    %cl,0x16(%rdx)
    if ((bs->pos += n) > bs->limit)
    70a1:	31 c9                	xor    %ecx,%ecx
    70a3:	41 39 fe             	cmp    %edi,%r14d
    70a6:	7c 4a                	jl     70f2 <mp3dec_decode_frame+0x3332>
    uint32_t next, cache = 0, s = bs->pos & 7;
    70a8:	8b b4 24 90 00 00 00 	mov    0x90(%rsp),%esi
    next = *p++ & (255 >> s);
    70af:	41 89 ec             	mov    %ebp,%r12d
    uint32_t next, cache = 0, s = bs->pos & 7;
    70b2:	89 f3                	mov    %esi,%ebx
    const uint8_t *p = bs->buf + (bs->pos >> 3);
    70b4:	c1 fe 03             	sar    $0x3,%esi
    70b7:	4c 63 de             	movslq %esi,%r11
    uint32_t next, cache = 0, s = bs->pos & 7;
    70ba:	83 e3 07             	and    $0x7,%ebx
    const uint8_t *p = bs->buf + (bs->pos >> 3);
    70bd:	4d 01 fb             	add    %r15,%r11
    next = *p++ & (255 >> s);
    70c0:	89 d9                	mov    %ebx,%ecx
    70c2:	41 0f b6 33          	movzbl (%r11),%esi
    70c6:	41 d3 fc             	sar    %cl,%r12d
    while ((shl -= 8) > 0)
    70c9:	8d 4b fb             	lea    -0x5(%rbx),%ecx
    next = *p++ & (255 >> s);
    70cc:	44 21 e6             	and    %r12d,%esi
    while ((shl -= 8) > 0)
    70cf:	85 c9                	test   %ecx,%ecx
    70d1:	0f 8e 62 06 00 00    	jle    7739 <mp3dec_decode_frame+0x3979>
        cache |= next << shl;
    70d7:	89 f3                	mov    %esi,%ebx
        next = *p++;
    70d9:	41 0f b6 73 01       	movzbl 0x1(%r11),%esi
        cache |= next << shl;
    70de:	d3 e3                	shl    %cl,%ebx
    return cache | (next >> -shl);
    70e0:	41 bb 08 00 00 00    	mov    $0x8,%r11d
    70e6:	41 29 cb             	sub    %ecx,%r11d
    70e9:	44 89 d9             	mov    %r11d,%ecx
    70ec:	d3 ee                	shr    %cl,%esi
    70ee:	89 f1                	mov    %esi,%ecx
            gr->region_count[1] = (uint8_t)get_bits(bs, 3);
    70f0:	09 d9                	or     %ebx,%ecx
    70f2:	88 4a 17             	mov    %cl,0x17(%rdx)
            gr->region_count[2] = 255;
    70f5:	c6 42 18 ff          	movb   $0xff,0x18(%rdx)
    70f9:	e9 e0 f3 ff ff       	jmp    64de <mp3dec_decode_frame+0x271e>
        gr->scfsi = (uint8_t)((scfsi >> 12) & 15);
    70fe:	44 89 e8             	mov    %r13d,%eax
        gr->count1_table = (uint8_t)get_bits(bs, 1);
    7101:	c6 42 1e 00          	movb   $0x0,0x1e(%rdx)
        gr++;
    7105:	48 83 c2 20          	add    $0x20,%rdx
        scfsi <<= 4;
    7109:	41 c1 e5 04          	shl    $0x4,%r13d
        gr->scfsi = (uint8_t)((scfsi >> 12) & 15);
    710d:	c1 e8 0c             	shr    $0xc,%eax
    7110:	83 e0 0f             	and    $0xf,%eax
    7113:	88 42 ff             	mov    %al,-0x1(%rdx)
    } while(--gr_count);
    7116:	48 8b 44 24 50       	mov    0x50(%rsp),%rax
    711b:	48 39 c2             	cmp    %rax,%rdx
    711e:	0f 85 eb ef ff ff    	jne    610f <mp3dec_decode_frame+0x234f>
    7124:	e9 5d f4 ff ff       	jmp    6586 <mp3dec_decode_frame+0x27c6>
    7129:	0f 1f 80 00 00 00 00 	nopl   0x0(%rax)
        gr->big_values = (uint16_t)get_bits(bs,  9);
    7130:	45 31 e4             	xor    %r12d,%r12d
    7133:	66 44 89 62 0a       	mov    %r12w,0xa(%rdx)
        if (gr->big_values > 288)
    7138:	e9 9a f0 ff ff       	jmp    61d7 <mp3dec_decode_frame+0x2417>
    if ((bs->pos += n) > bs->limit)
    713d:	44 8d 47 01          	lea    0x1(%rdi),%r8d
    7141:	31 c0                	xor    %eax,%eax
    7143:	45 39 c6             	cmp    %r8d,%r14d
    7146:	7c 22                	jl     716a <mp3dec_decode_frame+0x33aa>
    uint32_t next, cache = 0, s = bs->pos & 7;
    7148:	89 f9                	mov    %edi,%ecx
    const uint8_t *p = bs->buf + (bs->pos >> 3);
    714a:	c1 ff 03             	sar    $0x3,%edi
    next = *p++ & (255 >> s);
    714d:	89 ee                	mov    %ebp,%esi
    const uint8_t *p = bs->buf + (bs->pos >> 3);
    714f:	48 63 c7             	movslq %edi,%rax
    uint32_t next, cache = 0, s = bs->pos & 7;
    7152:	83 e1 07             	and    $0x7,%ecx
    next = *p++ & (255 >> s);
    7155:	41 0f b6 04 07       	movzbl (%r15,%rax,1),%eax
    715a:	d3 fe                	sar    %cl,%esi
    715c:	21 f0                	and    %esi,%eax
    int shl = n + s;
    715e:	8d 71 01             	lea    0x1(%rcx),%esi
    return cache | (next >> -shl);
    7161:	b9 08 00 00 00       	mov    $0x8,%ecx
    7166:	29 f1                	sub    %esi,%ecx
        gr->preflag = HDR_TEST_MPEG1(hdr) ? get_bits(bs, 1) : (gr->scalefac_compress >= 500);
    7168:	d3 e8                	shr    %cl,%eax
    if ((bs->pos += n) > bs->limit)
    716a:	44 89 c7             	mov    %r8d,%edi
    716d:	e9 8a f3 ff ff       	jmp    64fc <mp3dec_decode_frame+0x273c>
    7172:	45 31 c9             	xor    %r9d,%r9d
    7175:	45 31 c0             	xor    %r8d,%r8d
    7178:	45 31 d2             	xor    %r10d,%r10d
    717b:	e9 c7 fe ff ff       	jmp    7047 <mp3dec_decode_frame+0x3287>
            gr->region_count[0] = 7;
    7180:	0f b7 1d bb a6 00 00 	movzwl 0xa6bb(%rip),%ebx        # 11842 <g_pow43+0x422>
            gr->mixed_block_flag = (uint8_t)get_bits(bs, 1);
    7187:	c6 42 10 00          	movb   $0x0,0x10(%rdx)
            gr->region_count[0] = 7;
    718b:	66 89 5a 16          	mov    %bx,0x16(%rdx)
            if (gr->block_type == SHORT_BLOCK_TYPE)
    718f:	40 80 fe 02          	cmp    $0x2,%sil
    7193:	0f 85 d6 f1 ff ff    	jne    636f <mp3dec_decode_frame+0x25af>
                scfsi &= 0x0F0F;
    7199:	41 81 e5 0f 0f 00 00 	and    $0xf0f,%r13d
                    gr->sfbtab = g_scf_short[sr_idx];
    71a0:	48 8b 5c 24 70       	mov    0x70(%rsp),%rbx
    71a5:	48 8d 0d 34 9f 00 00 	lea    0x9f34(%rip),%rcx        # 110e0 <g_scf_short.24>
    if ((bs->pos += n) > bs->limit)
    71ac:	44 8d 4f 0e          	lea    0xe(%rdi),%r9d
                    gr->region_count[0] = 8;
    71b0:	c6 42 16 08          	movb   $0x8,0x16(%rdx)
                    gr->sfbtab = g_scf_short[sr_idx];
    71b4:	48 01 d9             	add    %rbx,%rcx
                    gr->n_long_sfb = 0;
    71b7:	bb 00 27 00 00       	mov    $0x2700,%ebx
                    gr->sfbtab = g_scf_short[sr_idx];
    71bc:	48 89 0a             	mov    %rcx,(%rdx)
                    gr->n_long_sfb = 0;
    71bf:	66 89 5a 11          	mov    %bx,0x11(%rdx)
    if ((bs->pos += n) > bs->limit)
    71c3:	45 39 ce             	cmp    %r9d,%r14d
    71c6:	0f 8d b0 f1 ff ff    	jge    637c <mp3dec_decode_frame+0x25bc>
    71cc:	45 31 c0             	xor    %r8d,%r8d
    71cf:	45 31 d2             	xor    %r10d,%r10d
    71d2:	e9 0a f2 ff ff       	jmp    63e1 <mp3dec_decode_frame+0x2621>
                scfsi &= 0x0F0F;
    71d7:	41 81 e5 0f 0f 00 00 	and    $0xf0f,%r13d
                if (!gr->mixed_block_flag)
    71de:	45 85 c9             	test   %r9d,%r9d
    71e1:	74 bd                	je     71a0 <mp3dec_decode_frame+0x33e0>
                    gr->sfbtab = g_scf_mixed[sr_idx];
    71e3:	48 8b 5c 24 70       	mov    0x70(%rsp),%rbx
    71e8:	48 8d 0d b1 9d 00 00 	lea    0x9db1(%rip),%rcx        # 10fa0 <g_scf_mixed.23>
                    gr->n_short_sfb = 30;
    71ef:	c6 42 12 1e          	movb   $0x1e,0x12(%rdx)
                    gr->sfbtab = g_scf_mixed[sr_idx];
    71f3:	48 01 d9             	add    %rbx,%rcx
    71f6:	48 89 0a             	mov    %rcx,(%rdx)
                    gr->n_long_sfb = HDR_TEST_MPEG1(hdr) ? 8 : 6;
    71f9:	0f b6 0c 24          	movzbl (%rsp),%ecx
    71fd:	83 e1 08             	and    $0x8,%ecx
    7200:	80 f9 01             	cmp    $0x1,%cl
    7203:	19 c9                	sbb    %ecx,%ecx
    7205:	83 e1 fe             	and    $0xfffffffe,%ecx
    7208:	83 c1 08             	add    $0x8,%ecx
    720b:	88 4a 11             	mov    %cl,0x11(%rdx)
                    gr->n_short_sfb = 30;
    720e:	e9 5c f1 ff ff       	jmp    636f <mp3dec_decode_frame+0x25af>
    const uint8_t *p = bs->buf + (bs->pos >> 3);
    7213:	4d 8d 44 24 06       	lea    0x6(%r12),%r8
    if ((bs->pos += n) > bs->limit)
    7218:	ba 10 00 00 00       	mov    $0x10,%edx
    721d:	e9 50 d0 ff ff       	jmp    4272 <mp3dec_decode_frame+0x4b2>
    if (HDR_IS_LAYER_1(hdr))
    7222:	0f b6 04 24          	movzbl (%rsp),%eax
    int nbands, stereo_bands = (mode == MODE_MONO) ? 0 : (mode == MODE_JOINT_STEREO) ? (HDR_GET_STEREO_MODE_EXT(hdr) << 2) + 4 : 32;
    7226:	31 f6                	xor    %esi,%esi
    7228:	83 e0 06             	and    $0x6,%eax
    if (HDR_IS_LAYER_1(hdr))
    722b:	3c 06                	cmp    $0x6,%al
    722d:	0f 84 e5 28 00 00    	je     9b18 <mp3dec_decode_frame+0x5d58>
    } else if (!HDR_TEST_MPEG1(hdr))
    7233:	f6 04 24 08          	testb  $0x8,(%rsp)
    7237:	0f 84 9e 04 00 00    	je     76db <mp3dec_decode_frame+0x391b>
        int sample_rate_idx = HDR_GET_SAMPLE_RATE(hdr);
    723d:	45 0f b6 4c 24 02    	movzbl 0x2(%r12),%r9d
    7243:	44 89 cf             	mov    %r9d,%edi
    return 2*halfrate[!!HDR_TEST_MPEG1(h)][HDR_GET_LAYER(h) - 1][HDR_GET_BITRATE(h)];
    7246:	41 c0 e9 04          	shr    $0x4,%r9b
    724a:	4d 89 ca             	mov    %r9,%r10
    724d:	44 0f b6 0c 24       	movzbl (%rsp),%r9d
        int sample_rate_idx = HDR_GET_SAMPLE_RATE(hdr);
    7252:	40 c0 ef 02          	shr    $0x2,%dil
    return 2*halfrate[!!HDR_TEST_MPEG1(h)][HDR_GET_LAYER(h) - 1][HDR_GET_BITRATE(h)];
    7256:	41 83 e2 0f          	and    $0xf,%r10d
    725a:	83 e7 03             	and    $0x3,%edi
    725d:	41 d0 e9             	shr    $1,%r9b
    7260:	41 83 e1 03          	and    $0x3,%r9d
    7264:	41 83 e9 01          	sub    $0x1,%r9d
    7268:	4d 63 c9             	movslq %r9d,%r9
    726b:	4d 89 cb             	mov    %r9,%r11
    726e:	49 c1 e3 04          	shl    $0x4,%r11
    7272:	4d 29 cb             	sub    %r9,%r11
    7275:	4c 01 d9             	add    %r11,%rcx
        unsigned kbps = hdr_bitrate_kbps(hdr) >> (int)(mode != MODE_MONO);
    7278:	41 80 f8 03          	cmp    $0x3,%r8b
    return 2*halfrate[!!HDR_TEST_MPEG1(h)][HDR_GET_LAYER(h) - 1][HDR_GET_BITRATE(h)];
    727c:	41 0f b6 4c 0a 2d    	movzbl 0x2d(%r10,%rcx,1),%ecx
    7282:	44 8d 0c 09          	lea    (%rcx,%rcx,1),%r9d
        unsigned kbps = hdr_bitrate_kbps(hdr) >> (int)(mode != MODE_MONO);
    7286:	0f 95 c1             	setne  %cl
    7289:	41 d3 e9             	shr    %cl,%r9d
        if (!kbps) /* free-format */
    728c:	45 85 c9             	test   %r9d,%r9d
    728f:	0f 84 bd 03 00 00    	je     7652 <mp3dec_decode_frame+0x3892>
        if (kbps < 56)
    7295:	41 83 f9 37          	cmp    $0x37,%r9d
    7299:	0f 87 46 29 00 00    	ja     9be5 <mp3dec_decode_frame+0x5e25>
            nbands = sample_rate_idx == 2 ? 12 : 8;
    729f:	40 80 ff 02          	cmp    $0x2,%dil
    72a3:	4c 8d 15 4e 89 00 00 	lea    0x894e(%rip),%r10        # fbf8 <g_alloc_L2M1_lowrate.3>
    72aa:	0f 94 c3             	sete   %bl
    72ad:	0f 94 c1             	sete   %cl
    72b0:	0f b6 db             	movzbl %bl,%ebx
    72b3:	44 0f b6 c1          	movzbl %cl,%r8d
    72b7:	44 8d 24 8d 08 00 00 	lea    0x8(,%rcx,4),%r12d
    72be:	00 
    72bf:	8d 1c dd 10 00 00 00 	lea    0x10(,%rbx,8),%ebx
    72c6:	46 8d 04 85 08 00 00 	lea    0x8(,%r8,4),%r8d
    72cd:	00 
    72ce:	89 5c 24 70          	mov    %ebx,0x70(%rsp)
    72d2:	e9 ad 03 00 00       	jmp    7684 <mp3dec_decode_frame+0x38c4>
            if ((frame_bytes && i + frame_and_padding <= mp3_bytes &&
    72d7:	8b 4c 24 40          	mov    0x40(%rsp),%ecx
    72db:	44 8b 3c 24          	mov    (%rsp),%r15d
    72df:	44 8b 44 24 10       	mov    0x10(%rsp),%r8d
    72e4:	44 8b 5c 24 50       	mov    0x50(%rsp),%r11d
    72e9:	4c 8b 64 24 30       	mov    0x30(%rsp),%r12
    72ee:	44 8b 4c 24 60       	mov    0x60(%rsp),%r9d
    72f3:	45 85 f6             	test   %r14d,%r14d
    72f6:	0f 84 ff cb ff ff    	je     3efb <mp3dec_decode_frame+0x13b>
    72fc:	e9 54 ce ff ff       	jmp    4155 <mp3dec_decode_frame+0x395>
    7301:	0f 1f 80 00 00 00 00 	nopl   0x0(%rax)
    while ((shl -= 8) > 0)
    7308:	44 89 d7             	mov    %r10d,%edi
    730b:	e9 5f ee ff ff       	jmp    616f <mp3dec_decode_frame+0x23af>
    int shl = n + s;
    7310:	44 89 c1             	mov    %r8d,%ecx
    uint32_t next, cache = 0, s = bs->pos & 7;
    7313:	45 31 c0             	xor    %r8d,%r8d
    7316:	e9 4c ef ff ff       	jmp    6267 <mp3dec_decode_frame+0x24a7>
    return HDR_IS_LAYER_1(h) ? 384 : (1152 >> (int)HDR_IS_FRAME_576(h));
    731b:	41 0f b6 54 24 01    	movzbl 0x1(%r12),%edx
    7321:	b8 80 01 00 00       	mov    $0x180,%eax
    7326:	89 d1                	mov    %edx,%ecx
    7328:	f7 d1                	not    %ecx
    732a:	83 e1 06             	and    $0x6,%ecx
    732d:	0f 84 2c cb ff ff    	je     3e5f <mp3dec_decode_frame+0x9f>
    7333:	83 e2 0e             	and    $0xe,%edx
    7336:	b8 80 04 00 00       	mov    $0x480,%eax
    733b:	80 fa 02             	cmp    $0x2,%dl
    733e:	ba 40 02 00 00       	mov    $0x240,%edx
    7343:	0f 44 c2             	cmove  %edx,%eax
    7346:	e9 14 cb ff ff       	jmp    3e5f <mp3dec_decode_frame+0x9f>
    734b:	44 8b 3c 24          	mov    (%rsp),%r15d
    734f:	44 8b 44 24 10       	mov    0x10(%rsp),%r8d
    7354:	44 8b 5c 24 50       	mov    0x50(%rsp),%r11d
    7359:	4c 8b 64 24 30       	mov    0x30(%rsp),%r12
    735e:	44 8b 4c 24 60       	mov    0x60(%rsp),%r9d
    7363:	e9 93 cb ff ff       	jmp    3efb <mp3dec_decode_frame+0x13b>
    uint32_t next, cache = 0, s = bs->pos & 7;
    7368:	31 ff                	xor    %edi,%edi
    736a:	e9 01 d2 ff ff       	jmp    4570 <mp3dec_decode_frame+0x7b0>
            int frame_bytes = hdr_frame_bytes(mp3, *free_format_bytes);
    736f:	89 c3                	mov    %eax,%ebx
    7371:	e9 37 cd ff ff       	jmp    40ad <mp3dec_decode_frame+0x2ed>
    int shl = n + s;
    7376:	8d 4b 04             	lea    0x4(%rbx),%ecx
    uint32_t next, cache = 0, s = bs->pos & 7;
    7379:	31 db                	xor    %ebx,%ebx
    737b:	e9 09 fd ff ff       	jmp    7089 <mp3dec_decode_frame+0x32c9>
    int shl = n + s;
    7380:	8d 4d 06             	lea    0x6(%rbp),%ecx
    uint32_t next, cache = 0, s = bs->pos & 7;
    7383:	45 31 d2             	xor    %r10d,%r10d
    7386:	e9 57 d4 ff ff       	jmp    47e2 <mp3dec_decode_frame+0xa22>
    int shl = n + s;
    738b:	8d 4f 06             	lea    0x6(%rdi),%ecx
    uint32_t next, cache = 0, s = bs->pos & 7;
    738e:	31 ff                	xor    %edi,%edi
    7390:	e9 e7 d4 ff ff       	jmp    487c <mp3dec_decode_frame+0xabc>
        frame_size = hdr_frame_bytes(mp3, dec->free_format_bytes) + hdr_padding(mp3);
    7395:	8b b3 04 18 00 00    	mov    0x1804(%rbx),%esi
    739b:	4c 89 e7             	mov    %r12,%rdi
    739e:	44 89 0c 24          	mov    %r9d,(%rsp)
    73a2:	e8 79 ba ff ff       	call   2e20 <hdr_frame_bytes>
    return HDR_TEST_PADDING(h) ? (HDR_IS_LAYER_1(h) ? 4 : 1) : 0;
    73a7:	41 f6 44 24 02 02    	testb  $0x2,0x2(%r12)
    73ad:	44 8b 0c 24          	mov    (%rsp),%r9d
        frame_size = hdr_frame_bytes(mp3, dec->free_format_bytes) + hdr_padding(mp3);
    73b1:	41 89 c0             	mov    %eax,%r8d
    return HDR_TEST_PADDING(h) ? (HDR_IS_LAYER_1(h) ? 4 : 1) : 0;
    73b4:	0f 85 be 03 00 00    	jne    7778 <mp3dec_decode_frame+0x39b8>
        if (frame_size != mp3_bytes && (frame_size + HDR_SIZE > mp3_bytes || !hdr_compare(mp3, mp3 + frame_size)))
    73ba:	45 39 c1             	cmp    %r8d,%r9d
    73bd:	0f 84 bd 2c 00 00    	je     a080 <mp3dec_decode_frame+0x62c0>
    73c3:	41 8d 40 03          	lea    0x3(%r8),%eax
    73c7:	44 39 c8             	cmp    %r9d,%eax
    73ca:	0f 8d db ca ff ff    	jge    3eab <mp3dec_decode_frame+0xeb>
    73d0:	49 63 f0             	movslq %r8d,%rsi
    73d3:	4c 89 e7             	mov    %r12,%rdi
    73d6:	4c 01 e6             	add    %r12,%rsi
    73d9:	e8 c2 b9 ff ff       	call   2da0 <hdr_compare>
    if (!frame_size)
    73de:	45 85 c0             	test   %r8d,%r8d
    73e1:	0f 84 c4 ca ff ff    	je     3eab <mp3dec_decode_frame+0xeb>
    73e7:	44 89 c1             	mov    %r8d,%ecx
    int i = 0, igr, frame_size = 0, success = 1;
    73ea:	45 31 ff             	xor    %r15d,%r15d
    if (!frame_size)
    73ed:	85 c0                	test   %eax,%eax
    73ef:	0f 85 6f cd ff ff    	jne    4164 <mp3dec_decode_frame+0x3a4>
    73f5:	e9 b1 ca ff ff       	jmp    3eab <mp3dec_decode_frame+0xeb>
    for (i = 0; i < sci->total_bands; i++)
    73fa:	89 14 24             	mov    %edx,(%rsp)
    73fd:	e9 f2 d1 ff ff       	jmp    45f4 <mp3dec_decode_frame+0x834>
    7402:	0f b6 04 24          	movzbl (%rsp),%eax
    int nbands, stereo_bands = (mode == MODE_MONO) ? 0 : (mode == MODE_JOINT_STEREO) ? (HDR_GET_STEREO_MODE_EXT(hdr) << 2) + 4 : 32;
    7406:	40 c0 ee 04          	shr    $0x4,%sil
    740a:	8d 34 b5 00 00 00 00 	lea    0x0(,%rsi,4),%esi
    7411:	83 e6 0c             	and    $0xc,%esi
    7414:	83 e0 06             	and    $0x6,%eax
    7417:	83 c6 04             	add    $0x4,%esi
    if (HDR_IS_LAYER_1(hdr))
    741a:	3c 06                	cmp    $0x6,%al
    741c:	0f 85 11 fe ff ff    	jne    7233 <mp3dec_decode_frame+0x3473>
    sci->total_bands = (uint8_t)nbands;
    7422:	c6 84 24 70 07 00 00 	movb   $0x20,0x770(%rsp)
    7429:	20 
    sci->stereo_bands = (uint8_t)MINIMP3_MIN(stereo_bands, nbands);
    742a:	41 89 f4             	mov    %esi,%r12d
    int nbands, stereo_bands = (mode == MODE_MONO) ? 0 : (mode == MODE_JOINT_STEREO) ? (HDR_GET_STEREO_MODE_EXT(hdr) << 2) + 4 : 32;
    742d:	41 89 f1             	mov    %esi,%r9d
        nbands = 32;
    7430:	41 b8 20 00 00 00    	mov    $0x20,%r8d
    sci->stereo_bands = (uint8_t)MINIMP3_MIN(stereo_bands, nbands);
    7436:	40 88 b4 24 71 07 00 	mov    %sil,0x771(%rsp)
    743d:	00 
        alloc = g_alloc_L1;
    743e:	4c 8d 15 d4 87 00 00 	lea    0x87d4(%rip),%r10        # fc19 <g_alloc_L1.6>
    sci->stereo_bands = (uint8_t)MINIMP3_MIN(stereo_bands, nbands);
    7445:	c7 44 24 70 40 00 00 	movl   $0x40,0x70(%rsp)
    744c:	00 
    744d:	e9 98 ce ff ff       	jmp    42ea <mp3dec_decode_frame+0x52a>
    sci->total_bands = (uint8_t)nbands;
    7452:	be 20 20 00 00       	mov    $0x2020,%esi
    7457:	c7 44 24 70 40 00 00 	movl   $0x40,0x70(%rsp)
    745e:	00 
    int nbands, stereo_bands = (mode == MODE_MONO) ? 0 : (mode == MODE_JOINT_STEREO) ? (HDR_GET_STEREO_MODE_EXT(hdr) << 2) + 4 : 32;
    745f:	41 b9 20 00 00 00    	mov    $0x20,%r9d
        nbands = 32;
    7465:	41 b8 20 00 00 00    	mov    $0x20,%r8d
    sci->total_bands = (uint8_t)nbands;
    746b:	66 89 b4 24 70 07 00 	mov    %si,0x770(%rsp)
    7472:	00 
        alloc = g_alloc_L1;
    7473:	4c 8d 15 9f 87 00 00 	lea    0x879f(%rip),%r10        # fc19 <g_alloc_L1.6>
    sci->stereo_bands = (uint8_t)MINIMP3_MIN(stereo_bands, nbands);
    747a:	41 bc 20 00 00 00    	mov    $0x20,%r12d
    7480:	e9 65 ce ff ff       	jmp    42ea <mp3dec_decode_frame+0x52a>
    uint32_t next, cache = 0, s = bs->pos & 7;
    7485:	45 31 db             	xor    %r11d,%r11d
    7488:	e9 ed cf ff ff       	jmp    447a <mp3dec_decode_frame+0x6ba>
    748d:	31 ff                	xor    %edi,%edi
    748f:	e9 41 cf ff ff       	jmp    43d5 <mp3dec_decode_frame+0x615>
    int shl = n + s;
    7494:	41 8d 4b 06          	lea    0x6(%r11),%ecx
    uint32_t next, cache = 0, s = bs->pos & 7;
    7498:	45 31 db             	xor    %r11d,%r11d
    749b:	e9 a4 d2 ff ff       	jmp    4744 <mp3dec_decode_frame+0x984>
    74a0:	83 7c 24 70 10       	cmpl   $0x10,0x70(%rsp)
    74a5:	0f 84 0e d2 ff ff    	je     46b9 <mp3dec_decode_frame+0x8f9>
        sci->scfcod[i] = sci->bitalloc[i] ? HDR_IS_LAYER_1(hdr) ? 2 : get_bits(bs, 2) : 6;
    74ab:	b9 10 00 00 00       	mov    $0x10,%ecx
    74b0:	ba 10 00 00 00       	mov    $0x10,%edx
    74b5:	be 08 00 00 00       	mov    $0x8,%esi
    74ba:	f3 0f 7e 15 6e a2 00 	movq   0xa26e(%rip),%xmm2        # 11730 <g_pow43+0x310>
    74c1:	00 
    74c2:	66 0f ef c9          	pxor   %xmm1,%xmm1
    74c6:	83 c2 08             	add    $0x8,%edx
    74c9:	f3 0f 7e 84 0c 72 07 	movq   0x772(%rsp,%rcx,1),%xmm0
    74d0:	00 00 
    74d2:	66 0f 74 c1          	pcmpeqb %xmm1,%xmm0
    74d6:	f3 0f 7e 0d 62 a2 00 	movq   0xa262(%rip),%xmm1        # 11740 <g_pow43+0x320>
    74dd:	00 
    74de:	66 0f db c8          	pand   %xmm0,%xmm1
    74e2:	66 0f df c2          	pandn  %xmm2,%xmm0
    74e6:	66 0f eb c1          	por    %xmm1,%xmm0
    74ea:	66 0f d6 84 0c b2 07 	movq   %xmm0,0x7b2(%rsp,%rcx,1)
    74f1:	00 00 
    for (i = 0; i < 2*sci->total_bands; i++)
    74f3:	83 fe 08             	cmp    $0x8,%esi
    74f6:	0f 84 bd d1 ff ff    	je     46b9 <mp3dec_decode_frame+0x8f9>
        sci->scfcod[i] = sci->bitalloc[i] ? HDR_IS_LAYER_1(hdr) ? 2 : get_bits(bs, 2) : 6;
    74fc:	48 63 f2             	movslq %edx,%rsi
    for (i = 0; i < 2*sci->total_bands; i++)
    74ff:	8b 5c 24 70          	mov    0x70(%rsp),%ebx
        sci->scfcod[i] = sci->bitalloc[i] ? HDR_IS_LAYER_1(hdr) ? 2 : get_bits(bs, 2) : 6;
    7503:	80 bc 34 72 07 00 00 	cmpb   $0x1,0x772(%rsp,%rsi,1)
    750a:	01 
    750b:	19 c9                	sbb    %ecx,%ecx
    750d:	83 e1 04             	and    $0x4,%ecx
    7510:	83 c1 02             	add    $0x2,%ecx
    7513:	88 8c 34 b2 07 00 00 	mov    %cl,0x7b2(%rsp,%rsi,1)
    for (i = 0; i < 2*sci->total_bands; i++)
    751a:	8d 4a 01             	lea    0x1(%rdx),%ecx
    751d:	39 d9                	cmp    %ebx,%ecx
    751f:	0f 8d 94 d1 ff ff    	jge    46b9 <mp3dec_decode_frame+0x8f9>
        sci->scfcod[i] = sci->bitalloc[i] ? HDR_IS_LAYER_1(hdr) ? 2 : get_bits(bs, 2) : 6;
    7525:	48 63 c9             	movslq %ecx,%rcx
    7528:	80 bc 0c 72 07 00 00 	cmpb   $0x1,0x772(%rsp,%rcx,1)
    752f:	01 
    7530:	19 f6                	sbb    %esi,%esi
    7532:	83 e6 04             	and    $0x4,%esi
    7535:	83 c6 02             	add    $0x2,%esi
    7538:	40 88 b4 0c b2 07 00 	mov    %sil,0x7b2(%rsp,%rcx,1)
    753f:	00 
    for (i = 0; i < 2*sci->total_bands; i++)
    7540:	8d 4a 02             	lea    0x2(%rdx),%ecx
    7543:	39 d9                	cmp    %ebx,%ecx
    7545:	0f 8d 6e d1 ff ff    	jge    46b9 <mp3dec_decode_frame+0x8f9>
        sci->scfcod[i] = sci->bitalloc[i] ? HDR_IS_LAYER_1(hdr) ? 2 : get_bits(bs, 2) : 6;
    754b:	48 63 c9             	movslq %ecx,%rcx
    754e:	80 bc 0c 72 07 00 00 	cmpb   $0x1,0x772(%rsp,%rcx,1)
    7555:	01 
    7556:	19 f6                	sbb    %esi,%esi
    7558:	83 e6 04             	and    $0x4,%esi
    755b:	83 c6 02             	add    $0x2,%esi
    755e:	40 88 b4 0c b2 07 00 	mov    %sil,0x7b2(%rsp,%rcx,1)
    7565:	00 
    for (i = 0; i < 2*sci->total_bands; i++)
    7566:	8d 4a 03             	lea    0x3(%rdx),%ecx
    7569:	39 d9                	cmp    %ebx,%ecx
    756b:	0f 8d 48 d1 ff ff    	jge    46b9 <mp3dec_decode_frame+0x8f9>
        sci->scfcod[i] = sci->bitalloc[i] ? HDR_IS_LAYER_1(hdr) ? 2 : get_bits(bs, 2) : 6;
    7571:	48 63 c9             	movslq %ecx,%rcx
    7574:	80 bc 0c 72 07 00 00 	cmpb   $0x1,0x772(%rsp,%rcx,1)
    757b:	01 
    757c:	19 f6                	sbb    %esi,%esi
    757e:	83 e6 04             	and    $0x4,%esi
    7581:	83 c6 02             	add    $0x2,%esi
    7584:	40 88 b4 0c b2 07 00 	mov    %sil,0x7b2(%rsp,%rcx,1)
    758b:	00 
    for (i = 0; i < 2*sci->total_bands; i++)
    758c:	8d 4a 04             	lea    0x4(%rdx),%ecx
    758f:	39 d9                	cmp    %ebx,%ecx
    7591:	0f 8d 22 d1 ff ff    	jge    46b9 <mp3dec_decode_frame+0x8f9>
        sci->scfcod[i] = sci->bitalloc[i] ? HDR_IS_LAYER_1(hdr) ? 2 : get_bits(bs, 2) : 6;
    7597:	48 63 c9             	movslq %ecx,%rcx
    759a:	80 bc 0c 72 07 00 00 	cmpb   $0x1,0x772(%rsp,%rcx,1)
    75a1:	01 
    75a2:	19 f6                	sbb    %esi,%esi
    75a4:	83 e6 04             	and    $0x4,%esi
    75a7:	83 c6 02             	add    $0x2,%esi
    75aa:	40 88 b4 0c b2 07 00 	mov    %sil,0x7b2(%rsp,%rcx,1)
    75b1:	00 
    for (i = 0; i < 2*sci->total_bands; i++)
    75b2:	8d 4a 05             	lea    0x5(%rdx),%ecx
    75b5:	39 d9                	cmp    %ebx,%ecx
    75b7:	0f 8d fc d0 ff ff    	jge    46b9 <mp3dec_decode_frame+0x8f9>
        sci->scfcod[i] = sci->bitalloc[i] ? HDR_IS_LAYER_1(hdr) ? 2 : get_bits(bs, 2) : 6;
    75bd:	48 63 c9             	movslq %ecx,%rcx
    75c0:	80 bc 0c 72 07 00 00 	cmpb   $0x1,0x772(%rsp,%rcx,1)
    75c7:	01 
    75c8:	19 f6                	sbb    %esi,%esi
    for (i = 0; i < 2*sci->total_bands; i++)
    75ca:	83 c2 06             	add    $0x6,%edx
        sci->scfcod[i] = sci->bitalloc[i] ? HDR_IS_LAYER_1(hdr) ? 2 : get_bits(bs, 2) : 6;
    75cd:	83 e6 04             	and    $0x4,%esi
    75d0:	83 c6 02             	add    $0x2,%esi
    75d3:	40 88 b4 0c b2 07 00 	mov    %sil,0x7b2(%rsp,%rcx,1)
    75da:	00 
    for (i = 0; i < 2*sci->total_bands; i++)
    75db:	39 da                	cmp    %ebx,%edx
    75dd:	0f 8d d6 d0 ff ff    	jge    46b9 <mp3dec_decode_frame+0x8f9>
        sci->scfcod[i] = sci->bitalloc[i] ? HDR_IS_LAYER_1(hdr) ? 2 : get_bits(bs, 2) : 6;
    75e3:	48 63 d2             	movslq %edx,%rdx
    75e6:	b9 02 00 00 00       	mov    $0x2,%ecx
    75eb:	80 bc 14 72 07 00 00 	cmpb   $0x0,0x772(%rsp,%rdx,1)
    75f2:	00 
    75f3:	0f 45 c1             	cmovne %ecx,%eax
    75f6:	88 84 14 b2 07 00 00 	mov    %al,0x7b2(%rsp,%rdx,1)
    for (i = 0; i < 2*sci->total_bands; i++)
    75fd:	e9 b7 d0 ff ff       	jmp    46b9 <mp3dec_decode_frame+0x8f9>
  return __builtin___memcpy_chk (__dest, __src, __len,
    7602:	48 8b 84 24 30 32 00 	mov    0x3230(%rsp),%rax
    7609:	00 
    760a:	48 8b 94 24 f0 03 00 	mov    0x3f0(%rsp),%rdx
    7611:	00 
    7612:	49 8d 79 08          	lea    0x8(%r9),%rdi
    7616:	48 8d b4 24 30 32 00 	lea    0x3230(%rsp),%rsi
    761d:	00 
    761e:	48 83 e7 f8          	and    $0xfffffffffffffff8,%rdi
    7622:	48 89 82 00 09 00 00 	mov    %rax,0x900(%rdx)
    7629:	48 8b 84 24 28 41 00 	mov    0x4128(%rsp),%rax
    7630:	00 
    7631:	49 89 81 f8 0e 00 00 	mov    %rax,0xef8(%r9)
    7638:	4c 89 c8             	mov    %r9,%rax
    763b:	48 29 f8             	sub    %rdi,%rax
    763e:	8d 88 00 0f 00 00    	lea    0xf00(%rax),%ecx
    7644:	48 29 c6             	sub    %rax,%rsi
    7647:	c1 e9 03             	shr    $0x3,%ecx
    764a:	f3 48 a5             	rep movsq %ds:(%rsi),%es:(%rdi)
    764d:	e9 bc e8 ff ff       	jmp    5f0e <mp3dec_decode_frame+0x214e>
    7652:	b9 01 00 00 00       	mov    $0x1,%ecx
        } else if (kbps >= 96 && sample_rate_idx != 1)
    7657:	40 80 ff 01          	cmp    $0x1,%dil
    765b:	0f 84 97 24 00 00    	je     9af8 <mp3dec_decode_frame+0x5d38>
    7661:	84 c9                	test   %cl,%cl
    7663:	0f 84 8f 24 00 00    	je     9af8 <mp3dec_decode_frame+0x5d38>
    7669:	c7 44 24 70 3c 00 00 	movl   $0x3c,0x70(%rsp)
    7670:	00 
    7671:	41 bc 1e 00 00 00    	mov    $0x1e,%r12d
            nbands = 30;
    7677:	41 b8 1e 00 00 00    	mov    $0x1e,%r8d
        alloc = g_alloc_L2M1;
    767d:	4c 8d 15 7c 85 00 00 	lea    0x857c(%rip),%r10        # fc00 <g_alloc_L2M1.4>
    sci->total_bands = (uint8_t)nbands;
    7684:	44 88 a4 24 70 07 00 	mov    %r12b,0x770(%rsp)
    768b:	00 
    sci->stereo_bands = (uint8_t)MINIMP3_MIN(stereo_bands, nbands);
    768c:	41 39 f0             	cmp    %esi,%r8d
    768f:	0f 8c 4a cc ff ff    	jl     42df <mp3dec_decode_frame+0x51f>
    7695:	eb 61                	jmp    76f8 <mp3dec_decode_frame+0x3938>
    7697:	66 0f 1f 84 00 00 00 	nopw   0x0(%rax,%rax,1)
    769e:	00 00 
    while ((shl -= 8) > 0)
    76a0:	41 89 d9             	mov    %ebx,%r9d
    76a3:	e9 78 f9 ff ff       	jmp    7020 <mp3dec_decode_frame+0x3260>
    if ((bs->pos += n) > bs->limit)
    76a8:	8d 1c 02             	lea    (%rdx,%rax,1),%ebx
    76ab:	c7 44 24 10 00 00 00 	movl   $0x0,0x10(%rsp)
    76b2:	00 
    76b3:	41 39 de             	cmp    %ebx,%r14d
    76b6:	7c 18                	jl     76d0 <mp3dec_decode_frame+0x3910>
        next = *p++;
    76b8:	41 0f b6 40 01       	movzbl 0x1(%r8),%eax
    next = *p++ & (255 >> s);
    76bd:	41 0f b6 10          	movzbl (%r8),%edx
    return cache | (next >> -shl);
    76c1:	d3 e8                	shr    %cl,%eax
        cache |= next << shl;
    76c3:	44 89 c9             	mov    %r9d,%ecx
    76c6:	d3 e2                	shl    %cl,%edx
    return cache | (next >> -shl);
    76c8:	09 d0                	or     %edx,%eax
        main_data_begin = get_bits(bs, 8 + gr_count) >> gr_count;
    76ca:	d3 e8                	shr    %cl,%eax
    76cc:	89 44 24 10          	mov    %eax,0x10(%rsp)
    int gr_count = HDR_IS_MONO(hdr) ? 1 : 2;
    76d0:	44 89 cf             	mov    %r9d,%edi
    unsigned tables, scfsi = 0;
    76d3:	45 31 ed             	xor    %r13d,%r13d
    76d6:	e9 ab e9 ff ff       	jmp    6086 <mp3dec_decode_frame+0x22c6>
    sci->total_bands = (uint8_t)nbands;
    76db:	c6 84 24 70 07 00 00 	movb   $0x1e,0x770(%rsp)
    76e2:	1e 
        alloc = g_alloc_L2M2;
    76e3:	4c 8d 15 26 85 00 00 	lea    0x8526(%rip),%r10        # fc10 <g_alloc_L2M2.5>
        nbands = 30;
    76ea:	41 b8 1e 00 00 00    	mov    $0x1e,%r8d
    sci->total_bands = (uint8_t)nbands;
    76f0:	c7 44 24 70 3c 00 00 	movl   $0x3c,0x70(%rsp)
    76f7:	00 
    sci->stereo_bands = (uint8_t)MINIMP3_MIN(stereo_bands, nbands);
    76f8:	40 88 b4 24 71 07 00 	mov    %sil,0x771(%rsp)
    76ff:	00 
    7700:	41 89 f4             	mov    %esi,%r12d
    for (i = 0; i < sci->total_bands; i++)
    7703:	85 f6                	test   %esi,%esi
    7705:	0f 85 a3 2a 00 00    	jne    a1ae <mp3dec_decode_frame+0x63ee>
    sci->stereo_bands = (uint8_t)MINIMP3_MIN(stereo_bands, nbands);
    770b:	48 8d 1d 0e 85 00 00 	lea    0x850e(%rip),%rbx        # fc20 <g_bitalloc_code_tab.7>
    7712:	45 31 c9             	xor    %r9d,%r9d
    7715:	45 31 ed             	xor    %r13d,%r13d
    7718:	45 31 e4             	xor    %r12d,%r12d
    771b:	c7 44 24 10 00 00 00 	movl   $0x0,0x10(%rsp)
    7722:	00 
    7723:	48 8d ac 24 70 04 00 	lea    0x470(%rsp),%rbp
    772a:	00 
    772b:	48 89 5c 24 20       	mov    %rbx,0x20(%rsp)
    7730:	48 89 1c 24          	mov    %rbx,(%rsp)
    7734:	e9 8c cd ff ff       	jmp    44c5 <mp3dec_decode_frame+0x705>
    int shl = n + s;
    7739:	8d 4b 03             	lea    0x3(%rbx),%ecx
    uint32_t next, cache = 0, s = bs->pos & 7;
    773c:	31 db                	xor    %ebx,%ebx
    773e:	e9 9d f9 ff ff       	jmp    70e0 <mp3dec_decode_frame+0x3320>
    int shl = n + s;
    7743:	41 8d 49 02          	lea    0x2(%r9),%ecx
    return cache | (next >> -shl);
    7747:	41 b9 08 00 00 00    	mov    $0x8,%r9d
    uint32_t next, cache = 0, s = bs->pos & 7;
    774d:	45 31 db             	xor    %r11d,%r11d
    return cache | (next >> -shl);
    7750:	41 29 c9             	sub    %ecx,%r9d
    7753:	e9 b2 eb ff ff       	jmp    630a <mp3dec_decode_frame+0x254a>
    int shl = n + s;
    7758:	8d 4b 03             	lea    0x3(%rbx),%ecx
    uint32_t next, cache = 0, s = bs->pos & 7;
    775b:	31 db                	xor    %ebx,%ebx
    775d:	e9 bd ec ff ff       	jmp    641f <mp3dec_decode_frame+0x265f>
    int shl = n + s;
    7762:	8d 4b 03             	lea    0x3(%rbx),%ecx
    uint32_t next, cache = 0, s = bs->pos & 7;
    7765:	31 db                	xor    %ebx,%ebx
    7767:	e9 06 ed ff ff       	jmp    6472 <mp3dec_decode_frame+0x26b2>
    int shl = n + s;
    776c:	41 8d 4b 03          	lea    0x3(%r11),%ecx
    uint32_t next, cache = 0, s = bs->pos & 7;
    7770:	45 31 db             	xor    %r11d,%r11d
    7773:	e9 4d ed ff ff       	jmp    64c5 <mp3dec_decode_frame+0x2705>
        frame_size = hdr_frame_bytes(mp3, dec->free_format_bytes) + hdr_padding(mp3);
    7778:	8d 50 04             	lea    0x4(%rax),%edx
    777b:	41 0f b6 44 24 01    	movzbl 0x1(%r12),%eax
    7781:	41 83 c0 01          	add    $0x1,%r8d
    7785:	f7 d0                	not    %eax
    7787:	a8 06                	test   $0x6,%al
    7789:	44 0f 44 c2          	cmove  %edx,%r8d
    778d:	e9 28 fc ff ff       	jmp    73ba <mp3dec_decode_frame+0x35fa>
    7792:	31 f6                	xor    %esi,%esi
    7794:	31 c0                	xor    %eax,%eax
    int remains = s->bs.limit/8u - pos;
    7796:	c1 ea 03             	shr    $0x3,%edx
    7799:	29 c2                	sub    %eax,%edx
    if (remains > MAX_BITRESERVOIR_BYTES)
    779b:	81 fa ff 01 00 00    	cmp    $0x1ff,%edx
    77a1:	0f 8e 42 23 00 00    	jle    9ae9 <mp3dec_decode_frame+0x5d29>
        pos += remains - MAX_BITRESERVOIR_BYTES;
    77a7:	8d b4 32 01 fe ff ff 	lea    -0x1ff(%rdx,%rsi,1),%esi
    77ae:	b9 ff 01 00 00       	mov    $0x1ff,%ecx
        remains = MAX_BITRESERVOIR_BYTES;
    77b3:	ba ff 01 00 00       	mov    $0x1ff,%edx
        memmove(h->reserv_buf, s->maindata + pos, remains);
    77b8:	48 63 f6             	movslq %esi,%rsi
  return __builtin___memmove_chk (__dest, __src, __len,
    77bb:	89 c8                	mov    %ecx,%eax
    77bd:	4c 8d 7c 35 00       	lea    0x0(%rbp,%rsi,1),%r15
    77c2:	83 f9 08             	cmp    $0x8,%ecx
    77c5:	0f 83 98 29 00 00    	jae    a163 <mp3dec_decode_frame+0x63a3>
    77cb:	83 e1 04             	and    $0x4,%ecx
    77ce:	0f 85 6f 29 00 00    	jne    a143 <mp3dec_decode_frame+0x6383>
    77d4:	85 c0                	test   %eax,%eax
    77d6:	74 1a                	je     77f2 <mp3dec_decode_frame+0x3a32>
    77d8:	41 0f b6 0f          	movzbl (%r15),%ecx
    77dc:	48 8b 9c 24 f0 03 00 	mov    0x3f0(%rsp),%rbx
    77e3:	00 
    77e4:	88 8b 0c 18 00 00    	mov    %cl,0x180c(%rbx)
    77ea:	a8 02                	test   $0x2,%al
    77ec:	0f 85 18 29 00 00    	jne    a10a <mp3dec_decode_frame+0x634a>
    h->reserv = remains;
    77f2:	48 8b 84 24 f0 03 00 	mov    0x3f0(%rsp),%rax
    77f9:	00 
    return success*hdr_frame_samples(dec->header);
    77fa:	45 0f b6 f6          	movzbl %r14b,%r14d
    h->reserv = remains;
    77fe:	89 90 00 18 00 00    	mov    %edx,0x1800(%rax)
}
    7804:	e9 1e d5 ff ff       	jmp    4d27 <mp3dec_decode_frame+0xf67>
    7809:	0f 1f 80 00 00 00 00 	nopl   0x0(%rax)
                            lsb += PEEK_BITS(linbits);
    7810:	0f b6 4c 24 40       	movzbl 0x40(%rsp),%ecx
                            FLUSH_BITS(linbits);
    7815:	44 8b 4c 24 30       	mov    0x30(%rsp),%r9d
                            lsb += PEEK_BITS(linbits);
    781a:	44 89 e6             	mov    %r12d,%esi
    781d:	d3 ee                	shr    %cl,%esi
                            FLUSH_BITS(linbits);
    781f:	44 89 c9             	mov    %r9d,%ecx
                            lsb += PEEK_BITS(linbits);
    7822:	89 74 24 20          	mov    %esi,0x20(%rsp)
                            FLUSH_BITS(linbits);
    7826:	41 d3 e4             	shl    %cl,%r12d
                            lsb += PEEK_BITS(linbits);
    7829:	83 c6 0f             	add    $0xf,%esi
                            CHECK_BITS;
    782c:	45 01 cf             	add    %r9d,%r15d
    782f:	78 45                	js     7876 <mp3dec_decode_frame+0x3ab6>
    7831:	44 89 f9             	mov    %r15d,%ecx
    7834:	89 44 24 10          	mov    %eax,0x10(%rsp)
    7838:	4c 89 f0             	mov    %r14,%rax
    783b:	83 c9 f8             	or     $0xfffffff8,%ecx
    783e:	41 89 cd             	mov    %ecx,%r13d
                            FLUSH_BITS(linbits);
    7841:	44 89 f9             	mov    %r15d,%ecx
    7844:	0f 1f 40 00          	nopl   0x0(%rax)
                            CHECK_BITS;
    7848:	44 0f b6 08          	movzbl (%rax),%r9d
    784c:	48 83 c0 01          	add    $0x1,%rax
    7850:	41 d3 e1             	shl    %cl,%r9d
    7853:	83 e9 08             	sub    $0x8,%ecx
    7856:	45 09 cc             	or     %r9d,%r12d
    7859:	41 39 cd             	cmp    %ecx,%r13d
    785c:	75 ea                	jne    7848 <mp3dec_decode_frame+0x3a88>
    785e:	44 89 f9             	mov    %r15d,%ecx
    7861:	8b 44 24 10          	mov    0x10(%rsp),%eax
    7865:	c1 e9 03             	shr    $0x3,%ecx
    7868:	44 8d 49 01          	lea    0x1(%rcx),%r9d
    786c:	f7 d9                	neg    %ecx
    786e:	4d 01 ce             	add    %r9,%r14
    7871:	45 8d 7c cf f8       	lea    -0x8(%r15,%rcx,8),%r15d
    if (x < 129)
    7876:	81 fe 80 00 00 00    	cmp    $0x80,%esi
    787c:	0f 8e 8e 00 00 00    	jle    7910 <mp3dec_decode_frame+0x3b50>
    if (x < 1024)
    7882:	81 fe ff 03 00 00    	cmp    $0x3ff,%esi
    7888:	0f 8f 9a 00 00 00    	jg     7928 <mp3dec_decode_frame+0x3b68>
        x <<= 3;
    788e:	f3 0f 10 3d da 77 00 	movss  0x77da(%rip),%xmm7        # f070 <_IO_stdin_used+0x70>
    7895:	00 
    7896:	8d 0c f5 00 00 00 00 	lea    0x0(,%rsi,8),%ecx
    sign = 2*x & 64;
    789d:	44 8d 0c 09          	lea    (%rcx,%rcx,1),%r9d
    frac = (float)((x & 63) - sign) / ((x & ~63) + sign);
    78a1:	66 0f ef d2          	pxor   %xmm2,%xmm2
    78a5:	66 0f ef c0          	pxor   %xmm0,%xmm0
    78a9:	41 89 cd             	mov    %ecx,%r13d
    sign = 2*x & 64;
    78ac:	41 83 e1 40          	and    $0x40,%r9d
    frac = (float)((x & 63) - sign) / ((x & ~63) + sign);
    78b0:	41 83 e5 3f          	and    $0x3f,%r13d
    78b4:	45 29 cd             	sub    %r9d,%r13d
    78b7:	f3 41 0f 2a d5       	cvtsi2ss %r13d,%xmm2
    78bc:	41 89 cd             	mov    %ecx,%r13d
    return g_pow43[16 + ((x + sign) >> 6)]*(1.f + frac*((4.f/3) + frac*(2.f/9)))*mult;
    78bf:	44 01 c9             	add    %r9d,%ecx
    frac = (float)((x & 63) - sign) / ((x & ~63) + sign);
    78c2:	41 83 e5 c0          	and    $0xffffffc0,%r13d
    return g_pow43[16 + ((x + sign) >> 6)]*(1.f + frac*((4.f/3) + frac*(2.f/9)))*mult;
    78c6:	c1 f9 06             	sar    $0x6,%ecx
    frac = (float)((x & 63) - sign) / ((x & ~63) + sign);
    78c9:	45 01 cd             	add    %r9d,%r13d
    return g_pow43[16 + ((x + sign) >> 6)]*(1.f + frac*((4.f/3) + frac*(2.f/9)))*mult;
    78cc:	83 c1 10             	add    $0x10,%ecx
    frac = (float)((x & 63) - sign) / ((x & ~63) + sign);
    78cf:	f3 41 0f 2a c5       	cvtsi2ss %r13d,%xmm0
    return g_pow43[16 + ((x + sign) >> 6)]*(1.f + frac*((4.f/3) + frac*(2.f/9)))*mult;
    78d4:	48 63 c9             	movslq %ecx,%rcx
    frac = (float)((x & 63) - sign) / ((x & ~63) + sign);
    78d7:	f3 0f 5e d0          	divss  %xmm0,%xmm2
    return g_pow43[16 + ((x + sign) >> 6)]*(1.f + frac*((4.f/3) + frac*(2.f/9)))*mult;
    78db:	0f 28 c2             	movaps %xmm2,%xmm0
    78de:	f3 0f 59 c6          	mulss  %xmm6,%xmm0
    78e2:	f3 0f 58 c5          	addss  %xmm5,%xmm0
    78e6:	f3 0f 59 c2          	mulss  %xmm2,%xmm0
    78ea:	f3 0f 58 c4          	addss  %xmm4,%xmm0
    78ee:	f3 0f 59 04 8b       	mulss  (%rbx,%rcx,4),%xmm0
    78f3:	f3 0f 59 c7          	mulss  %xmm7,%xmm0
                            *dst = one*L3_pow_43(lsb)*((int32_t)bs_cache < 0 ? -1: 1);
    78f7:	f3 0f 59 c1          	mulss  %xmm1,%xmm0
    78fb:	45 85 e4             	test   %r12d,%r12d
    78fe:	0f 89 04 f6 ff ff    	jns    6f08 <mp3dec_decode_frame+0x3148>
    7904:	0f 57 c3             	xorps  %xmm3,%xmm0
    7907:	e9 fc f5 ff ff       	jmp    6f08 <mp3dec_decode_frame+0x3148>
    790c:	0f 1f 40 00          	nopl   0x0(%rax)
        return g_pow43[16 + x];
    7910:	8b 4c 24 20          	mov    0x20(%rsp),%ecx
    7914:	83 c1 1f             	add    $0x1f,%ecx
    7917:	48 63 c9             	movslq %ecx,%rcx
    791a:	f3 0f 10 04 8b       	movss  (%rbx,%rcx,4),%xmm0
    791f:	eb d6                	jmp    78f7 <mp3dec_decode_frame+0x3b37>
    7921:	0f 1f 80 00 00 00 00 	nopl   0x0(%rax)
    7928:	f3 0f 10 3d 3c 77 00 	movss  0x773c(%rip),%xmm7        # f06c <_IO_stdin_used+0x6c>
    792f:	00 
    7930:	89 f1                	mov    %esi,%ecx
    7932:	e9 66 ff ff ff       	jmp    789d <mp3dec_decode_frame+0x3add>
                        leaf = codebook[PEEK_BITS(w) - (leaf >> 3)];
    7937:	48 89 74 24 30       	mov    %rsi,0x30(%rsp)
    793c:	44 89 e7             	mov    %r12d,%edi
    793f:	44 89 fe             	mov    %r15d,%esi
    7942:	41 ba 20 00 00 00    	mov    $0x20,%r10d
    7948:	49 89 c5             	mov    %rax,%r13
    794b:	4d 89 c4             	mov    %r8,%r12
    794e:	45 89 df             	mov    %r11d,%r15d
    7951:	0f 1f 80 00 00 00 00 	nopl   0x0(%rax)
                np = *sfb++ / 2;
    7958:	45 0f b6 5d 00       	movzbl 0x0(%r13),%r11d
                one = *scf++;
    795d:	49 83 c4 04          	add    $0x4,%r12
                np = *sfb++ / 2;
    7961:	49 83 c5 01          	add    $0x1,%r13
                pairs_to_decode = MINIMP3_MIN(big_val_cnt, np);
    7965:	44 89 f9             	mov    %r15d,%ecx
                one = *scf++;
    7968:	f3 41 0f 10 4c 24 fc 	movss  -0x4(%r12),%xmm1
    796f:	4c 89 2c 24          	mov    %r13,(%rsp)
    7973:	48 89 e8             	mov    %rbp,%rax
                np = *sfb++ / 2;
    7976:	41 d0 eb             	shr    $1,%r11b
    7979:	44 89 7c 24 20       	mov    %r15d,0x20(%rsp)
    797e:	45 0f b6 db          	movzbl %r11b,%r11d
                one = *scf++;
    7982:	0f 28 f9             	movaps %xmm1,%xmm7
                pairs_to_decode = MINIMP3_MIN(big_val_cnt, np);
    7985:	45 39 fb             	cmp    %r15d,%r11d
    7988:	44 89 5c 24 10       	mov    %r11d,0x10(%rsp)
    798d:	0f c6 ff e0          	shufps $0xe0,%xmm7,%xmm7
    7991:	41 0f 4e cb          	cmovle %r11d,%ecx
    7995:	41 89 f3             	mov    %esi,%r11d
    7998:	89 fe                	mov    %edi,%esi
    799a:	83 e9 01             	sub    $0x1,%ecx
    799d:	48 8d 6c cd 08       	lea    0x8(%rbp,%rcx,8),%rbp
    79a2:	66 0f 1f 44 00 00    	nopw   0x0(%rax,%rax,1)
                    int leaf = codebook[PEEK_BITS(w)];
    79a8:	89 f1                	mov    %esi,%ecx
    79aa:	c1 e9 1b             	shr    $0x1b,%ecx
    79ad:	45 0f bf 04 49       	movswl (%r9,%rcx,2),%r8d
                    while (leaf < 0)
    79b2:	45 85 c0             	test   %r8d,%r8d
    79b5:	79 35                	jns    79ec <mp3dec_decode_frame+0x3c2c>
                    int j, w = 5;
    79b7:	bf 05 00 00 00       	mov    $0x5,%edi
    79bc:	0f 1f 40 00          	nopl   0x0(%rax)
                        FLUSH_BITS(w);
    79c0:	89 f9                	mov    %edi,%ecx
    79c2:	41 01 fb             	add    %edi,%r11d
                        w = leaf & 7;
    79c5:	44 89 c7             	mov    %r8d,%edi
                        leaf = codebook[PEEK_BITS(w) - (leaf >> 3)];
    79c8:	41 c1 f8 03          	sar    $0x3,%r8d
                        FLUSH_BITS(w);
    79cc:	d3 e6                	shl    %cl,%esi
                        w = leaf & 7;
    79ce:	83 e7 07             	and    $0x7,%edi
                        leaf = codebook[PEEK_BITS(w) - (leaf >> 3)];
    79d1:	44 89 d1             	mov    %r10d,%ecx
    79d4:	29 f9                	sub    %edi,%ecx
    79d6:	41 89 f7             	mov    %esi,%r15d
    79d9:	41 d3 ef             	shr    %cl,%r15d
    79dc:	44 89 f9             	mov    %r15d,%ecx
    79df:	44 29 c1             	sub    %r8d,%ecx
    79e2:	45 0f bf 04 49       	movswl (%r9,%rcx,2),%r8d
                    while (leaf < 0)
    79e7:	45 85 c0             	test   %r8d,%r8d
    79ea:	78 d4                	js     79c0 <mp3dec_decode_frame+0x3c00>
                    FLUSH_BITS(leaf >> 8);
    79ec:	44 89 c1             	mov    %r8d,%ecx
    79ef:	89 f7                	mov    %esi,%edi
    79f1:	c1 f9 08             	sar    $0x8,%ecx
    79f4:	46 8d 3c 19          	lea    (%rcx,%r11,1),%r15d
                        FLUSH_BITS(lsb ? 1 : 0);
    79f8:	45 89 c3             	mov    %r8d,%r11d
                    FLUSH_BITS(leaf >> 8);
    79fb:	d3 e7                	shl    %cl,%edi
                        FLUSH_BITS(lsb ? 1 : 0);
    79fd:	41 83 e3 0f          	and    $0xf,%r11d
    7a01:	89 fe                	mov    %edi,%esi
    7a03:	0f 95 c1             	setne  %cl
    7a06:	41 0f 95 c5          	setne  %r13b
                        *dst = g_pow43[16 + lsb - 16*(bs_cache >> 31)]*one;
    7a0a:	c1 ef 1f             	shr    $0x1f,%edi
    7a0d:	41 83 c3 10          	add    $0x10,%r11d
                        FLUSH_BITS(lsb ? 1 : 0);
    7a11:	d3 e6                	shl    %cl,%esi
                        *dst = g_pow43[16 + lsb - 16*(bs_cache >> 31)]*one;
    7a13:	c1 e7 04             	shl    $0x4,%edi
                        FLUSH_BITS(lsb ? 1 : 0);
    7a16:	45 0f b6 ed          	movzbl %r13b,%r13d
                        *dst = g_pow43[16 + lsb - 16*(bs_cache >> 31)]*one;
    7a1a:	41 29 fb             	sub    %edi,%r11d
                    for (j = 0; j < 2; j++, dst++, leaf >>= 4)
    7a1d:	41 c1 f8 04          	sar    $0x4,%r8d
                        *dst = g_pow43[16 + lsb - 16*(bs_cache >> 31)]*one;
    7a21:	89 f7                	mov    %esi,%edi
                        FLUSH_BITS(lsb ? 1 : 0);
    7a23:	45 01 fd             	add    %r15d,%r13d
                        int lsb = leaf & 0x0F;
    7a26:	41 83 e0 0f          	and    $0xf,%r8d
                        *dst = g_pow43[16 + lsb - 16*(bs_cache >> 31)]*one;
    7a2a:	c1 ef 1f             	shr    $0x1f,%edi
    7a2d:	f3 42 0f 10 04 9b    	movss  (%rbx,%r11,4),%xmm0
    7a33:	c1 e7 04             	shl    $0x4,%edi
    7a36:	41 8d 48 10          	lea    0x10(%r8),%ecx
    7a3a:	29 f9                	sub    %edi,%ecx
                        FLUSH_BITS(lsb ? 1 : 0);
    7a3c:	45 85 c0             	test   %r8d,%r8d
                        *dst = g_pow43[16 + lsb - 16*(bs_cache >> 31)]*one;
    7a3f:	f3 0f 10 14 8b       	movss  (%rbx,%rcx,4),%xmm2
                        FLUSH_BITS(lsb ? 1 : 0);
    7a44:	41 0f 95 c3          	setne  %r11b
    7a48:	0f 95 c1             	setne  %cl
                    for (j = 0; j < 2; j++, dst++, leaf >>= 4)
    7a4b:	48 83 c0 08          	add    $0x8,%rax
                        FLUSH_BITS(lsb ? 1 : 0);
    7a4f:	45 0f b6 db          	movzbl %r11b,%r11d
    7a53:	d3 e6                	shl    %cl,%esi
                        *dst = g_pow43[16 + lsb - 16*(bs_cache >> 31)]*one;
    7a55:	0f 14 c2             	unpcklps %xmm2,%xmm0
    7a58:	0f 59 c7             	mulps  %xmm7,%xmm0
    7a5b:	0f 13 40 f8          	movlps %xmm0,-0x8(%rax)
                    CHECK_BITS;
    7a5f:	45 01 eb             	add    %r13d,%r11d
    7a62:	78 3b                	js     7a9f <mp3dec_decode_frame+0x3cdf>
    7a64:	45 89 dd             	mov    %r11d,%r13d
    7a67:	44 89 d9             	mov    %r11d,%ecx
    7a6a:	4d 89 f0             	mov    %r14,%r8
    7a6d:	41 83 cd f8          	or     $0xfffffff8,%r13d
    7a71:	0f 1f 80 00 00 00 00 	nopl   0x0(%rax)
    7a78:	41 0f b6 38          	movzbl (%r8),%edi
    7a7c:	49 83 c0 01          	add    $0x1,%r8
    7a80:	d3 e7                	shl    %cl,%edi
    7a82:	83 e9 08             	sub    $0x8,%ecx
    7a85:	09 fe                	or     %edi,%esi
    7a87:	44 39 e9             	cmp    %r13d,%ecx
    7a8a:	75 ec                	jne    7a78 <mp3dec_decode_frame+0x3cb8>
    7a8c:	44 89 d9             	mov    %r11d,%ecx
    7a8f:	c1 e9 03             	shr    $0x3,%ecx
    7a92:	8d 79 01             	lea    0x1(%rcx),%edi
    7a95:	f7 d9                	neg    %ecx
    7a97:	49 01 fe             	add    %rdi,%r14
    7a9a:	45 8d 5c cb f8       	lea    -0x8(%r11,%rcx,8),%r11d
                } while (--pairs_to_decode);
    7a9f:	48 39 e8             	cmp    %rbp,%rax
    7aa2:	0f 85 00 ff ff ff    	jne    79a8 <mp3dec_decode_frame+0x3be8>
            } while ((big_val_cnt -= np) > 0 && --sfb_cnt >= 0);
    7aa8:	44 8b 7c 24 20       	mov    0x20(%rsp),%r15d
    7aad:	89 f7                	mov    %esi,%edi
    7aaf:	44 89 de             	mov    %r11d,%esi
    7ab2:	44 8b 5c 24 10       	mov    0x10(%rsp),%r11d
    7ab7:	4c 8b 2c 24          	mov    (%rsp),%r13
    7abb:	45 29 df             	sub    %r11d,%r15d
    7abe:	45 85 ff             	test   %r15d,%r15d
    7ac1:	0f 8e b9 18 00 00    	jle    9380 <mp3dec_decode_frame+0x55c0>
    7ac7:	49 39 d5             	cmp    %rdx,%r13
    7aca:	0f 85 88 fe ff ff    	jne    7958 <mp3dec_decode_frame+0x3b98>
    7ad0:	45 89 fb             	mov    %r15d,%r11d
    7ad3:	4d 89 e0             	mov    %r12,%r8
    7ad6:	41 89 f7             	mov    %esi,%r15d
    7ad9:	4c 89 e8             	mov    %r13,%rax
    7adc:	48 8b 74 24 30       	mov    0x30(%rsp),%rsi
    7ae1:	41 89 fc             	mov    %edi,%r12d
    7ae4:	e9 e1 f4 ff ff       	jmp    6fca <mp3dec_decode_frame+0x320a>
  return __builtin___memcpy_chk (__dest, __src, __len,
    7ae9:	4c 89 f9             	mov    %r15,%rcx
    7aec:	4c 89 e2             	mov    %r12,%rdx
    7aef:	48 89 de             	mov    %rbx,%rsi
    7af2:	4c 89 ef             	mov    %r13,%rdi
    7af5:	44 89 0c 24          	mov    %r9d,(%rsp)
    7af9:	e8 c2 a9 ff ff       	call   24c0 <__memcpy_chk@plt>
    7afe:	44 8b 0c 24          	mov    (%rsp),%r9d
    7b02:	f3 0f 10 1d 76 9b 00 	movss  0x9b76(%rip),%xmm3        # 11680 <g_pow43+0x260>
    7b09:	00 
    7b0a:	e9 0b ee ff ff       	jmp    691a <mp3dec_decode_frame+0x2b5a>
                int max_scf = (scfsi < 0) ? (1 << bits) - 1 : -1;
    7b0f:	c7 04 24 ff ff ff ff 	movl   $0xffffffff,(%rsp)
    7b16:	45 85 c9             	test   %r9d,%r9d
    7b19:	79 0d                	jns    7b28 <mp3dec_decode_frame+0x3d68>
    7b1b:	ba 01 00 00 00       	mov    $0x1,%edx
    7b20:	d3 e2                	shl    %cl,%edx
    7b22:	83 ea 01             	sub    $0x1,%edx
    7b25:	89 14 24             	mov    %edx,(%rsp)
        int cnt = scf_count[i];
    7b28:	89 44 24 10          	mov    %eax,0x10(%rsp)
    int shl = n + s;
    7b2c:	45 31 c0             	xor    %r8d,%r8d
    return cache | (next >> -shl);
    7b2f:	4c 89 7c 24 40       	mov    %r15,0x40(%rsp)
    uint32_t next, cache = 0, s = bs->pos & 7;
    7b34:	8b 84 24 08 08 00 00 	mov    0x808(%rsp),%eax
    const uint8_t *p = bs->buf + (bs->pos >> 3);
    7b3b:	48 8b 94 24 00 08 00 	mov    0x800(%rsp),%rdx
    7b42:	00 
    if ((bs->pos += n) > bs->limit)
    7b43:	41 8d 0c 02          	lea    (%r10,%rax,1),%ecx
    7b47:	89 8c 24 08 08 00 00 	mov    %ecx,0x808(%rsp)
    7b4e:	3b 8c 24 0c 08 00 00 	cmp    0x80c(%rsp),%ecx
    7b55:	0f 8f 9e 00 00 00    	jg     7bf9 <mp3dec_decode_frame+0x3e39>
    uint32_t next, cache = 0, s = bs->pos & 7;
    7b5b:	89 c1                	mov    %eax,%ecx
    const uint8_t *p = bs->buf + (bs->pos >> 3);
    7b5d:	c1 f8 03             	sar    $0x3,%eax
    next = *p++ & (255 >> s);
    7b60:	41 bf ff 00 00 00    	mov    $0xff,%r15d
    const uint8_t *p = bs->buf + (bs->pos >> 3);
    7b66:	48 98                	cltq
    uint32_t next, cache = 0, s = bs->pos & 7;
    7b68:	83 e1 07             	and    $0x7,%ecx
    const uint8_t *p = bs->buf + (bs->pos >> 3);
    7b6b:	48 01 d0             	add    %rdx,%rax
    int shl = n + s;
    7b6e:	42 8d 34 11          	lea    (%rcx,%r10,1),%esi
    next = *p++ & (255 >> s);
    7b72:	41 d3 ff             	sar    %cl,%r15d
    7b75:	48 8d 50 01          	lea    0x1(%rax),%rdx
    7b79:	0f b6 00             	movzbl (%rax),%eax
    int shl = n + s;
    7b7c:	89 f7                	mov    %esi,%edi
    next = *p++ & (255 >> s);
    7b7e:	44 21 f8             	and    %r15d,%eax
    while ((shl -= 8) > 0)
    7b81:	44 8d 7e f8          	lea    -0x8(%rsi),%r15d
    7b85:	45 85 ff             	test   %r15d,%r15d
    7b88:	0f 8e 0b 18 00 00    	jle    9399 <mp3dec_decode_frame+0x55d9>
    7b8e:	44 8d 5e f7          	lea    -0x9(%rsi),%r11d
    7b92:	8d 7e f0             	lea    -0x10(%rsi),%edi
    uint32_t next, cache = 0, s = bs->pos & 7;
    7b95:	31 f6                	xor    %esi,%esi
    7b97:	44 89 d9             	mov    %r11d,%ecx
    7b9a:	83 e1 f8             	and    $0xfffffff8,%ecx
    7b9d:	29 cf                	sub    %ecx,%edi
    while ((shl -= 8) > 0)
    7b9f:	44 89 f9             	mov    %r15d,%ecx
    7ba2:	66 0f 1f 44 00 00    	nopw   0x0(%rax,%rax,1)
        cache |= next << shl;
    7ba8:	d3 e0                	shl    %cl,%eax
    while ((shl -= 8) > 0)
    7baa:	83 e9 08             	sub    $0x8,%ecx
    7bad:	48 83 c2 01          	add    $0x1,%rdx
        cache |= next << shl;
    7bb1:	09 c6                	or     %eax,%esi
        next = *p++;
    7bb3:	0f b6 42 ff          	movzbl -0x1(%rdx),%eax
    while ((shl -= 8) > 0)
    7bb7:	39 f9                	cmp    %edi,%ecx
    7bb9:	75 ed                	jne    7ba8 <mp3dec_decode_frame+0x3de8>
    7bbb:	41 83 e3 f8          	and    $0xfffffff8,%r11d
    7bbf:	44 89 ff             	mov    %r15d,%edi
    7bc2:	44 29 df             	sub    %r11d,%edi
    return cache | (next >> -shl);
    7bc5:	b9 08 00 00 00       	mov    $0x8,%ecx
    7bca:	29 f9                	sub    %edi,%ecx
    7bcc:	d3 e8                	shr    %cl,%eax
                    int s = get_bits(bitbuf, bits);
    7bce:	09 f0                	or     %esi,%eax
                    scf[k] = s;
    7bd0:	89 c2                	mov    %eax,%edx
                    ist_pos[k] = (s == max_scf ? -1 : s);
    7bd2:	39 04 24             	cmp    %eax,(%rsp)
    7bd5:	74 2b                	je     7c02 <mp3dec_decode_frame+0x3e42>
    7bd7:	42 88 14 03          	mov    %dl,(%rbx,%r8,1)
                    scf[k] = s;
    7bdb:	43 88 54 05 00       	mov    %dl,0x0(%r13,%r8,1)
                for (k = 0; k < cnt; k++)
    7be0:	49 83 c0 01          	add    $0x1,%r8
    7be4:	44 39 44 24 10       	cmp    %r8d,0x10(%rsp)
    7be9:	0f 8f 45 ff ff ff    	jg     7b34 <mp3dec_decode_frame+0x3d74>
    7bef:	4c 8b 7c 24 40       	mov    0x40(%rsp),%r15
    7bf4:	e9 21 ed ff ff       	jmp    691a <mp3dec_decode_frame+0x2b5a>
    7bf9:	31 c0                	xor    %eax,%eax
    7bfb:	31 d2                	xor    %edx,%edx
                    ist_pos[k] = (s == max_scf ? -1 : s);
    7bfd:	39 04 24             	cmp    %eax,(%rsp)
    7c00:	75 d5                	jne    7bd7 <mp3dec_decode_frame+0x3e17>
    7c02:	42 c6 04 03 ff       	movb   $0xff,(%rbx,%r8,1)
                    scf[k] = s;
    7c07:	43 88 54 05 00       	mov    %dl,0x0(%r13,%r8,1)
                for (k = 0; k < cnt; k++)
    7c0c:	49 83 c0 01          	add    $0x1,%r8
    7c10:	44 39 44 24 10       	cmp    %r8d,0x10(%rsp)
    7c15:	0f 8f 19 ff ff ff    	jg     7b34 <mp3dec_decode_frame+0x3d74>
    7c1b:	eb d2                	jmp    7bef <mp3dec_decode_frame+0x3e2f>
    7c1d:	49 89 d5             	mov    %rdx,%r13
    7c20:	48 8b 94 24 30 01 00 	mov    0x130(%rsp),%rdx
    7c27:	00 
    7c28:	45 89 da             	mov    %r11d,%r10d
    7c2b:	49 89 c8             	mov    %rcx,%r8
    for (np = 1 - big_val_cnt;; dst += 4)
    7c2e:	48 8b 84 24 90 00 00 	mov    0x90(%rsp),%rax
    7c35:	00 
    7c36:	be 01 00 00 00       	mov    $0x1,%esi
    7c3b:	4c 8d 0d 1e 81 00 00 	lea    0x811e(%rip),%r9        # fd60 <tab32.13>
            leaf = codebook_count1[(leaf >> 3) + (bs_cache << 4 >> (32 - (leaf & 3)))];
    7c42:	41 bb 20 00 00 00    	mov    $0x20,%r11d
    for (np = 1 - big_val_cnt;; dst += 4)
    7c48:	44 29 d6             	sub    %r10d,%esi
        DEQ_COUNT1(3);
    7c4b:	f3 0f 10 15 2d 9a 00 	movss  0x9a2d(%rip),%xmm2        # 11680 <g_pow43+0x260>
    7c52:	00 
    7c53:	4c 89 c7             	mov    %r8,%rdi
        if (BSPOS > layer3gr_limit)
    7c56:	4c 63 94 24 e0 00 00 	movslq 0xe0(%rsp),%r10
    7c5d:	00 
    7c5e:	80 78 0b 00          	cmpb   $0x0,0xb(%rax)
    7c62:	48 8d 05 17 81 00 00 	lea    0x8117(%rip),%rax        # fd80 <tab33.14>
    7c69:	4c 0f 45 c8          	cmovne %rax,%r9
    7c6d:	e9 02 01 00 00       	jmp    7d74 <mp3dec_decode_frame+0x3fb4>
    7c72:	66 0f 1f 44 00 00    	nopw   0x0(%rax,%rax,1)
        RELOAD_SCALEFACTOR;
    7c78:	83 ee 01             	sub    $0x1,%esi
    7c7b:	75 1f                	jne    7c9c <mp3dec_decode_frame+0x3edc>
    7c7d:	41 0f b6 4d 00       	movzbl 0x0(%r13),%ecx
    7c82:	4d 8d 45 01          	lea    0x1(%r13),%r8
    7c86:	d0 e9                	shr    $1,%cl
    7c88:	0f b6 f1             	movzbl %cl,%esi
    7c8b:	0f 84 35 01 00 00    	je     7dc6 <mp3dec_decode_frame+0x4006>
    7c91:	f3 0f 10 0f          	movss  (%rdi),%xmm1
    7c95:	4d 89 c5             	mov    %r8,%r13
    7c98:	48 83 c7 04          	add    $0x4,%rdi
        DEQ_COUNT1(0);
    7c9c:	a8 80                	test   $0x80,%al
    7c9e:	74 1b                	je     7cbb <mp3dec_decode_frame+0x3efb>
    7ca0:	0f 28 c1             	movaps %xmm1,%xmm0
    7ca3:	45 85 e4             	test   %r12d,%r12d
    7ca6:	79 07                	jns    7caf <mp3dec_decode_frame+0x3eef>
    7ca8:	0f 57 05 d1 99 00 00 	xorps  0x99d1(%rip),%xmm0        # 11680 <g_pow43+0x260>
    7caf:	f3 0f 11 45 00       	movss  %xmm0,0x0(%rbp)
    7cb4:	45 01 e4             	add    %r12d,%r12d
    7cb7:	41 83 c7 01          	add    $0x1,%r15d
        DEQ_COUNT1(1);
    7cbb:	a8 40                	test   $0x40,%al
    7cbd:	74 1b                	je     7cda <mp3dec_decode_frame+0x3f1a>
    7cbf:	0f 28 c1             	movaps %xmm1,%xmm0
    7cc2:	45 85 e4             	test   %r12d,%r12d
    7cc5:	79 07                	jns    7cce <mp3dec_decode_frame+0x3f0e>
    7cc7:	0f 57 05 b2 99 00 00 	xorps  0x99b2(%rip),%xmm0        # 11680 <g_pow43+0x260>
    7cce:	f3 0f 11 45 04       	movss  %xmm0,0x4(%rbp)
    7cd3:	45 01 e4             	add    %r12d,%r12d
    7cd6:	41 83 c7 01          	add    $0x1,%r15d
        RELOAD_SCALEFACTOR;
    7cda:	83 ee 01             	sub    $0x1,%esi
    7cdd:	75 1f                	jne    7cfe <mp3dec_decode_frame+0x3f3e>
    7cdf:	41 0f b6 4d 00       	movzbl 0x0(%r13),%ecx
    7ce4:	4d 8d 45 01          	lea    0x1(%r13),%r8
    7ce8:	d0 e9                	shr    $1,%cl
    7cea:	0f b6 f1             	movzbl %cl,%esi
    7ced:	0f 84 d3 00 00 00    	je     7dc6 <mp3dec_decode_frame+0x4006>
    7cf3:	f3 0f 10 0f          	movss  (%rdi),%xmm1
    7cf7:	4d 89 c5             	mov    %r8,%r13
    7cfa:	48 83 c7 04          	add    $0x4,%rdi
        DEQ_COUNT1(2);
    7cfe:	a8 20                	test   $0x20,%al
    7d00:	74 1b                	je     7d1d <mp3dec_decode_frame+0x3f5d>
    7d02:	0f 28 c1             	movaps %xmm1,%xmm0
    7d05:	45 85 e4             	test   %r12d,%r12d
    7d08:	79 07                	jns    7d11 <mp3dec_decode_frame+0x3f51>
    7d0a:	0f 57 05 6f 99 00 00 	xorps  0x996f(%rip),%xmm0        # 11680 <g_pow43+0x260>
    7d11:	f3 0f 11 45 08       	movss  %xmm0,0x8(%rbp)
    7d16:	45 01 e4             	add    %r12d,%r12d
    7d19:	41 83 c7 01          	add    $0x1,%r15d
        DEQ_COUNT1(3);
    7d1d:	a8 10                	test   $0x10,%al
    7d1f:	74 17                	je     7d38 <mp3dec_decode_frame+0x3f78>
    7d21:	0f 28 c1             	movaps %xmm1,%xmm0
    7d24:	45 85 e4             	test   %r12d,%r12d
    7d27:	79 03                	jns    7d2c <mp3dec_decode_frame+0x3f6c>
    7d29:	0f 57 c2             	xorps  %xmm2,%xmm0
    7d2c:	f3 0f 11 45 0c       	movss  %xmm0,0xc(%rbp)
    7d31:	45 01 e4             	add    %r12d,%r12d
    7d34:	41 83 c7 01          	add    $0x1,%r15d
        CHECK_BITS;
    7d38:	45 85 ff             	test   %r15d,%r15d
    7d3b:	78 33                	js     7d70 <mp3dec_decode_frame+0x3fb0>
    7d3d:	41 0f b6 06          	movzbl (%r14),%eax
    7d41:	44 89 f9             	mov    %r15d,%ecx
    7d44:	d3 e0                	shl    %cl,%eax
    7d46:	44 89 f9             	mov    %r15d,%ecx
    7d49:	41 09 c4             	or     %eax,%r12d
    7d4c:	83 e9 08             	sub    $0x8,%ecx
    7d4f:	78 0a                	js     7d5b <mp3dec_decode_frame+0x3f9b>
    7d51:	41 0f b6 46 01       	movzbl 0x1(%r14),%eax
    7d56:	d3 e0                	shl    %cl,%eax
    7d58:	41 09 c4             	or     %eax,%r12d
    7d5b:	41 c1 ef 03          	shr    $0x3,%r15d
    7d5f:	41 8d 47 01          	lea    0x1(%r15),%eax
    7d63:	41 f7 df             	neg    %r15d
    7d66:	41 83 e7 f8          	and    $0xfffffff8,%r15d
    7d6a:	49 01 c6             	add    %rax,%r14
    7d6d:	41 01 cf             	add    %ecx,%r15d
    for (np = 1 - big_val_cnt;; dst += 4)
    7d70:	48 83 c5 10          	add    $0x10,%rbp
        int leaf = codebook_count1[PEEK_BITS(4)];
    7d74:	44 89 e0             	mov    %r12d,%eax
    7d77:	c1 e8 1c             	shr    $0x1c,%eax
    7d7a:	41 0f b6 04 01       	movzbl (%r9,%rax,1),%eax
        if (!(leaf & 8))
    7d7f:	a8 08                	test   $0x8,%al
    7d81:	75 21                	jne    7da4 <mp3dec_decode_frame+0x3fe4>
            leaf = codebook_count1[(leaf >> 3) + (bs_cache << 4 >> (32 - (leaf & 3)))];
    7d83:	89 c3                	mov    %eax,%ebx
    7d85:	45 89 e0             	mov    %r12d,%r8d
    7d88:	44 89 d9             	mov    %r11d,%ecx
    7d8b:	c1 f8 03             	sar    $0x3,%eax
    7d8e:	83 e3 03             	and    $0x3,%ebx
    7d91:	41 c1 e0 04          	shl    $0x4,%r8d
    7d95:	29 d9                	sub    %ebx,%ecx
    7d97:	41 d3 e8             	shr    %cl,%r8d
    7d9a:	44 01 c0             	add    %r8d,%eax
    7d9d:	89 c0                	mov    %eax,%eax
    7d9f:	41 0f b6 04 01       	movzbl (%r9,%rax,1),%eax
        FLUSH_BITS(leaf & 7);
    7da4:	89 c1                	mov    %eax,%ecx
        if (BSPOS > layer3gr_limit)
    7da6:	4d 89 f0             	mov    %r14,%r8
        FLUSH_BITS(leaf & 7);
    7da9:	83 e1 07             	and    $0x7,%ecx
        if (BSPOS > layer3gr_limit)
    7dac:	49 29 d0             	sub    %rdx,%r8
        FLUSH_BITS(leaf & 7);
    7daf:	41 01 cf             	add    %ecx,%r15d
    7db2:	41 d3 e4             	shl    %cl,%r12d
        if (BSPOS > layer3gr_limit)
    7db5:	49 63 cf             	movslq %r15d,%rcx
    7db8:	4a 8d 4c c1 e8       	lea    -0x18(%rcx,%r8,8),%rcx
    7dbd:	4c 39 d1             	cmp    %r10,%rcx
    7dc0:	0f 8e b2 fe ff ff    	jle    7c78 <mp3dec_decode_frame+0x3eb8>
    bs->pos = layer3gr_limit;
    7dc6:	8b 84 24 e0 00 00 00 	mov    0xe0(%rsp),%eax
    for (ch = 0; ch < nch; ch++)
    7dcd:	83 84 24 c0 00 00 00 	addl   $0x1,0xc0(%rsp)
    7dd4:	01 
    7dd5:	48 83 84 24 00 01 00 	addq   $0x27,0x100(%rsp)
    7ddc:	00 27 
    bs->pos = layer3gr_limit;
    7dde:	89 84 24 08 08 00 00 	mov    %eax,0x808(%rsp)
    for (ch = 0; ch < nch; ch++)
    7de5:	8b 84 24 c0 00 00 00 	mov    0xc0(%rsp),%eax
    7dec:	48 81 84 24 f0 00 00 	addq   $0x900,0xf0(%rsp)
    7df3:	00 00 09 00 00 
    7df8:	48 83 84 24 90 00 00 	addq   $0x20,0x90(%rsp)
    7dff:	00 20 
    7e01:	39 84 24 a0 00 00 00 	cmp    %eax,0xa0(%rsp)
    7e08:	0f 85 d7 e9 ff ff    	jne    67e5 <mp3dec_decode_frame+0x2a25>
    if (HDR_TEST_I_STEREO(h->header))
    7e0e:	48 8b 84 24 f0 03 00 	mov    0x3f0(%rsp),%rax
    7e15:	00 
    7e16:	4c 8b bc 24 40 01 00 	mov    0x140(%rsp),%r15
    7e1d:	00 
    7e1e:	4c 8b a4 24 50 01 00 	mov    0x150(%rsp),%r12
    7e25:	00 
    7e26:	0f b6 80 0b 18 00 00 	movzbl 0x180b(%rax),%eax
    7e2d:	a8 10                	test   $0x10,%al
    7e2f:	0f 85 bc 1d 00 00    	jne    9bf1 <mp3dec_decode_frame+0x5e31>
    } else if (HDR_IS_MS_STEREO(h->header))
    7e35:	83 e0 e0             	and    $0xffffffe0,%eax
    7e38:	3c 60                	cmp    $0x60,%al
    7e3a:	0f 84 59 1d 00 00    	je     9b99 <mp3dec_decode_frame+0x5dd9>
    7e40:	48 8b 84 24 f0 03 00 	mov    0x3f0(%rsp),%rax
    7e47:	00 
    7e48:	48 8b 9c 24 d0 00 00 	mov    0xd0(%rsp),%rbx
    7e4f:	00 
    int i = 0;
    7e50:	48 c7 04 24 90 0b 00 	movq   $0xb90,(%rsp)
    7e57:	00 
    7e58:	4c 8d 9c 24 d8 1c 00 	lea    0x1cd8(%rsp),%r11
    7e5f:	00 
    7e60:	0f 28 0d b9 98 00 00 	movaps 0x98b9(%rip),%xmm1        # 11720 <g_pow43+0x300>
    7e67:	4c 89 7c 24 60       	mov    %r15,0x60(%rsp)
    7e6c:	4c 89 dd             	mov    %r11,%rbp
    7e6f:	48 89 44 24 10       	mov    %rax,0x10(%rsp)
    7e74:	48 63 84 24 a0 00 00 	movslq 0xa0(%rsp),%rax
    7e7b:	00 
    7e7c:	49 89 df             	mov    %rbx,%r15
    7e7f:	48 c1 e0 05          	shl    $0x5,%rax
    7e83:	48 01 d8             	add    %rbx,%rax
    7e86:	4c 89 e3             	mov    %r12,%rbx
    7e89:	48 89 44 24 50       	mov    %rax,0x50(%rsp)
        int n_long_bands = (gr_info->mixed_block_flag ? 2 : 0) << (int)(HDR_GET_MY_SAMPLE_RATE(h->header) == 2);
    7e8e:	48 8b bc 24 f0 03 00 	mov    0x3f0(%rsp),%rdi
    7e95:	00 
    7e96:	31 f6                	xor    %esi,%esi
    7e98:	41 80 7f 10 00       	cmpb   $0x0,0x10(%r15)
        L3_antialias(s->grbuf[ch], aa_bands);
    7e9d:	4c 8d 95 b8 f6 ff ff 	lea    -0x948(%rbp),%r10
        int n_long_bands = (gr_info->mixed_block_flag ? 2 : 0) << (int)(HDR_GET_MY_SAMPLE_RATE(h->header) == 2);
    7ea4:	40 0f 95 c6          	setne  %sil
        int aa_bands = 31;
    7ea8:	41 b8 1f 00 00 00    	mov    $0x1f,%r8d
        int n_long_bands = (gr_info->mixed_block_flag ? 2 : 0) << (int)(HDR_GET_MY_SAMPLE_RATE(h->header) == 2);
    7eae:	0f b6 97 09 18 00 00 	movzbl 0x1809(%rdi),%edx
    7eb5:	01 f6                	add    %esi,%esi
    7eb7:	89 d0                	mov    %edx,%eax
    7eb9:	c0 ea 04             	shr    $0x4,%dl
    7ebc:	c0 e8 03             	shr    $0x3,%al
    7ebf:	83 e2 01             	and    $0x1,%edx
    7ec2:	83 e0 01             	and    $0x1,%eax
    7ec5:	01 d0                	add    %edx,%eax
    7ec7:	8d 14 40             	lea    (%rax,%rax,2),%edx
    7eca:	0f b6 87 0a 18 00 00 	movzbl 0x180a(%rdi),%eax
    7ed1:	c0 e8 02             	shr    $0x2,%al
    7ed4:	83 e0 03             	and    $0x3,%eax
    7ed7:	01 d0                	add    %edx,%eax
    7ed9:	48 8b 14 24          	mov    (%rsp),%rdx
    7edd:	83 f8 02             	cmp    $0x2,%eax
    7ee0:	b8 80 3f 00 00       	mov    $0x3f80,%eax
    7ee5:	0f 94 c1             	sete   %cl
    7ee8:	d3 e6                	shl    %cl,%esi
    7eea:	48 39 c2             	cmp    %rax,%rdx
    7eed:	48 0f 43 c2          	cmovae %rdx,%rax
    7ef1:	41 89 f4             	mov    %esi,%r12d
        if (gr_info->n_short_sfb)
    7ef4:	48 89 44 24 20       	mov    %rax,0x20(%rsp)
    7ef9:	48 29 d0             	sub    %rdx,%rax
    7efc:	41 80 7f 12 00       	cmpb   $0x0,0x12(%r15)
    7f01:	49 89 c5             	mov    %rax,%r13
    7f04:	0f 85 2d 18 00 00    	jne    9737 <mp3dec_decode_frame+0x5977>
    7f0a:	4b 8d 04 c0          	lea    (%r8,%r8,8),%rax
    7f0e:	49 8d 14 c2          	lea    (%r10,%rax,8),%rdx
        int aa_bands = 31;
    7f12:	4c 89 d0             	mov    %r10,%rax
  return *(__m128_u *)__P;
    7f15:	0f 10 50 48          	movups 0x48(%rax),%xmm2
  return (__m128) __builtin_ia32_shufps ((__v4sf)__A, (__v4sf)__B, __mask);
    7f19:	0f 10 40 38          	movups 0x38(%rax),%xmm0
            f4 vu = VLD(grbuf + 18 + i);
    7f1d:	48 83 c0 48          	add    $0x48,%rax
  return (__m128) ((__v4sf)__A * (__v4sf)__B);
    7f21:	0f 28 1d c8 97 00 00 	movaps 0x97c8(%rip),%xmm3        # 116f0 <g_pow43+0x2d0>
    7f28:	0f 28 25 d1 97 00 00 	movaps 0x97d1(%rip),%xmm4        # 11700 <g_pow43+0x2e0>
  return (__m128) __builtin_ia32_shufps ((__v4sf)__A, (__v4sf)__B, __mask);
    7f2f:	0f c6 c0 1b          	shufps $0x1b,%xmm0,%xmm0
  return (__m128) ((__v4sf)__A * (__v4sf)__B);
    7f33:	0f 59 da             	mulps  %xmm2,%xmm3
    7f36:	0f 59 e0             	mulps  %xmm0,%xmm4
    7f39:	0f 59 15 c0 97 00 00 	mulps  0x97c0(%rip),%xmm2        # 11700 <g_pow43+0x2e0>
    7f40:	0f 59 05 a9 97 00 00 	mulps  0x97a9(%rip),%xmm0        # 116f0 <g_pow43+0x2d0>
  return (__m128) ((__v4sf)__A - (__v4sf)__B);
    7f47:	0f 5c dc             	subps  %xmm4,%xmm3
  return (__m128) ((__v4sf)__A + (__v4sf)__B);
    7f4a:	0f 58 c2             	addps  %xmm2,%xmm0
  return *(__m128_u *)__P;
    7f4d:	0f 10 50 10          	movups 0x10(%rax),%xmm2
  *(__m128_u *)__P = __A;
    7f51:	0f 11 18             	movups %xmm3,(%rax)
  return (__m128) ((__v4sf)__A * (__v4sf)__B);
    7f54:	0f 28 1d b5 97 00 00 	movaps 0x97b5(%rip),%xmm3        # 11710 <g_pow43+0x2f0>
  return (__m128) __builtin_ia32_shufps ((__v4sf)__A, (__v4sf)__B, __mask);
    7f5b:	0f c6 c0 1b          	shufps $0x1b,%xmm0,%xmm0
  *(__m128_u *)__P = __A;
    7f5f:	0f 11 40 f0          	movups %xmm0,-0x10(%rax)
  return (__m128) __builtin_ia32_shufps ((__v4sf)__A, (__v4sf)__B, __mask);
    7f63:	0f 10 40 e0          	movups -0x20(%rax),%xmm0
  return (__m128) ((__v4sf)__A * (__v4sf)__B);
    7f67:	0f 59 da             	mulps  %xmm2,%xmm3
    7f6a:	0f 59 d1             	mulps  %xmm1,%xmm2
  return (__m128) __builtin_ia32_shufps ((__v4sf)__A, (__v4sf)__B, __mask);
    7f6d:	0f c6 c0 1b          	shufps $0x1b,%xmm0,%xmm0
  return (__m128) ((__v4sf)__A * (__v4sf)__B);
    7f71:	0f 28 e0             	movaps %xmm0,%xmm4
    7f74:	0f 59 e1             	mulps  %xmm1,%xmm4
    7f77:	0f 59 05 92 97 00 00 	mulps  0x9792(%rip),%xmm0        # 11710 <g_pow43+0x2f0>
  return (__m128) ((__v4sf)__A - (__v4sf)__B);
    7f7e:	0f 5c dc             	subps  %xmm4,%xmm3
  return (__m128) ((__v4sf)__A + (__v4sf)__B);
    7f81:	0f 58 c2             	addps  %xmm2,%xmm0
  *(__m128_u *)__P = __A;
    7f84:	0f 11 58 10          	movups %xmm3,0x10(%rax)
  return (__m128) __builtin_ia32_shufps ((__v4sf)__A, (__v4sf)__B, __mask);
    7f88:	0f c6 c0 1b          	shufps $0x1b,%xmm0,%xmm0
  *(__m128_u *)__P = __A;
    7f8c:	0f 11 40 e0          	movups %xmm0,-0x20(%rax)
    for (; nbands > 0; nbands--, grbuf += 18)
    7f90:	48 39 d0             	cmp    %rdx,%rax
    7f93:	75 80                	jne    7f15 <mp3dec_decode_frame+0x4155>
        L3_imdct_gr(s->grbuf[ch], h->mdct_overlap[ch], gr_info->block_type, n_long_bands);
    7f95:	45 0f b6 47 0f       	movzbl 0xf(%r15),%r8d
    7f9a:	4c 8b 74 24 10       	mov    0x10(%rsp),%r14
    if (n_long_bands)
    7f9f:	31 c0                	xor    %eax,%eax
    7fa1:	45 85 e4             	test   %r12d,%r12d
    7fa4:	74 73                	je     8019 <mp3dec_decode_frame+0x4259>
        L3_imdct36(grbuf, overlap, g_mdct_window[0], n_long_bands);
    7fa6:	4c 89 f6             	mov    %r14,%rsi
    7fa9:	4c 89 d7             	mov    %r10,%rdi
    7fac:	44 89 e1             	mov    %r12d,%ecx
    7faf:	44 89 44 24 70       	mov    %r8d,0x70(%rsp)
    7fb4:	48 8d 15 c5 7c 00 00 	lea    0x7cc5(%rip),%rdx        # fc80 <g_mdct_window.10>
    7fbb:	4c 89 54 24 30       	mov    %r10,0x30(%rsp)
    7fc0:	44 89 64 24 40       	mov    %r12d,0x40(%rsp)
    7fc5:	e8 c6 b0 ff ff       	call   3090 <L3_imdct36>
        grbuf += 18*n_long_bands;
    7fca:	8b 44 24 40          	mov    0x40(%rsp),%eax
    7fce:	b9 80 3f 00 00       	mov    $0x3f80,%ecx
    7fd3:	4c 8b 54 24 20       	mov    0x20(%rsp),%r10
    7fd8:	48 8b 14 24          	mov    (%rsp),%rdx
        overlap += 9*n_long_bands;
    7fdc:	44 8b 44 24 70       	mov    0x70(%rsp),%r8d
        grbuf += 18*n_long_bands;
    7fe1:	8d 34 c0             	lea    (%rax,%rax,8),%esi
    7fe4:	8d 3c 36             	lea    (%rsi,%rsi,1),%edi
        overlap += 9*n_long_bands;
    7fe7:	4d 8d 34 b6          	lea    (%r14,%rsi,4),%r14
        grbuf += 18*n_long_bands;
    7feb:	48 c1 e7 02          	shl    $0x2,%rdi
    7fef:	49 39 cd             	cmp    %rcx,%r13
    7ff2:	49 0f 43 cd          	cmovae %r13,%rcx
    7ff6:	4c 29 d2             	sub    %r10,%rdx
    7ff9:	4c 8b 54 24 30       	mov    0x30(%rsp),%r10
    7ffe:	4c 8d 0c 39          	lea    (%rcx,%rdi,1),%r9
    8002:	4c 01 ca             	add    %r9,%rdx
    8005:	48 39 ca             	cmp    %rcx,%rdx
    8008:	48 0f 42 d1          	cmovb  %rcx,%rdx
    800c:	4c 89 e9             	mov    %r13,%rcx
    800f:	49 01 fa             	add    %rdi,%r10
    8012:	4c 29 c9             	sub    %r9,%rcx
    8015:	4c 8d 2c 0a          	lea    (%rdx,%rcx,1),%r13
        L3_imdct_short(grbuf, overlap, 32 - n_long_bands);
    8019:	b9 20 00 00 00       	mov    $0x20,%ecx
    801e:	29 c1                	sub    %eax,%ecx
    if (block_type == SHORT_BLOCK_TYPE)
    8020:	41 83 f8 02          	cmp    $0x2,%r8d
    8024:	0f 84 fe 15 00 00    	je     9628 <mp3dec_decode_frame+0x5868>
        L3_imdct36(grbuf, overlap, g_mdct_window[block_type == STOP_BLOCK_TYPE], 32 - n_long_bands);
    802a:	41 83 f8 03          	cmp    $0x3,%r8d
    802e:	b8 00 00 00 00       	mov    $0x0,%eax
    8033:	4c 89 f6             	mov    %r14,%rsi
    8036:	4c 89 d7             	mov    %r10,%rdi
    8039:	ba 48 00 00 00       	mov    $0x48,%edx
    803e:	48 0f 45 d0          	cmovne %rax,%rdx
    8042:	48 8d 05 37 7c 00 00 	lea    0x7c37(%rip),%rax        # fc80 <g_mdct_window.10>
    8049:	48 01 c2             	add    %rax,%rdx
    804c:	e8 3f b0 ff ff       	call   3090 <L3_imdct36>
    8051:	0f 28 0d c8 96 00 00 	movaps 0x96c8(%rip),%xmm1        # 11720 <g_pow43+0x300>
    8058:	f3 44 0f 10 05 1f 96 	movss  0x961f(%rip),%xmm8        # 11680 <g_pow43+0x260>
    805f:	00 00 
    for (b = 0, grbuf += 18; b < 32; b += 2, grbuf += 36)
    8061:	48 8d 85 00 f7 ff ff 	lea    -0x900(%rbp),%rax
    8068:	0f 1f 84 00 00 00 00 	nopl   0x0(%rax,%rax,1)
    806f:	00 
            grbuf[i] = -grbuf[i];
    8070:	f3 0f 10 40 04       	movss  0x4(%rax),%xmm0
    for (b = 0, grbuf += 18; b < 32; b += 2, grbuf += 36)
    8075:	48 05 90 00 00 00    	add    $0x90,%rax
            grbuf[i] = -grbuf[i];
    807b:	41 0f 57 c0          	xorps  %xmm8,%xmm0
    807f:	f3 0f 11 80 74 ff ff 	movss  %xmm0,-0x8c(%rax)
    8086:	ff 
    8087:	f3 0f 10 80 7c ff ff 	movss  -0x84(%rax),%xmm0
    808e:	ff 
    808f:	41 0f 57 c0          	xorps  %xmm8,%xmm0
    8093:	f3 0f 11 80 7c ff ff 	movss  %xmm0,-0x84(%rax)
    809a:	ff 
    809b:	f3 0f 10 40 84       	movss  -0x7c(%rax),%xmm0
    80a0:	41 0f 57 c0          	xorps  %xmm8,%xmm0
    80a4:	f3 0f 11 40 84       	movss  %xmm0,-0x7c(%rax)
    80a9:	f3 0f 10 40 8c       	movss  -0x74(%rax),%xmm0
    80ae:	41 0f 57 c0          	xorps  %xmm8,%xmm0
    80b2:	f3 0f 11 40 8c       	movss  %xmm0,-0x74(%rax)
    80b7:	f3 0f 10 40 94       	movss  -0x6c(%rax),%xmm0
    80bc:	41 0f 57 c0          	xorps  %xmm8,%xmm0
    80c0:	f3 0f 11 40 94       	movss  %xmm0,-0x6c(%rax)
    80c5:	f3 0f 10 40 9c       	movss  -0x64(%rax),%xmm0
    80ca:	41 0f 57 c0          	xorps  %xmm8,%xmm0
    80ce:	f3 0f 11 40 9c       	movss  %xmm0,-0x64(%rax)
    80d3:	f3 0f 10 40 a4       	movss  -0x5c(%rax),%xmm0
    80d8:	41 0f 57 c0          	xorps  %xmm8,%xmm0
    80dc:	f3 0f 11 40 a4       	movss  %xmm0,-0x5c(%rax)
    80e1:	f3 0f 10 40 ac       	movss  -0x54(%rax),%xmm0
    80e6:	41 0f 57 c0          	xorps  %xmm8,%xmm0
    80ea:	f3 0f 11 40 ac       	movss  %xmm0,-0x54(%rax)
    80ef:	f3 0f 10 40 b4       	movss  -0x4c(%rax),%xmm0
    80f4:	41 0f 57 c0          	xorps  %xmm8,%xmm0
    80f8:	f3 0f 11 40 b4       	movss  %xmm0,-0x4c(%rax)
    for (b = 0, grbuf += 18; b < 32; b += 2, grbuf += 36)
    80fd:	48 39 e8             	cmp    %rbp,%rax
    8100:	0f 85 6a ff ff ff    	jne    8070 <mp3dec_decode_frame+0x42b0>
    for (ch = 0; ch < nch; ch++, gr_info++)
    8106:	48 8b 44 24 50       	mov    0x50(%rsp),%rax
    810b:	49 83 c7 20          	add    $0x20,%r15
    810f:	48 81 04 24 00 09 00 	addq   $0x900,(%rsp)
    8116:	00 
    8117:	48 81 c5 00 09 00 00 	add    $0x900,%rbp
    811e:	48 81 44 24 10 80 04 	addq   $0x480,0x10(%rsp)
    8125:	00 00 
    8127:	49 39 c7             	cmp    %rax,%r15
    812a:	0f 85 5e fd ff ff    	jne    7e8e <mp3dec_decode_frame+0x40ce>
    8130:	4c 8b 7c 24 60       	mov    0x60(%rsp),%r15
    8135:	49 89 dc             	mov    %rbx,%r12
                mp3d_synth_granule(dec->qmf_state, scratch.grbuf[0], 18, info->channels, pcm, scratch.syn[0]);
    8138:	48 8b 84 24 f8 03 00 	mov    0x3f8(%rsp),%rax
    813f:	00 
    8140:	44 8b 68 08          	mov    0x8(%rax),%r13d
    for (i = 0; i < nch; i++)
    8144:	45 85 ed             	test   %r13d,%r13d
    8147:	0f 8e d1 10 00 00    	jle    921e <mp3dec_decode_frame+0x545e>
    814d:	f3 0f 10 15 33 6f 00 	movss  0x6f33(%rip),%xmm2        # f088 <_IO_stdin_used+0x88>
    8154:	00 
    8155:	48 8b b4 24 e0 03 00 	mov    0x3e0(%rsp),%rsi
    815c:	00 
    815d:	49 63 c5             	movslq %r13d,%rax
    8160:	31 c9                	xor    %ecx,%ecx
    8162:	48 8d 3c c0          	lea    (%rax,%rax,8),%rdi
    8166:	0f c6 d2 00          	shufps $0x0,%xmm2,%xmm2
    816a:	0f 29 94 24 d0 03 00 	movaps %xmm2,0x3d0(%rsp)
    8171:	00 
    8172:	48 c1 e7 06          	shl    $0x6,%rdi
    8176:	f3 0f 10 15 0e 6f 00 	movss  0x6f0e(%rip),%xmm2        # f08c <_IO_stdin_used+0x8c>
    817d:	00 
    817e:	0f c6 d2 00          	shufps $0x0,%xmm2,%xmm2
    8182:	0f 29 94 24 c0 03 00 	movaps %xmm2,0x3c0(%rsp)
    8189:	00 
    818a:	f3 0f 10 15 fe 6e 00 	movss  0x6efe(%rip),%xmm2        # f090 <_IO_stdin_used+0x90>
    8191:	00 
    8192:	0f c6 d2 00          	shufps $0x0,%xmm2,%xmm2
    8196:	0f 29 94 24 b0 03 00 	movaps %xmm2,0x3b0(%rsp)
    819d:	00 
    819e:	f3 0f 10 15 ee 6e 00 	movss  0x6eee(%rip),%xmm2        # f094 <_IO_stdin_used+0x94>
    81a5:	00 
    81a6:	0f c6 d2 00          	shufps $0x0,%xmm2,%xmm2
    81aa:	0f 29 94 24 a0 03 00 	movaps %xmm2,0x3a0(%rsp)
    81b1:	00 
    81b2:	f3 0f 10 15 de 6e 00 	movss  0x6ede(%rip),%xmm2        # f098 <_IO_stdin_used+0x98>
    81b9:	00 
    81ba:	0f c6 d2 00          	shufps $0x0,%xmm2,%xmm2
    81be:	0f 29 94 24 90 03 00 	movaps %xmm2,0x390(%rsp)
    81c5:	00 
    81c6:	f3 0f 10 15 ce 6e 00 	movss  0x6ece(%rip),%xmm2        # f09c <_IO_stdin_used+0x9c>
    81cd:	00 
    81ce:	0f c6 d2 00          	shufps $0x0,%xmm2,%xmm2
    81d2:	0f 29 94 24 80 03 00 	movaps %xmm2,0x380(%rsp)
    81d9:	00 
    81da:	f3 0f 10 15 be 6e 00 	movss  0x6ebe(%rip),%xmm2        # f0a0 <_IO_stdin_used+0xa0>
    81e1:	00 
    81e2:	0f c6 d2 00          	shufps $0x0,%xmm2,%xmm2
    81e6:	0f 29 94 24 70 03 00 	movaps %xmm2,0x370(%rsp)
    81ed:	00 
    81ee:	f3 0f 10 15 ae 6e 00 	movss  0x6eae(%rip),%xmm2        # f0a4 <_IO_stdin_used+0xa4>
    81f5:	00 
    81f6:	0f c6 d2 00          	shufps $0x0,%xmm2,%xmm2
    81fa:	0f 29 94 24 60 03 00 	movaps %xmm2,0x360(%rsp)
    8201:	00 
    8202:	f3 0f 10 15 9e 6e 00 	movss  0x6e9e(%rip),%xmm2        # f0a8 <_IO_stdin_used+0xa8>
    8209:	00 
    820a:	0f c6 d2 00          	shufps $0x0,%xmm2,%xmm2
    820e:	0f 29 94 24 50 03 00 	movaps %xmm2,0x350(%rsp)
    8215:	00 
    8216:	f3 0f 10 15 8e 6e 00 	movss  0x6e8e(%rip),%xmm2        # f0ac <_IO_stdin_used+0xac>
    821d:	00 
    821e:	0f c6 d2 00          	shufps $0x0,%xmm2,%xmm2
    8222:	0f 29 94 24 40 03 00 	movaps %xmm2,0x340(%rsp)
    8229:	00 
    822a:	f3 0f 10 15 7e 6e 00 	movss  0x6e7e(%rip),%xmm2        # f0b0 <_IO_stdin_used+0xb0>
    8231:	00 
    8232:	0f c6 d2 00          	shufps $0x0,%xmm2,%xmm2
    8236:	0f 29 94 24 30 03 00 	movaps %xmm2,0x330(%rsp)
    823d:	00 
    823e:	f3 0f 10 15 6e 6e 00 	movss  0x6e6e(%rip),%xmm2        # f0b4 <_IO_stdin_used+0xb4>
    8245:	00 
    8246:	0f c6 d2 00          	shufps $0x0,%xmm2,%xmm2
    824a:	0f 29 94 24 20 03 00 	movaps %xmm2,0x320(%rsp)
    8251:	00 
    8252:	f3 0f 10 15 5e 6e 00 	movss  0x6e5e(%rip),%xmm2        # f0b8 <_IO_stdin_used+0xb8>
    8259:	00 
    825a:	0f c6 d2 00          	shufps $0x0,%xmm2,%xmm2
    825e:	0f 29 94 24 10 03 00 	movaps %xmm2,0x310(%rsp)
    8265:	00 
    8266:	f3 0f 10 15 4e 6e 00 	movss  0x6e4e(%rip),%xmm2        # f0bc <_IO_stdin_used+0xbc>
    826d:	00 
    826e:	0f c6 d2 00          	shufps $0x0,%xmm2,%xmm2
    8272:	0f 29 94 24 00 03 00 	movaps %xmm2,0x300(%rsp)
    8279:	00 
    827a:	f3 0f 10 15 3e 6e 00 	movss  0x6e3e(%rip),%xmm2        # f0c0 <_IO_stdin_used+0xc0>
    8281:	00 
    8282:	0f c6 d2 00          	shufps $0x0,%xmm2,%xmm2
    8286:	0f 29 94 24 f0 02 00 	movaps %xmm2,0x2f0(%rsp)
    828d:	00 
    828e:	f3 0f 10 15 2e 6e 00 	movss  0x6e2e(%rip),%xmm2        # f0c4 <_IO_stdin_used+0xc4>
    8295:	00 
    8296:	0f c6 d2 00          	shufps $0x0,%xmm2,%xmm2
    829a:	0f 29 94 24 e0 02 00 	movaps %xmm2,0x2e0(%rsp)
    82a1:	00 
    82a2:	f3 0f 10 15 1e 6e 00 	movss  0x6e1e(%rip),%xmm2        # f0c8 <_IO_stdin_used+0xc8>
    82a9:	00 
    82aa:	f3 44 0f 10 1d 35 6e 	movss  0x6e35(%rip),%xmm11        # f0e8 <_IO_stdin_used+0xe8>
    82b1:	00 00 
    82b3:	0f c6 d2 00          	shufps $0x0,%xmm2,%xmm2
    82b7:	0f 29 94 24 d0 02 00 	movaps %xmm2,0x2d0(%rsp)
    82be:	00 
    82bf:	45 0f c6 db 00       	shufps $0x0,%xmm11,%xmm11
    82c4:	f3 0f 10 15 00 6e 00 	movss  0x6e00(%rip),%xmm2        # f0cc <_IO_stdin_used+0xcc>
    82cb:	00 
    82cc:	0f c6 d2 00          	shufps $0x0,%xmm2,%xmm2
    82d0:	0f 29 94 24 c0 02 00 	movaps %xmm2,0x2c0(%rsp)
    82d7:	00 
    82d8:	f3 0f 10 15 f0 6d 00 	movss  0x6df0(%rip),%xmm2        # f0d0 <_IO_stdin_used+0xd0>
    82df:	00 
    82e0:	0f c6 d2 00          	shufps $0x0,%xmm2,%xmm2
    82e4:	0f 29 94 24 b0 02 00 	movaps %xmm2,0x2b0(%rsp)
    82eb:	00 
    82ec:	f3 0f 10 15 e0 6d 00 	movss  0x6de0(%rip),%xmm2        # f0d4 <_IO_stdin_used+0xd4>
    82f3:	00 
    82f4:	0f c6 d2 00          	shufps $0x0,%xmm2,%xmm2
    82f8:	0f 29 94 24 a0 02 00 	movaps %xmm2,0x2a0(%rsp)
    82ff:	00 
    8300:	f3 0f 10 15 d0 6d 00 	movss  0x6dd0(%rip),%xmm2        # f0d8 <_IO_stdin_used+0xd8>
    8307:	00 
    8308:	0f c6 d2 00          	shufps $0x0,%xmm2,%xmm2
    830c:	0f 29 94 24 90 02 00 	movaps %xmm2,0x290(%rsp)
    8313:	00 
    8314:	f3 0f 10 15 c0 6d 00 	movss  0x6dc0(%rip),%xmm2        # f0dc <_IO_stdin_used+0xdc>
    831b:	00 
    831c:	0f c6 d2 00          	shufps $0x0,%xmm2,%xmm2
    8320:	0f 29 94 24 80 02 00 	movaps %xmm2,0x280(%rsp)
    8327:	00 
    8328:	f3 0f 10 15 b0 6d 00 	movss  0x6db0(%rip),%xmm2        # f0e0 <_IO_stdin_used+0xe0>
    832f:	00 
    8330:	0f c6 d2 00          	shufps $0x0,%xmm2,%xmm2
    8334:	0f 29 94 24 70 02 00 	movaps %xmm2,0x270(%rsp)
    833b:	00 
    833c:	f3 0f 10 15 a0 6d 00 	movss  0x6da0(%rip),%xmm2        # f0e4 <_IO_stdin_used+0xe4>
    8343:	00 
    8344:	0f c6 d2 00          	shufps $0x0,%xmm2,%xmm2
    8348:	0f 29 94 24 c0 01 00 	movaps %xmm2,0x1c0(%rsp)
    834f:	00 
    8350:	f3 0f 10 15 94 6d 00 	movss  0x6d94(%rip),%xmm2        # f0ec <_IO_stdin_used+0xec>
    8357:	00 
    8358:	0f c6 d2 00          	shufps $0x0,%xmm2,%xmm2
    835c:	0f 29 94 24 60 04 00 	movaps %xmm2,0x460(%rsp)
    8363:	00 
    8364:	f3 0f 10 15 54 93 00 	movss  0x9354(%rip),%xmm2        # 116c0 <g_pow43+0x2a0>
    836b:	00 
    836c:	0f c6 d2 00          	shufps $0x0,%xmm2,%xmm2
    8370:	0f 29 94 24 60 02 00 	movaps %xmm2,0x260(%rsp)
    8377:	00 
    8378:	f3 0f 10 15 70 6d 00 	movss  0x6d70(%rip),%xmm2        # f0f0 <_IO_stdin_used+0xf0>
    837f:	00 
    8380:	0f c6 d2 00          	shufps $0x0,%xmm2,%xmm2
    8384:	0f 29 54 24 40       	movaps %xmm2,0x40(%rsp)
    8389:	f3 0f 10 15 63 6d 00 	movss  0x6d63(%rip),%xmm2        # f0f4 <_IO_stdin_used+0xf4>
    8390:	00 
    8391:	0f c6 d2 00          	shufps $0x0,%xmm2,%xmm2
    8395:	0f 29 54 24 30       	movaps %xmm2,0x30(%rsp)
    839a:	f3 0f 10 15 56 6d 00 	movss  0x6d56(%rip),%xmm2        # f0f8 <_IO_stdin_used+0xf8>
    83a1:	00 
    83a2:	0f c6 d2 00          	shufps $0x0,%xmm2,%xmm2
    83a6:	0f 29 54 24 20       	movaps %xmm2,0x20(%rsp)
    83ab:	f3 0f 10 15 49 6d 00 	movss  0x6d49(%rip),%xmm2        # f0fc <_IO_stdin_used+0xfc>
    83b2:	00 
    83b3:	0f c6 d2 00          	shufps $0x0,%xmm2,%xmm2
    83b7:	0f 29 54 24 10       	movaps %xmm2,0x10(%rsp)
    83bc:	f3 0f 10 15 3c 6d 00 	movss  0x6d3c(%rip),%xmm2        # f100 <_IO_stdin_used+0x100>
    83c3:	00 
    83c4:	0f c6 d2 00          	shufps $0x0,%xmm2,%xmm2
    83c8:	0f 29 14 24          	movaps %xmm2,(%rsp)
    83cc:	f3 0f 10 15 30 6d 00 	movss  0x6d30(%rip),%xmm2        # f104 <_IO_stdin_used+0x104>
    83d3:	00 
    83d4:	0f c6 d2 00          	shufps $0x0,%xmm2,%xmm2
    83d8:	0f 29 94 24 50 02 00 	movaps %xmm2,0x250(%rsp)
    83df:	00 
    int i, k = 0;
    83e0:	44 0f 28 8c 24 60 04 	movaps 0x460(%rsp),%xmm9
    83e7:	00 00 
    for (i = 0; i < nch; i++)
    83e9:	48 89 f0             	mov    %rsi,%rax
    int i, k = 0;
    83ec:	31 d2                	xor    %edx,%edx
    83ee:	e9 fd 01 00 00       	jmp    85f0 <mp3dec_decode_frame+0x4830>
  return (__m128) ((__v4sf)__A + (__v4sf)__B);
    83f3:	44 0f 58 ec          	addps  %xmm4,%xmm13
    83f7:	0f 58 e2             	addps  %xmm2,%xmm4
    if (have_simd()) for (; k < n; k += 4)
    83fa:	83 c2 04             	add    $0x4,%edx
    83fd:	0f 28 84 24 60 01 00 	movaps 0x160(%rsp),%xmm0
    8404:	00 
    8405:	0f 28 b4 24 d0 01 00 	movaps 0x1d0(%rsp),%xmm6
    840c:	00 
    840d:	48 83 c0 10          	add    $0x10,%rax
  *(__m128_u *)__P = __A;
    8411:	44 0f 28 94 24 80 00 	movaps 0x80(%rsp),%xmm10
    8418:	00 00 
  return (__m128) ((__v4sf)__A + (__v4sf)__B);
    841a:	0f 58 c1             	addps  %xmm1,%xmm0
    841d:	0f 58 cf             	addps  %xmm7,%xmm1
    8420:	41 0f 58 fd          	addps  %xmm13,%xmm7
    8424:	45 0f 58 ee          	addps  %xmm14,%xmm13
  *(__m128_u *)__P = __A;
    8428:	44 0f 29 50 f0       	movaps %xmm10,-0x10(%rax)
  return (__m128) ((__v4sf)__A + (__v4sf)__B);
    842d:	44 0f 58 f4          	addps  %xmm4,%xmm14
  *(__m128_u *)__P = __A;
    8431:	0f 11 40 38          	movups %xmm0,0x38(%rax)
  return (__m128) ((__v4sf)__A + (__v4sf)__B);
    8435:	0f 28 84 24 00 01 00 	movaps 0x100(%rsp),%xmm0
    843c:	00 
  *(__m128_u *)__P = __A;
    843d:	0f 11 b8 58 01 00 00 	movups %xmm7,0x158(%rax)
  return (__m128) ((__v4sf)__A + (__v4sf)__B);
    8444:	0f 28 7c 24 60       	movaps 0x60(%rsp),%xmm7
    8449:	0f 58 c6             	addps  %xmm6,%xmm0
    844c:	41 0f 58 f7          	addps  %xmm15,%xmm6
  *(__m128_u *)__P = __A;
    8450:	0f 11 88 c8 00 00 00 	movups %xmm1,0xc8(%rax)
    8457:	0f 28 8c 24 a0 00 00 	movaps 0xa0(%rsp),%xmm1
    845e:	00 
  return (__m128) ((__v4sf)__A + (__v4sf)__B);
    845f:	0f 58 e7             	addps  %xmm7,%xmm4
  *(__m128_u *)__P = __A;
    8462:	44 0f 11 b0 78 02 00 	movups %xmm14,0x278(%rax)
    8469:	00 
    846a:	44 0f 28 b4 24 90 00 	movaps 0x90(%rsp),%xmm14
    8471:	00 00 
    8473:	0f 29 88 10 01 00 00 	movaps %xmm1,0x110(%rax)
    847a:	0f 28 8c 24 b0 00 00 	movaps 0xb0(%rsp),%xmm1
    8481:	00 
    8482:	0f 29 b0 a0 01 00 00 	movaps %xmm6,0x1a0(%rax)
  return (__m128) ((__v4sf)__A + (__v4sf)__B);
    8489:	0f 28 b4 24 20 01 00 	movaps 0x120(%rsp),%xmm6
    8490:	00 
  *(__m128_u *)__P = __A;
    8491:	0f 11 a0 08 03 00 00 	movups %xmm4,0x308(%rax)
  return (__m128) ((__v4sf)__A + (__v4sf)__B);
    8498:	0f 28 a4 24 b0 01 00 	movaps 0x1b0(%rsp),%xmm4
    849f:	00 
    84a0:	44 0f 58 fe          	addps  %xmm6,%xmm15
  *(__m128_u *)__P = __A;
    84a4:	0f 29 80 80 00 00 00 	movaps %xmm0,0x80(%rax)
  return (__m128) ((__v4sf)__A + (__v4sf)__B);
    84ab:	0f 58 d4             	addps  %xmm4,%xmm2
    84ae:	41 0f 58 e4          	addps  %xmm12,%xmm4
  *(__m128_u *)__P = __A;
    84b2:	0f 29 88 30 02 00 00 	movaps %xmm1,0x230(%rax)
  return (__m128) ((__v4sf)__A + (__v4sf)__B);
    84b9:	44 0f 58 e3          	addps  %xmm3,%xmm12
  *(__m128_u *)__P = __A;
    84bd:	44 0f 11 a8 e8 01 00 	movups %xmm13,0x1e8(%rax)
    84c4:	00 
  return (__m128) ((__v4sf)__A + (__v4sf)__B);
    84c5:	0f 58 dd             	addps  %xmm5,%xmm3
  *(__m128_u *)__P = __A;
    84c8:	44 0f 29 b8 c0 02 00 	movaps %xmm15,0x2c0(%rax)
    84cf:	00 
    84d0:	44 0f 28 bc 24 c0 00 	movaps 0xc0(%rsp),%xmm15
    84d7:	00 00 
  return (__m128) ((__v4sf)__A + (__v4sf)__B);
    84d9:	0f 58 fa             	addps  %xmm2,%xmm7
    84dc:	0f 28 c4             	movaps %xmm4,%xmm0
  *(__m128_u *)__P = __A;
    84df:	44 0f 29 b0 70 04 00 	movaps %xmm14,0x470(%rax)
    84e6:	00 
    84e7:	44 0f 29 b8 50 03 00 	movaps %xmm15,0x350(%rax)
    84ee:	00 
    84ef:	0f 11 b8 98 03 00 00 	movups %xmm7,0x398(%rax)
  return (__m128) ((__v4sf)__A + (__v4sf)__B);
    84f6:	0f 28 bc 24 10 01 00 	movaps 0x110(%rsp),%xmm7
    84fd:	00 
    84fe:	0f 58 f7             	addps  %xmm7,%xmm6
  *(__m128_u *)__P = __A;
    8501:	0f 29 b0 e0 03 00 00 	movaps %xmm6,0x3e0(%rax)
  return (__m128) ((__v4sf)__A + (__v4sf)__B);
    8508:	0f 28 b4 24 70 01 00 	movaps 0x170(%rsp),%xmm6
    850f:	00 
    8510:	0f 58 d6             	addps  %xmm6,%xmm2
    8513:	0f 58 f4             	addps  %xmm4,%xmm6
  *(__m128_u *)__P = __A;
    8516:	0f 11 90 28 04 00 00 	movups %xmm2,0x428(%rax)
  return (__m128) ((__v4sf)__A + (__v4sf)__B);
    851d:	0f 28 94 24 30 01 00 	movaps 0x130(%rsp),%xmm2
    8524:	00 
  *(__m128_u *)__P = __A;
    8525:	0f 11 b0 b8 04 00 00 	movups %xmm6,0x4b8(%rax)
  return (__m128) ((__v4sf)__A + (__v4sf)__B);
    852c:	0f 58 fa             	addps  %xmm2,%xmm7
  *(__m128_u *)__P = __A;
    852f:	0f 29 b8 00 05 00 00 	movaps %xmm7,0x500(%rax)
  return (__m128) ((__v4sf)__A + (__v4sf)__B);
    8536:	0f 28 a4 24 80 01 00 	movaps 0x180(%rsp),%xmm4
    853d:	00 
    853e:	0f 28 b4 24 50 01 00 	movaps 0x150(%rsp),%xmm6
    8545:	00 
  *(__m128_u *)__P = __A;
    8546:	0f 28 8c 24 d0 00 00 	movaps 0xd0(%rsp),%xmm1
    854d:	00 
    854e:	0f 11 a8 a8 08 00 00 	movups %xmm5,0x8a8(%rax)
    8555:	44 0f 28 94 24 f0 00 	movaps 0xf0(%rsp),%xmm10
    855c:	00 00 
  return (__m128) ((__v4sf)__A + (__v4sf)__B);
    855e:	0f 58 c4             	addps  %xmm4,%xmm0
    8561:	41 0f 58 e4          	addps  %xmm12,%xmm4
  *(__m128_u *)__P = __A;
    8565:	0f 29 b0 60 08 00 00 	movaps %xmm6,0x860(%rax)
    856c:	0f 29 88 90 05 00 00 	movaps %xmm1,0x590(%rax)
    8573:	44 0f 29 90 d0 07 00 	movaps %xmm10,0x7d0(%rax)
    857a:	00 
    857b:	0f 11 a0 d8 05 00 00 	movups %xmm4,0x5d8(%rax)
  return (__m128) ((__v4sf)__A + (__v4sf)__B);
    8582:	0f 28 a4 24 40 01 00 	movaps 0x140(%rsp),%xmm4
    8589:	00 
  *(__m128_u *)__P = __A;
    858a:	0f 11 80 48 05 00 00 	movups %xmm0,0x548(%rax)
  return (__m128) ((__v4sf)__A + (__v4sf)__B);
    8591:	0f 58 d4             	addps  %xmm4,%xmm2
    8594:	0f 58 e6             	addps  %xmm6,%xmm4
  *(__m128_u *)__P = __A;
    8597:	0f 29 90 20 06 00 00 	movaps %xmm2,0x620(%rax)
  return (__m128) ((__v4sf)__A + (__v4sf)__B);
    859e:	0f 28 94 24 90 01 00 	movaps 0x190(%rsp),%xmm2
    85a5:	00 
  *(__m128_u *)__P = __A;
    85a6:	0f 29 a0 40 07 00 00 	movaps %xmm4,0x740(%rax)
  return (__m128) ((__v4sf)__A + (__v4sf)__B);
    85ad:	44 0f 58 e2          	addps  %xmm2,%xmm12
    85b1:	0f 58 d3             	addps  %xmm3,%xmm2
  *(__m128_u *)__P = __A;
    85b4:	0f 11 90 f8 06 00 00 	movups %xmm2,0x6f8(%rax)
  return (__m128) ((__v4sf)__A + (__v4sf)__B);
    85bb:	0f 28 94 24 a0 01 00 	movaps 0x1a0(%rsp),%xmm2
    85c2:	00 
  *(__m128_u *)__P = __A;
    85c3:	44 0f 11 a0 68 06 00 	movups %xmm12,0x668(%rax)
    85ca:	00 
    85cb:	44 0f 28 a4 24 e0 00 	movaps 0xe0(%rsp),%xmm12
    85d2:	00 00 
  return (__m128) ((__v4sf)__A + (__v4sf)__B);
    85d4:	0f 58 da             	addps  %xmm2,%xmm3
    85d7:	0f 58 d5             	addps  %xmm5,%xmm2
  *(__m128_u *)__P = __A;
    85da:	44 0f 29 a0 b0 06 00 	movaps %xmm12,0x6b0(%rax)
    85e1:	00 
    85e2:	0f 11 98 88 07 00 00 	movups %xmm3,0x788(%rax)
    85e9:	0f 11 90 18 08 00 00 	movups %xmm2,0x818(%rax)
  return (__m128) ((__v4sf)__A - (__v4sf)__B);
    85f0:	0f 10 98 b8 08 00 00 	movups 0x8b8(%rax),%xmm3
    85f7:	0f 28 00             	movaps (%rax),%xmm0
    85fa:	0f 10 88 38 04 00 00 	movups 0x438(%rax),%xmm1
    8601:	0f 5c 88 80 04 00 00 	subps  0x480(%rax),%xmm1
  return (__m128) ((__v4sf)__A * (__v4sf)__B);
    8608:	0f 59 8c 24 d0 03 00 	mulps  0x3d0(%rsp),%xmm1
    860f:	00 
  return (__m128) ((__v4sf)__A - (__v4sf)__B);
    8610:	0f 5c c3             	subps  %xmm3,%xmm0
  return (__m128) ((__v4sf)__A + (__v4sf)__B);
    8613:	0f 10 60 48          	movups 0x48(%rax),%xmm4
  return (__m128) ((__v4sf)__A * (__v4sf)__B);
    8617:	0f 59 84 24 c0 03 00 	mulps  0x3c0(%rsp),%xmm0
    861e:	00 
  return (__m128) ((__v4sf)__A + (__v4sf)__B);
    861f:	0f 10 a8 b8 08 00 00 	movups 0x8b8(%rax),%xmm5
    8626:	0f 58 28             	addps  (%rax),%xmm5
    8629:	0f 10 90 38 04 00 00 	movups 0x438(%rax),%xmm2
    8630:	0f 58 90 80 04 00 00 	addps  0x480(%rax),%xmm2
    8637:	0f 58 a0 70 08 00 00 	addps  0x870(%rax),%xmm4
  return (__m128) ((__v4sf)__A * (__v4sf)__B);
    863e:	0f 28 b4 24 80 03 00 	movaps 0x380(%rsp),%xmm6
    8645:	00 
  return (__m128) ((__v4sf)__A + (__v4sf)__B);
    8646:	0f 28 d9             	movaps %xmm1,%xmm3
    8649:	44 0f 28 f5          	movaps %xmm5,%xmm14
    864d:	0f 58 d8             	addps  %xmm0,%xmm3
  return (__m128) ((__v4sf)__A - (__v4sf)__B);
    8650:	0f 5c c1             	subps  %xmm1,%xmm0
    8653:	0f 10 48 48          	movups 0x48(%rax),%xmm1
  return (__m128) ((__v4sf)__A + (__v4sf)__B);
    8657:	44 0f 58 f2          	addps  %xmm2,%xmm14
  return (__m128) ((__v4sf)__A - (__v4sf)__B);
    865b:	0f 5c ea             	subps  %xmm2,%xmm5
  return (__m128) ((__v4sf)__A * (__v4sf)__B);
    865e:	0f 28 94 24 b0 03 00 	movaps 0x3b0(%rsp),%xmm2
    8665:	00 
  return (__m128) ((__v4sf)__A - (__v4sf)__B);
    8666:	0f 5c 88 70 08 00 00 	subps  0x870(%rax),%xmm1
  return (__m128) ((__v4sf)__A * (__v4sf)__B);
    866d:	0f 59 8c 24 90 03 00 	mulps  0x390(%rsp),%xmm1
    8674:	00 
    8675:	0f 59 c2             	mulps  %xmm2,%xmm0
  return (__m128) ((__v4sf)__A + (__v4sf)__B);
    8678:	0f 29 9c 24 60 01 00 	movaps %xmm3,0x160(%rsp)
    867f:	00 
  return (__m128) ((__v4sf)__A * (__v4sf)__B);
    8680:	0f 59 ea             	mulps  %xmm2,%xmm5
  return (__m128) ((__v4sf)__A - (__v4sf)__B);
    8683:	0f 28 90 f0 03 00 00 	movaps 0x3f0(%rax),%xmm2
  return (__m128) ((__v4sf)__A * (__v4sf)__B);
    868a:	0f 29 84 24 b0 01 00 	movaps %xmm0,0x1b0(%rsp)
    8691:	00 
  return (__m128) ((__v4sf)__A + (__v4sf)__B);
    8692:	0f 28 c4             	movaps %xmm4,%xmm0
    8695:	0f 10 a0 c8 04 00 00 	movups 0x4c8(%rax),%xmm4
    869c:	0f 58 a0 f0 03 00 00 	addps  0x3f0(%rax),%xmm4
    86a3:	44 0f 28 e8          	movaps %xmm0,%xmm13
    86a7:	0f 28 dc             	movaps %xmm4,%xmm3
  return (__m128) ((__v4sf)__A - (__v4sf)__B);
    86aa:	0f 10 a0 c8 04 00 00 	movups 0x4c8(%rax),%xmm4
    86b1:	0f 5c c3             	subps  %xmm3,%xmm0
  return (__m128) ((__v4sf)__A + (__v4sf)__B);
    86b4:	44 0f 58 eb          	addps  %xmm3,%xmm13
  return (__m128) ((__v4sf)__A - (__v4sf)__B);
    86b8:	0f 5c d4             	subps  %xmm4,%xmm2
  return (__m128) ((__v4sf)__A * (__v4sf)__B);
    86bb:	0f 59 94 24 a0 03 00 	mulps  0x3a0(%rsp),%xmm2
    86c2:	00 
    86c3:	0f 59 c6             	mulps  %xmm6,%xmm0
  return (__m128) ((__v4sf)__A + (__v4sf)__B);
    86c6:	0f 28 e2             	movaps %xmm2,%xmm4
    86c9:	0f 58 e1             	addps  %xmm1,%xmm4
  return (__m128) ((__v4sf)__A - (__v4sf)__B);
    86cc:	0f 5c ca             	subps  %xmm2,%xmm1
  return (__m128) ((__v4sf)__A * (__v4sf)__B);
    86cf:	0f 59 ce             	mulps  %xmm6,%xmm1
  return (__m128) ((__v4sf)__A + (__v4sf)__B);
    86d2:	0f 10 b0 28 08 00 00 	movups 0x828(%rax),%xmm6
    86d9:	0f 58 b0 90 00 00 00 	addps  0x90(%rax),%xmm6
    86e0:	0f 29 a4 24 70 01 00 	movaps %xmm4,0x170(%rsp)
    86e7:	00 
    86e8:	0f 28 de             	movaps %xmm6,%xmm3
    86eb:	0f 10 b0 a8 03 00 00 	movups 0x3a8(%rax),%xmm6
    86f2:	0f 58 b0 10 05 00 00 	addps  0x510(%rax),%xmm6
    86f9:	44 0f 28 e3          	movaps %xmm3,%xmm12
  return (__m128) ((__v4sf)__A * (__v4sf)__B);
    86fd:	0f 29 8c 24 e0 01 00 	movaps %xmm1,0x1e0(%rsp)
    8704:	00 
  return (__m128) ((__v4sf)__A + (__v4sf)__B);
    8705:	0f 28 e6             	movaps %xmm6,%xmm4
  return (__m128) ((__v4sf)__A - (__v4sf)__B);
    8708:	0f 10 b0 a8 03 00 00 	movups 0x3a8(%rax),%xmm6
    870f:	0f 5c b0 10 05 00 00 	subps  0x510(%rax),%xmm6
  return (__m128) ((__v4sf)__A * (__v4sf)__B);
    8716:	0f 28 94 24 70 03 00 	movaps 0x370(%rsp),%xmm2
    871d:	00 
  return (__m128) ((__v4sf)__A - (__v4sf)__B);
    871e:	0f 5c dc             	subps  %xmm4,%xmm3
  return (__m128) ((__v4sf)__A + (__v4sf)__B);
    8721:	44 0f 58 e4          	addps  %xmm4,%xmm12
  return (__m128) ((__v4sf)__A - (__v4sf)__B);
    8725:	0f 10 b8 28 08 00 00 	movups 0x828(%rax),%xmm7
  return (__m128) ((__v4sf)__A * (__v4sf)__B);
    872c:	0f 28 8c 24 60 03 00 	movaps 0x360(%rsp),%xmm1
    8733:	00 
  return (__m128) ((__v4sf)__A - (__v4sf)__B);
    8734:	44 0f 10 90 58 05 00 	movups 0x558(%rax),%xmm10
    873b:	00 
  return (__m128) ((__v4sf)__A * (__v4sf)__B);
    873c:	44 0f 28 bc 24 50 03 	movaps 0x350(%rsp),%xmm15
    8743:	00 00 
    8745:	0f 59 d6             	mulps  %xmm6,%xmm2
  return (__m128) ((__v4sf)__A - (__v4sf)__B);
    8748:	0f 28 b0 90 00 00 00 	movaps 0x90(%rax),%xmm6
    874f:	0f 5c f7             	subps  %xmm7,%xmm6
  return (__m128) ((__v4sf)__A * (__v4sf)__B);
    8752:	0f 59 ce             	mulps  %xmm6,%xmm1
  return (__m128) ((__v4sf)__A + (__v4sf)__B);
    8755:	0f 28 fa             	movaps %xmm2,%xmm7
  return (__m128) ((__v4sf)__A * (__v4sf)__B);
    8758:	0f 28 f3             	movaps %xmm3,%xmm6
    875b:	0f 28 9c 24 40 03 00 	movaps 0x340(%rsp),%xmm3
    8762:	00 
    8763:	41 0f 59 f7          	mulps  %xmm15,%xmm6
  return (__m128) ((__v4sf)__A + (__v4sf)__B);
    8767:	0f 58 f9             	addps  %xmm1,%xmm7
  return (__m128) ((__v4sf)__A - (__v4sf)__B);
    876a:	0f 5c ca             	subps  %xmm2,%xmm1
  return (__m128) ((__v4sf)__A * (__v4sf)__B);
    876d:	0f 28 94 24 30 03 00 	movaps 0x330(%rsp),%xmm2
    8774:	00 
    8775:	0f 29 b4 24 00 01 00 	movaps %xmm6,0x100(%rsp)
    877c:	00 
    877d:	41 0f 59 cf          	mulps  %xmm15,%xmm1
  return (__m128) ((__v4sf)__A + (__v4sf)__B);
    8781:	44 0f 10 b8 d8 00 00 	movups 0xd8(%rax),%xmm15
    8788:	00 
    8789:	44 0f 58 b8 e0 07 00 	addps  0x7e0(%rax),%xmm15
    8790:	00 
    8791:	0f 29 bc 24 80 01 00 	movaps %xmm7,0x180(%rsp)
    8798:	00 
    8799:	41 0f 28 e7          	movaps %xmm15,%xmm4
    879d:	44 0f 10 b8 58 05 00 	movups 0x558(%rax),%xmm15
    87a4:	00 
    87a5:	44 0f 58 b8 60 03 00 	addps  0x360(%rax),%xmm15
    87ac:	00 
  return (__m128) ((__v4sf)__A * (__v4sf)__B);
    87ad:	0f 29 8c 24 f0 01 00 	movaps %xmm1,0x1f0(%rsp)
    87b4:	00 
  return (__m128) ((__v4sf)__A + (__v4sf)__B);
    87b5:	41 0f 28 f7          	movaps %xmm15,%xmm6
  return (__m128) ((__v4sf)__A - (__v4sf)__B);
    87b9:	44 0f 28 b8 60 03 00 	movaps 0x360(%rax),%xmm15
    87c0:	00 
    87c1:	45 0f 5c fa          	subps  %xmm10,%xmm15
  return (__m128) ((__v4sf)__A * (__v4sf)__B);
    87c5:	41 0f 59 df          	mulps  %xmm15,%xmm3
  return (__m128) ((__v4sf)__A - (__v4sf)__B);
    87c9:	44 0f 10 b8 d8 00 00 	movups 0xd8(%rax),%xmm15
    87d0:	00 
    87d1:	44 0f 5c b8 e0 07 00 	subps  0x7e0(%rax),%xmm15
    87d8:	00 
  return (__m128) ((__v4sf)__A * (__v4sf)__B);
    87d9:	41 0f 59 d7          	mulps  %xmm15,%xmm2
  return (__m128) ((__v4sf)__A + (__v4sf)__B);
    87dd:	44 0f 28 fc          	movaps %xmm4,%xmm15
  return (__m128) ((__v4sf)__A - (__v4sf)__B);
    87e1:	0f 5c e6             	subps  %xmm6,%xmm4
  return (__m128) ((__v4sf)__A + (__v4sf)__B);
    87e4:	44 0f 58 fe          	addps  %xmm6,%xmm15
    87e8:	44 0f 28 d3          	movaps %xmm3,%xmm10
    87ec:	41 0f 28 cf          	movaps %xmm15,%xmm1
  return (__m128) ((__v4sf)__A * (__v4sf)__B);
    87f0:	44 0f 28 fc          	movaps %xmm4,%xmm15
    87f4:	0f 28 a4 24 20 03 00 	movaps 0x320(%rsp),%xmm4
    87fb:	00 
  return (__m128) ((__v4sf)__A + (__v4sf)__B);
    87fc:	44 0f 58 d2          	addps  %xmm2,%xmm10
  return (__m128) ((__v4sf)__A - (__v4sf)__B);
    8800:	0f 5c d3             	subps  %xmm3,%xmm2
  return (__m128) ((__v4sf)__A * (__v4sf)__B);
    8803:	0f 28 9c 24 10 03 00 	movaps 0x310(%rsp),%xmm3
    880a:	00 
    880b:	44 0f 59 fc          	mulps  %xmm4,%xmm15
  return (__m128) ((__v4sf)__A + (__v4sf)__B);
    880f:	44 0f 29 94 24 90 01 	movaps %xmm10,0x190(%rsp)
    8816:	00 00 
  return (__m128) ((__v4sf)__A * (__v4sf)__B);
    8818:	0f 28 fa             	movaps %xmm2,%xmm7
  return (__m128) ((__v4sf)__A - (__v4sf)__B);
    881b:	44 0f 10 90 98 07 00 	movups 0x798(%rax),%xmm10
    8822:	00 
  return (__m128) ((__v4sf)__A * (__v4sf)__B);
    8823:	0f 28 94 24 00 03 00 	movaps 0x300(%rsp),%xmm2
    882a:	00 
    882b:	0f 59 fc             	mulps  %xmm4,%xmm7
    882e:	44 0f 29 bc 24 10 01 	movaps %xmm15,0x110(%rsp)
    8835:	00 00 
  return (__m128) ((__v4sf)__A + (__v4sf)__B);
    8837:	44 0f 10 b8 98 07 00 	movups 0x798(%rax),%xmm15
    883e:	00 
    883f:	44 0f 58 b8 20 01 00 	addps  0x120(%rax),%xmm15
    8846:	00 
    8847:	41 0f 28 e7          	movaps %xmm15,%xmm4
    884b:	44 0f 10 b8 18 03 00 	movups 0x318(%rax),%xmm15
    8852:	00 
  return (__m128) ((__v4sf)__A * (__v4sf)__B);
    8853:	0f 29 7c 24 50       	movaps %xmm7,0x50(%rsp)
  return (__m128) ((__v4sf)__A + (__v4sf)__B);
    8858:	44 0f 58 b8 a0 05 00 	addps  0x5a0(%rax),%xmm15
    885f:	00 
    8860:	41 0f 28 f7          	movaps %xmm15,%xmm6
  return (__m128) ((__v4sf)__A - (__v4sf)__B);
    8864:	44 0f 10 b8 18 03 00 	movups 0x318(%rax),%xmm15
    886b:	00 
    886c:	44 0f 5c b8 a0 05 00 	subps  0x5a0(%rax),%xmm15
    8873:	00 
  return (__m128) ((__v4sf)__A * (__v4sf)__B);
    8874:	41 0f 59 df          	mulps  %xmm15,%xmm3
  return (__m128) ((__v4sf)__A - (__v4sf)__B);
    8878:	44 0f 28 b8 20 01 00 	movaps 0x120(%rax),%xmm15
    887f:	00 
    8880:	45 0f 5c fa          	subps  %xmm10,%xmm15
  return (__m128) ((__v4sf)__A + (__v4sf)__B);
    8884:	44 0f 28 d4          	movaps %xmm4,%xmm10
  return (__m128) ((__v4sf)__A - (__v4sf)__B);
    8888:	0f 5c e6             	subps  %xmm6,%xmm4
  return (__m128) ((__v4sf)__A + (__v4sf)__B);
    888b:	44 0f 58 d6          	addps  %xmm6,%xmm10
  return (__m128) ((__v4sf)__A * (__v4sf)__B);
    888f:	41 0f 59 d7          	mulps  %xmm15,%xmm2
  return (__m128) ((__v4sf)__A + (__v4sf)__B);
    8893:	0f 28 f3             	movaps %xmm3,%xmm6
  return (__m128) ((__v4sf)__A * (__v4sf)__B);
    8896:	44 0f 28 bc 24 f0 02 	movaps 0x2f0(%rsp),%xmm15
    889d:	00 00 
  return (__m128) ((__v4sf)__A + (__v4sf)__B);
    889f:	45 0f 28 c2          	movaps %xmm10,%xmm8
  return (__m128) ((__v4sf)__A - (__v4sf)__B);
    88a3:	44 0f 10 90 e8 05 00 	movups 0x5e8(%rax),%xmm10
    88aa:	00 
  return (__m128) ((__v4sf)__A * (__v4sf)__B);
    88ab:	41 0f 59 e7          	mulps  %xmm15,%xmm4
  return (__m128) ((__v4sf)__A + (__v4sf)__B);
    88af:	0f 58 f2             	addps  %xmm2,%xmm6
  return (__m128) ((__v4sf)__A - (__v4sf)__B);
    88b2:	0f 5c d3             	subps  %xmm3,%xmm2
  return (__m128) ((__v4sf)__A * (__v4sf)__B);
    88b5:	0f 28 9c 24 e0 02 00 	movaps 0x2e0(%rsp),%xmm3
    88bc:	00 
    88bd:	0f 29 a4 24 20 01 00 	movaps %xmm4,0x120(%rsp)
    88c4:	00 
    88c5:	0f 28 fa             	movaps %xmm2,%xmm7
  return (__m128) ((__v4sf)__A + (__v4sf)__B);
    88c8:	0f 29 74 24 60       	movaps %xmm6,0x60(%rsp)
  return (__m128) ((__v4sf)__A * (__v4sf)__B);
    88cd:	0f 28 94 24 d0 02 00 	movaps 0x2d0(%rsp),%xmm2
    88d4:	00 
    88d5:	41 0f 59 ff          	mulps  %xmm15,%xmm7
  return (__m128) ((__v4sf)__A + (__v4sf)__B);
    88d9:	44 0f 10 b8 68 01 00 	movups 0x168(%rax),%xmm15
    88e0:	00 
    88e1:	44 0f 58 b8 50 07 00 	addps  0x750(%rax),%xmm15
    88e8:	00 
    88e9:	41 0f 28 e7          	movaps %xmm15,%xmm4
    88ed:	44 0f 10 b8 e8 05 00 	movups 0x5e8(%rax),%xmm15
    88f4:	00 
    88f5:	44 0f 58 b8 d0 02 00 	addps  0x2d0(%rax),%xmm15
    88fc:	00 
  return (__m128) ((__v4sf)__A * (__v4sf)__B);
    88fd:	0f 29 7c 24 70       	movaps %xmm7,0x70(%rsp)
  return (__m128) ((__v4sf)__A + (__v4sf)__B);
    8902:	41 0f 28 f7          	movaps %xmm15,%xmm6
  return (__m128) ((__v4sf)__A - (__v4sf)__B);
    8906:	44 0f 28 b8 d0 02 00 	movaps 0x2d0(%rax),%xmm15
    890d:	00 
    890e:	45 0f 5c fa          	subps  %xmm10,%xmm15
  return (__m128) ((__v4sf)__A * (__v4sf)__B);
    8912:	41 0f 59 df          	mulps  %xmm15,%xmm3
  return (__m128) ((__v4sf)__A - (__v4sf)__B);
    8916:	44 0f 10 b8 68 01 00 	movups 0x168(%rax),%xmm15
    891d:	00 
    891e:	44 0f 5c b8 50 07 00 	subps  0x750(%rax),%xmm15
    8925:	00 
  return (__m128) ((__v4sf)__A * (__v4sf)__B);
    8926:	41 0f 59 d7          	mulps  %xmm15,%xmm2
  return (__m128) ((__v4sf)__A + (__v4sf)__B);
    892a:	44 0f 28 fc          	movaps %xmm4,%xmm15
  return (__m128) ((__v4sf)__A - (__v4sf)__B);
    892e:	0f 5c e6             	subps  %xmm6,%xmm4
  return (__m128) ((__v4sf)__A + (__v4sf)__B);
    8931:	44 0f 58 fe          	addps  %xmm6,%xmm15
  return (__m128) ((__v4sf)__A * (__v4sf)__B);
    8935:	44 0f 28 d4          	movaps %xmm4,%xmm10
  return (__m128) ((__v4sf)__A + (__v4sf)__B);
    8939:	0f 28 e3             	movaps %xmm3,%xmm4
    893c:	41 0f 28 ff          	movaps %xmm15,%xmm7
  return (__m128) ((__v4sf)__A * (__v4sf)__B);
    8940:	44 0f 28 bc 24 c0 02 	movaps 0x2c0(%rsp),%xmm15
    8947:	00 00 
  return (__m128) ((__v4sf)__A + (__v4sf)__B);
    8949:	0f 58 e2             	addps  %xmm2,%xmm4
  return (__m128) ((__v4sf)__A - (__v4sf)__B);
    894c:	0f 5c d3             	subps  %xmm3,%xmm2
  return (__m128) ((__v4sf)__A * (__v4sf)__B);
    894f:	0f 28 9c 24 a0 02 00 	movaps 0x2a0(%rsp),%xmm3
    8956:	00 
    8957:	45 0f 59 d7          	mulps  %xmm15,%xmm10
    895b:	41 0f 59 d7          	mulps  %xmm15,%xmm2
  return (__m128) ((__v4sf)__A + (__v4sf)__B);
    895f:	44 0f 10 b8 08 07 00 	movups 0x708(%rax),%xmm15
    8966:	00 
    8967:	44 0f 58 b8 b0 01 00 	addps  0x1b0(%rax),%xmm15
    896e:	00 
    896f:	0f 29 a4 24 a0 01 00 	movaps %xmm4,0x1a0(%rsp)
    8976:	00 
  return (__m128) ((__v4sf)__A * (__v4sf)__B);
    8977:	0f 28 a4 24 b0 02 00 	movaps 0x2b0(%rsp),%xmm4
    897e:	00 
    897f:	44 0f 29 94 24 30 01 	movaps %xmm10,0x130(%rsp)
    8986:	00 00 
  return (__m128) ((__v4sf)__A + (__v4sf)__B);
    8988:	41 0f 28 f7          	movaps %xmm15,%xmm6
    898c:	44 0f 10 b8 88 02 00 	movups 0x288(%rax),%xmm15
    8993:	00 
    8994:	44 0f 58 b8 30 06 00 	addps  0x630(%rax),%xmm15
    899b:	00 
  return (__m128) ((__v4sf)__A * (__v4sf)__B);
    899c:	0f 29 94 24 00 02 00 	movaps %xmm2,0x200(%rsp)
    89a3:	00 
  return (__m128) ((__v4sf)__A - (__v4sf)__B);
    89a4:	0f 10 90 08 07 00 00 	movups 0x708(%rax),%xmm2
  return (__m128) ((__v4sf)__A + (__v4sf)__B);
    89ab:	45 0f 28 d7          	movaps %xmm15,%xmm10
  return (__m128) ((__v4sf)__A - (__v4sf)__B);
    89af:	44 0f 10 b8 88 02 00 	movups 0x288(%rax),%xmm15
    89b6:	00 
    89b7:	44 0f 5c b8 30 06 00 	subps  0x630(%rax),%xmm15
    89be:	00 
  return (__m128) ((__v4sf)__A * (__v4sf)__B);
    89bf:	41 0f 59 e7          	mulps  %xmm15,%xmm4
  return (__m128) ((__v4sf)__A - (__v4sf)__B);
    89c3:	44 0f 28 b8 b0 01 00 	movaps 0x1b0(%rax),%xmm15
    89ca:	00 
    89cb:	44 0f 5c fa          	subps  %xmm2,%xmm15
  return (__m128) ((__v4sf)__A * (__v4sf)__B);
    89cf:	41 0f 59 df          	mulps  %xmm15,%xmm3
  return (__m128) ((__v4sf)__A + (__v4sf)__B);
    89d3:	44 0f 28 fe          	movaps %xmm6,%xmm15
  return (__m128) ((__v4sf)__A - (__v4sf)__B);
    89d7:	41 0f 5c f2          	subps  %xmm10,%xmm6
  return (__m128) ((__v4sf)__A + (__v4sf)__B);
    89db:	45 0f 58 fa          	addps  %xmm10,%xmm15
    89df:	41 0f 28 d7          	movaps %xmm15,%xmm2
  return (__m128) ((__v4sf)__A * (__v4sf)__B);
    89e3:	44 0f 28 bc 24 90 02 	movaps 0x290(%rsp),%xmm15
    89ea:	00 00 
    89ec:	41 0f 59 f7          	mulps  %xmm15,%xmm6
    89f0:	0f 29 b4 24 40 01 00 	movaps %xmm6,0x140(%rsp)
    89f7:	00 
  return (__m128) ((__v4sf)__A + (__v4sf)__B);
    89f8:	0f 28 f4             	movaps %xmm4,%xmm6
    89fb:	0f 58 f3             	addps  %xmm3,%xmm6
  return (__m128) ((__v4sf)__A - (__v4sf)__B);
    89fe:	0f 5c dc             	subps  %xmm4,%xmm3
  return (__m128) ((__v4sf)__A * (__v4sf)__B);
    8a01:	0f 28 e3             	movaps %xmm3,%xmm4
  return (__m128) ((__v4sf)__A + (__v4sf)__B);
    8a04:	0f 29 b4 24 10 02 00 	movaps %xmm6,0x210(%rsp)
    8a0b:	00 
  return (__m128) ((__v4sf)__A * (__v4sf)__B);
    8a0c:	41 0f 59 e7          	mulps  %xmm15,%xmm4
    8a10:	0f 29 a4 24 20 02 00 	movaps %xmm4,0x220(%rsp)
    8a17:	00 
  return (__m128) ((__v4sf)__A + (__v4sf)__B);
    8a18:	44 0f 10 b8 f8 01 00 	movups 0x1f8(%rax),%xmm15
    8a1f:	00 
    8a20:	44 0f 58 b8 c0 06 00 	addps  0x6c0(%rax),%xmm15
    8a27:	00 
  return (__m128) ((__v4sf)__A - (__v4sf)__B);
    8a28:	0f 10 a0 78 06 00 00 	movups 0x678(%rax),%xmm4
  return (__m128) ((__v4sf)__A * (__v4sf)__B);
    8a2f:	0f 28 b4 24 80 02 00 	movaps 0x280(%rsp),%xmm6
    8a36:	00 
  return (__m128) ((__v4sf)__A + (__v4sf)__B);
    8a37:	44 0f 10 90 78 06 00 	movups 0x678(%rax),%xmm10
    8a3e:	00 
    8a3f:	44 0f 58 90 40 02 00 	addps  0x240(%rax),%xmm10
    8a46:	00 
    8a47:	41 0f 28 df          	movaps %xmm15,%xmm3
  return (__m128) ((__v4sf)__A - (__v4sf)__B);
    8a4b:	44 0f 28 b8 40 02 00 	movaps 0x240(%rax),%xmm15
    8a52:	00 
    8a53:	44 0f 5c fc          	subps  %xmm4,%xmm15
  return (__m128) ((__v4sf)__A * (__v4sf)__B);
    8a57:	0f 28 a4 24 70 02 00 	movaps 0x270(%rsp),%xmm4
    8a5e:	00 
    8a5f:	41 0f 59 f7          	mulps  %xmm15,%xmm6
  return (__m128) ((__v4sf)__A - (__v4sf)__B);
    8a63:	44 0f 10 b8 f8 01 00 	movups 0x1f8(%rax),%xmm15
    8a6a:	00 
    8a6b:	44 0f 5c b8 c0 06 00 	subps  0x6c0(%rax),%xmm15
    8a72:	00 
  return (__m128) ((__v4sf)__A * (__v4sf)__B);
    8a73:	41 0f 59 e7          	mulps  %xmm15,%xmm4
  return (__m128) ((__v4sf)__A + (__v4sf)__B);
    8a77:	45 0f 28 fa          	movaps %xmm10,%xmm15
    8a7b:	44 0f 58 d3          	addps  %xmm3,%xmm10
  return (__m128) ((__v4sf)__A - (__v4sf)__B);
    8a7f:	41 0f 5c df          	subps  %xmm15,%xmm3
  return (__m128) ((__v4sf)__A * (__v4sf)__B);
    8a83:	0f 59 9c 24 c0 01 00 	mulps  0x1c0(%rsp),%xmm3
    8a8a:	00 
  return (__m128) ((__v4sf)__A + (__v4sf)__B);
    8a8b:	44 0f 28 fe          	movaps %xmm6,%xmm15
    8a8f:	44 0f 58 fc          	addps  %xmm4,%xmm15
  return (__m128) ((__v4sf)__A - (__v4sf)__B);
    8a93:	0f 5c e6             	subps  %xmm6,%xmm4
  return (__m128) ((__v4sf)__A + (__v4sf)__B);
    8a96:	44 0f 29 bc 24 30 02 	movaps %xmm15,0x230(%rsp)
    8a9d:	00 00 
  return (__m128) ((__v4sf)__A * (__v4sf)__B);
    8a9f:	44 0f 28 bc 24 c0 01 	movaps 0x1c0(%rsp),%xmm15
    8aa6:	00 00 
    8aa8:	44 0f 59 fc          	mulps  %xmm4,%xmm15
    8aac:	44 0f 29 bc 24 40 02 	movaps %xmm15,0x240(%rsp)
    8ab3:	00 00 
  return (__m128) ((__v4sf)__A - (__v4sf)__B);
    8ab5:	45 0f 28 fe          	movaps %xmm14,%xmm15
    8ab9:	45 0f 5c fa          	subps  %xmm10,%xmm15
  return (__m128) ((__v4sf)__A + (__v4sf)__B);
    8abd:	45 0f 58 d6          	addps  %xmm14,%xmm10
  return (__m128) ((__v4sf)__A - (__v4sf)__B);
    8ac1:	45 0f 28 f5          	movaps %xmm13,%xmm14
    8ac5:	44 0f 5c f2          	subps  %xmm2,%xmm14
  return (__m128) ((__v4sf)__A + (__v4sf)__B);
    8ac9:	41 0f 58 d5          	addps  %xmm13,%xmm2
  return (__m128) ((__v4sf)__A - (__v4sf)__B);
    8acd:	45 0f 28 ec          	movaps %xmm12,%xmm13
    8ad1:	44 0f 5c ef          	subps  %xmm7,%xmm13
  return (__m128) ((__v4sf)__A + (__v4sf)__B);
    8ad5:	41 0f 58 fc          	addps  %xmm12,%xmm7
  return (__m128) ((__v4sf)__A - (__v4sf)__B);
    8ad9:	45 0f 28 e2          	movaps %xmm10,%xmm12
    8add:	41 0f 28 e7          	movaps %xmm15,%xmm4
    8ae1:	41 0f 28 f6          	movaps %xmm14,%xmm6
  return (__m128) ((__v4sf)__A + (__v4sf)__B);
    8ae5:	45 0f 28 f0          	movaps %xmm8,%xmm14
    8ae9:	44 0f 58 f1          	addps  %xmm1,%xmm14
  return (__m128) ((__v4sf)__A - (__v4sf)__B);
    8aed:	41 0f 5c c8          	subps  %xmm8,%xmm1
  return (__m128) ((__v4sf)__A * (__v4sf)__B);
    8af1:	44 0f 28 84 24 50 02 	movaps 0x250(%rsp),%xmm8
    8af8:	00 00 
  return (__m128) ((__v4sf)__A - (__v4sf)__B);
    8afa:	45 0f 5c e6          	subps  %xmm14,%xmm12
  return (__m128) ((__v4sf)__A + (__v4sf)__B);
    8afe:	45 0f 58 d6          	addps  %xmm14,%xmm10
    8b02:	44 0f 28 f2          	movaps %xmm2,%xmm14
    8b06:	44 0f 58 f7          	addps  %xmm7,%xmm14
    8b0a:	41 0f 58 cd          	addps  %xmm13,%xmm1
  return (__m128) ((__v4sf)__A - (__v4sf)__B);
    8b0e:	0f 5c d7             	subps  %xmm7,%xmm2
  return (__m128) ((__v4sf)__A + (__v4sf)__B);
    8b11:	45 0f 28 fa          	movaps %xmm10,%xmm15
    8b15:	45 0f 58 fe          	addps  %xmm14,%xmm15
  return (__m128) ((__v4sf)__A - (__v4sf)__B);
    8b19:	45 0f 5c d6          	subps  %xmm14,%xmm10
  return (__m128) ((__v4sf)__A + (__v4sf)__B);
    8b1d:	41 0f 58 d4          	addps  %xmm12,%xmm2
    8b21:	44 0f 29 bc 24 80 00 	movaps %xmm15,0x80(%rsp)
    8b28:	00 00 
    8b2a:	44 0f 28 fe          	movaps %xmm6,%xmm15
    8b2e:	0f 58 f4             	addps  %xmm4,%xmm6
  return (__m128) ((__v4sf)__A * (__v4sf)__B);
    8b31:	45 0f 28 f2          	movaps %xmm10,%xmm14
  return (__m128) ((__v4sf)__A + (__v4sf)__B);
    8b35:	45 0f 58 fd          	addps  %xmm13,%xmm15
  return (__m128) ((__v4sf)__A * (__v4sf)__B);
    8b39:	45 0f 59 f3          	mulps  %xmm11,%xmm14
    8b3d:	41 0f 59 d3          	mulps  %xmm11,%xmm2
    8b41:	44 0f 28 ee          	movaps %xmm6,%xmm13
    8b45:	45 0f 59 e9          	mulps  %xmm9,%xmm13
  return (__m128) ((__v4sf)__A + (__v4sf)__B);
    8b49:	45 0f 28 d7          	movaps %xmm15,%xmm10
  return (__m128) ((__v4sf)__A * (__v4sf)__B);
    8b4d:	45 0f 59 d3          	mulps  %xmm11,%xmm10
    8b51:	44 0f 29 b4 24 90 00 	movaps %xmm14,0x90(%rsp)
    8b58:	00 00 
    8b5a:	44 0f 28 b4 24 60 02 	movaps 0x260(%rsp),%xmm14
    8b61:	00 00 
    8b63:	41 0f 28 fe          	movaps %xmm14,%xmm7
  return (__m128) ((__v4sf)__A - (__v4sf)__B);
    8b67:	41 0f 5c cd          	subps  %xmm13,%xmm1
  return (__m128) ((__v4sf)__A * (__v4sf)__B);
    8b6b:	0f 59 f9             	mulps  %xmm1,%xmm7
  return (__m128) ((__v4sf)__A + (__v4sf)__B);
    8b6e:	0f 58 f7             	addps  %xmm7,%xmm6
  return (__m128) ((__v4sf)__A * (__v4sf)__B);
    8b71:	44 0f 28 ee          	movaps %xmm6,%xmm13
    8b75:	45 0f 59 e9          	mulps  %xmm9,%xmm13
  return (__m128) ((__v4sf)__A - (__v4sf)__B);
    8b79:	41 0f 5c cd          	subps  %xmm13,%xmm1
    8b7d:	44 0f 28 ec          	movaps %xmm4,%xmm13
    8b81:	45 0f 5c ea          	subps  %xmm10,%xmm13
  return (__m128) ((__v4sf)__A + (__v4sf)__B);
    8b85:	44 0f 58 d4          	addps  %xmm4,%xmm10
    8b89:	41 0f 28 e4          	movaps %xmm12,%xmm4
    8b8d:	0f 58 e2             	addps  %xmm2,%xmm4
  return (__m128) ((__v4sf)__A - (__v4sf)__B);
    8b90:	44 0f 5c e2          	subps  %xmm2,%xmm12
  return (__m128) ((__v4sf)__A * (__v4sf)__B);
    8b94:	44 0f 59 24 24       	mulps  (%rsp),%xmm12
  return (__m128) ((__v4sf)__A - (__v4sf)__B);
    8b99:	0f 28 d5             	movaps %xmm5,%xmm2
    8b9c:	41 0f 28 fd          	movaps %xmm13,%xmm7
  return (__m128) ((__v4sf)__A + (__v4sf)__B);
    8ba0:	44 0f 28 ee          	movaps %xmm6,%xmm13
  return (__m128) ((__v4sf)__A - (__v4sf)__B);
    8ba4:	0f 5c d3             	subps  %xmm3,%xmm2
  return (__m128) ((__v4sf)__A + (__v4sf)__B);
    8ba7:	45 0f 58 ea          	addps  %xmm10,%xmm13
  return (__m128) ((__v4sf)__A - (__v4sf)__B);
    8bab:	44 0f 5c d6          	subps  %xmm6,%xmm10
    8baf:	0f 28 b4 24 00 01 00 	movaps 0x100(%rsp),%xmm6
    8bb6:	00 
  return (__m128) ((__v4sf)__A + (__v4sf)__B);
    8bb7:	0f 58 dd             	addps  %xmm5,%xmm3
  return (__m128) ((__v4sf)__A - (__v4sf)__B);
    8bba:	0f 28 ac 24 40 01 00 	movaps 0x140(%rsp),%xmm5
    8bc1:	00 
  return (__m128) ((__v4sf)__A * (__v4sf)__B);
    8bc2:	44 0f 29 a4 24 e0 00 	movaps %xmm12,0xe0(%rsp)
    8bc9:	00 00 
    8bcb:	45 0f 59 d0          	mulps  %xmm8,%xmm10
    8bcf:	45 0f 28 fd          	movaps %xmm13,%xmm15
    8bd3:	44 0f 28 6c 24 40    	movaps 0x40(%rsp),%xmm13
    8bd9:	45 0f 59 fd          	mulps  %xmm13,%xmm15
    8bdd:	44 0f 29 94 24 f0 00 	movaps %xmm10,0xf0(%rsp)
    8be4:	00 00 
  return (__m128) ((__v4sf)__A - (__v4sf)__B);
    8be6:	44 0f 28 94 24 30 01 	movaps 0x130(%rsp),%xmm10
    8bed:	00 00 
  return (__m128) ((__v4sf)__A * (__v4sf)__B);
    8bef:	44 0f 29 bc 24 a0 00 	movaps %xmm15,0xa0(%rsp)
    8bf6:	00 00 
    8bf8:	44 0f 28 7c 24 30    	movaps 0x30(%rsp),%xmm15
    8bfe:	44 0f 59 fc          	mulps  %xmm4,%xmm15
  return (__m128) ((__v4sf)__A - (__v4sf)__B);
    8c02:	0f 28 e7             	movaps %xmm7,%xmm4
    8c05:	0f 5c e1             	subps  %xmm1,%xmm4
  return (__m128) ((__v4sf)__A + (__v4sf)__B);
    8c08:	0f 58 cf             	addps  %xmm7,%xmm1
  return (__m128) ((__v4sf)__A * (__v4sf)__B);
    8c0b:	0f 59 4c 24 10       	mulps  0x10(%rsp),%xmm1
  return (__m128) ((__v4sf)__A - (__v4sf)__B);
    8c10:	0f 28 f8             	movaps %xmm0,%xmm7
  return (__m128) ((__v4sf)__A + (__v4sf)__B);
    8c13:	0f 58 c5             	addps  %xmm5,%xmm0
  return (__m128) ((__v4sf)__A - (__v4sf)__B);
    8c16:	0f 5c fd             	subps  %xmm5,%xmm7
    8c19:	0f 28 ee             	movaps %xmm6,%xmm5
  return (__m128) ((__v4sf)__A + (__v4sf)__B);
    8c1c:	41 0f 58 f2          	addps  %xmm10,%xmm6
  return (__m128) ((__v4sf)__A - (__v4sf)__B);
    8c20:	41 0f 5c ea          	subps  %xmm10,%xmm5
    8c24:	44 0f 28 d3          	movaps %xmm3,%xmm10
  return (__m128) ((__v4sf)__A * (__v4sf)__B);
    8c28:	44 0f 29 bc 24 b0 00 	movaps %xmm15,0xb0(%rsp)
    8c2f:	00 00 
    8c31:	44 0f 28 7c 24 20    	movaps 0x20(%rsp),%xmm15
    8c37:	0f 29 8c 24 d0 00 00 	movaps %xmm1,0xd0(%rsp)
    8c3e:	00 
  return (__m128) ((__v4sf)__A - (__v4sf)__B);
    8c3f:	0f 28 cf             	movaps %xmm7,%xmm1
  return (__m128) ((__v4sf)__A + (__v4sf)__B);
    8c42:	0f 28 fe             	movaps %xmm6,%xmm7
  return (__m128) ((__v4sf)__A * (__v4sf)__B);
    8c45:	44 0f 59 fc          	mulps  %xmm4,%xmm15
    8c49:	44 0f 29 bc 24 c0 00 	movaps %xmm15,0xc0(%rsp)
    8c50:	00 00 
  return (__m128) ((__v4sf)__A + (__v4sf)__B);
    8c52:	44 0f 28 a4 24 20 01 	movaps 0x120(%rsp),%xmm12
    8c59:	00 00 
    8c5b:	44 0f 28 bc 24 10 01 	movaps 0x110(%rsp),%xmm15
    8c62:	00 00 
    8c64:	41 0f 28 f4          	movaps %xmm12,%xmm6
    8c68:	41 0f 58 f7          	addps  %xmm15,%xmm6
  return (__m128) ((__v4sf)__A - (__v4sf)__B);
    8c6c:	44 0f 5c d6          	subps  %xmm6,%xmm10
  return (__m128) ((__v4sf)__A + (__v4sf)__B);
    8c70:	0f 58 de             	addps  %xmm6,%xmm3
    8c73:	0f 28 f0             	movaps %xmm0,%xmm6
    8c76:	0f 58 f7             	addps  %xmm7,%xmm6
  return (__m128) ((__v4sf)__A - (__v4sf)__B);
    8c79:	0f 5c c7             	subps  %xmm7,%xmm0
    8c7c:	41 0f 28 e2          	movaps %xmm10,%xmm4
  return (__m128) ((__v4sf)__A + (__v4sf)__B);
    8c80:	44 0f 28 d3          	movaps %xmm3,%xmm10
  return (__m128) ((__v4sf)__A - (__v4sf)__B);
    8c84:	0f 5c de             	subps  %xmm6,%xmm3
  return (__m128) ((__v4sf)__A + (__v4sf)__B);
    8c87:	0f 58 c4             	addps  %xmm4,%xmm0
    8c8a:	44 0f 58 d6          	addps  %xmm6,%xmm10
  return (__m128) ((__v4sf)__A * (__v4sf)__B);
    8c8e:	41 0f 59 c3          	mulps  %xmm11,%xmm0
    8c92:	0f 28 f3             	movaps %xmm3,%xmm6
    8c95:	41 0f 28 de          	movaps %xmm14,%xmm3
  return (__m128) ((__v4sf)__A + (__v4sf)__B);
    8c99:	44 0f 29 94 24 00 01 	movaps %xmm10,0x100(%rsp)
    8ca0:	00 00 
  return (__m128) ((__v4sf)__A * (__v4sf)__B);
    8ca2:	41 0f 59 f3          	mulps  %xmm11,%xmm6
  return (__m128) ((__v4sf)__A + (__v4sf)__B);
    8ca6:	44 0f 28 d1          	movaps %xmm1,%xmm10
    8caa:	44 0f 58 d2          	addps  %xmm2,%xmm10
  return (__m128) ((__v4sf)__A * (__v4sf)__B);
    8cae:	0f 29 b4 24 10 01 00 	movaps %xmm6,0x110(%rsp)
    8cb5:	00 
  return (__m128) ((__v4sf)__A + (__v4sf)__B);
    8cb6:	0f 28 f1             	movaps %xmm1,%xmm6
  return (__m128) ((__v4sf)__A * (__v4sf)__B);
    8cb9:	0f 28 c8             	movaps %xmm0,%xmm1
  return (__m128) ((__v4sf)__A - (__v4sf)__B);
    8cbc:	41 0f 28 c7          	movaps %xmm15,%xmm0
    8cc0:	41 0f 5c c4          	subps  %xmm12,%xmm0
  return (__m128) ((__v4sf)__A + (__v4sf)__B);
    8cc4:	0f 58 f5             	addps  %xmm5,%xmm6
  return (__m128) ((__v4sf)__A * (__v4sf)__B);
    8cc7:	44 0f 28 7c 24 30    	movaps 0x30(%rsp),%xmm15
    8ccd:	44 0f 28 64 24 20    	movaps 0x20(%rsp),%xmm12
  return (__m128) ((__v4sf)__A + (__v4sf)__B);
    8cd3:	0f 58 c5             	addps  %xmm5,%xmm0
  return (__m128) ((__v4sf)__A * (__v4sf)__B);
    8cd6:	41 0f 59 f3          	mulps  %xmm11,%xmm6
    8cda:	41 0f 28 ea          	movaps %xmm10,%xmm5
    8cde:	41 0f 59 e9          	mulps  %xmm9,%xmm5
  return (__m128) ((__v4sf)__A - (__v4sf)__B);
    8ce2:	0f 5c c5             	subps  %xmm5,%xmm0
  return (__m128) ((__v4sf)__A * (__v4sf)__B);
    8ce5:	0f 59 d8             	mulps  %xmm0,%xmm3
  return (__m128) ((__v4sf)__A + (__v4sf)__B);
    8ce8:	41 0f 58 da          	addps  %xmm10,%xmm3
  return (__m128) ((__v4sf)__A * (__v4sf)__B);
    8cec:	45 0f 28 d5          	movaps %xmm13,%xmm10
    8cf0:	0f 28 eb             	movaps %xmm3,%xmm5
    8cf3:	41 0f 59 e9          	mulps  %xmm9,%xmm5
  return (__m128) ((__v4sf)__A - (__v4sf)__B);
    8cf7:	0f 5c c5             	subps  %xmm5,%xmm0
    8cfa:	0f 28 ea             	movaps %xmm2,%xmm5
  return (__m128) ((__v4sf)__A + (__v4sf)__B);
    8cfd:	0f 58 d6             	addps  %xmm6,%xmm2
  return (__m128) ((__v4sf)__A - (__v4sf)__B);
    8d00:	0f 5c ee             	subps  %xmm6,%xmm5
  return (__m128) ((__v4sf)__A + (__v4sf)__B);
    8d03:	0f 28 f3             	movaps %xmm3,%xmm6
    8d06:	0f 58 f2             	addps  %xmm2,%xmm6
  return (__m128) ((__v4sf)__A - (__v4sf)__B);
    8d09:	0f 5c d3             	subps  %xmm3,%xmm2
    8d0c:	0f 28 9c 24 60 01 00 	movaps 0x160(%rsp),%xmm3
    8d13:	00 
  return (__m128) ((__v4sf)__A * (__v4sf)__B);
    8d14:	41 0f 59 f5          	mulps  %xmm13,%xmm6
  return (__m128) ((__v4sf)__A + (__v4sf)__B);
    8d18:	44 0f 28 ec          	movaps %xmm4,%xmm13
  return (__m128) ((__v4sf)__A - (__v4sf)__B);
    8d1c:	0f 5c e1             	subps  %xmm1,%xmm4
  return (__m128) ((__v4sf)__A + (__v4sf)__B);
    8d1f:	44 0f 58 e9          	addps  %xmm1,%xmm13
  return (__m128) ((__v4sf)__A * (__v4sf)__B);
    8d23:	0f 59 24 24          	mulps  (%rsp),%xmm4
  return (__m128) ((__v4sf)__A - (__v4sf)__B);
    8d27:	0f 28 8c 24 30 02 00 	movaps 0x230(%rsp),%xmm1
    8d2e:	00 
  return (__m128) ((__v4sf)__A * (__v4sf)__B);
    8d2f:	45 0f 59 fd          	mulps  %xmm13,%xmm15
  return (__m128) ((__v4sf)__A - (__v4sf)__B);
    8d33:	44 0f 28 ed          	movaps %xmm5,%xmm13
    8d37:	44 0f 5c e8          	subps  %xmm0,%xmm13
  return (__m128) ((__v4sf)__A + (__v4sf)__B);
    8d3b:	0f 58 c5             	addps  %xmm5,%xmm0
  return (__m128) ((__v4sf)__A * (__v4sf)__B);
    8d3e:	0f 28 6c 24 10       	movaps 0x10(%rsp),%xmm5
    8d43:	0f 29 b4 24 d0 01 00 	movaps %xmm6,0x1d0(%rsp)
    8d4a:	00 
    8d4b:	0f 29 a4 24 40 01 00 	movaps %xmm4,0x140(%rsp)
    8d52:	00 
  return (__m128) ((__v4sf)__A - (__v4sf)__B);
    8d53:	0f 28 a4 24 70 01 00 	movaps 0x170(%rsp),%xmm4
    8d5a:	00 
  return (__m128) ((__v4sf)__A + (__v4sf)__B);
    8d5b:	0f 28 74 24 60       	movaps 0x60(%rsp),%xmm6
  return (__m128) ((__v4sf)__A * (__v4sf)__B);
    8d60:	0f 59 e8             	mulps  %xmm0,%xmm5
    8d63:	45 0f 59 e5          	mulps  %xmm13,%xmm12
    8d67:	44 0f 28 ea          	movaps %xmm2,%xmm13
  return (__m128) ((__v4sf)__A - (__v4sf)__B);
    8d6b:	0f 28 d3             	movaps %xmm3,%xmm2
  return (__m128) ((__v4sf)__A + (__v4sf)__B);
    8d6e:	0f 58 d9             	addps  %xmm1,%xmm3
  return (__m128) ((__v4sf)__A * (__v4sf)__B);
    8d71:	45 0f 59 e8          	mulps  %xmm8,%xmm13
  return (__m128) ((__v4sf)__A - (__v4sf)__B);
    8d75:	0f 5c d1             	subps  %xmm1,%xmm2
    8d78:	0f 28 cc             	movaps %xmm4,%xmm1
  return (__m128) ((__v4sf)__A * (__v4sf)__B);
    8d7b:	0f 29 ac 24 30 01 00 	movaps %xmm5,0x130(%rsp)
    8d82:	00 
  return (__m128) ((__v4sf)__A + (__v4sf)__B);
    8d83:	0f 28 eb             	movaps %xmm3,%xmm5
  return (__m128) ((__v4sf)__A - (__v4sf)__B);
    8d86:	0f 28 9c 24 10 02 00 	movaps 0x210(%rsp),%xmm3
    8d8d:	00 
  return (__m128) ((__v4sf)__A * (__v4sf)__B);
    8d8e:	44 0f 29 a4 24 20 01 	movaps %xmm12,0x120(%rsp)
    8d95:	00 00 
  return (__m128) ((__v4sf)__A - (__v4sf)__B);
    8d97:	44 0f 28 a4 24 a0 01 	movaps 0x1a0(%rsp),%xmm12
    8d9e:	00 00 
  return (__m128) ((__v4sf)__A * (__v4sf)__B);
    8da0:	44 0f 29 ac 24 50 01 	movaps %xmm13,0x150(%rsp)
    8da7:	00 00 
  return (__m128) ((__v4sf)__A + (__v4sf)__B);
    8da9:	0f 58 e3             	addps  %xmm3,%xmm4
  return (__m128) ((__v4sf)__A - (__v4sf)__B);
    8dac:	0f 5c cb             	subps  %xmm3,%xmm1
    8daf:	0f 28 9c 24 80 01 00 	movaps 0x180(%rsp),%xmm3
    8db6:	00 
  return (__m128) ((__v4sf)__A + (__v4sf)__B);
    8db7:	44 0f 28 ac 24 90 01 	movaps 0x190(%rsp),%xmm13
    8dbe:	00 00 
    8dc0:	0f 28 c4             	movaps %xmm4,%xmm0
  return (__m128) ((__v4sf)__A - (__v4sf)__B);
    8dc3:	0f 28 e3             	movaps %xmm3,%xmm4
  return (__m128) ((__v4sf)__A + (__v4sf)__B);
    8dc6:	41 0f 58 dc          	addps  %xmm12,%xmm3
    8dca:	41 0f 58 f5          	addps  %xmm13,%xmm6
  return (__m128) ((__v4sf)__A - (__v4sf)__B);
    8dce:	41 0f 5c e4          	subps  %xmm12,%xmm4
    8dd2:	44 0f 5c 6c 24 60    	subps  0x60(%rsp),%xmm13
  return (__m128) ((__v4sf)__A + (__v4sf)__B);
    8dd8:	0f 28 fb             	movaps %xmm3,%xmm7
  return (__m128) ((__v4sf)__A - (__v4sf)__B);
    8ddb:	0f 28 dd             	movaps %xmm5,%xmm3
    8dde:	0f 5c de             	subps  %xmm6,%xmm3
  return (__m128) ((__v4sf)__A + (__v4sf)__B);
    8de1:	0f 58 ee             	addps  %xmm6,%xmm5
    8de4:	0f 28 f0             	movaps %xmm0,%xmm6
    8de7:	0f 58 f7             	addps  %xmm7,%xmm6
  return (__m128) ((__v4sf)__A - (__v4sf)__B);
    8dea:	0f 5c c7             	subps  %xmm7,%xmm0
  return (__m128) ((__v4sf)__A + (__v4sf)__B);
    8ded:	44 0f 28 e5          	movaps %xmm5,%xmm12
  return (__m128) ((__v4sf)__A - (__v4sf)__B);
    8df1:	0f 5c ee             	subps  %xmm6,%xmm5
  return (__m128) ((__v4sf)__A + (__v4sf)__B);
    8df4:	0f 58 c3             	addps  %xmm3,%xmm0
    8df7:	44 0f 58 e6          	addps  %xmm6,%xmm12
  return (__m128) ((__v4sf)__A * (__v4sf)__B);
    8dfb:	41 0f 59 eb          	mulps  %xmm11,%xmm5
  return (__m128) ((__v4sf)__A + (__v4sf)__B);
    8dff:	44 0f 29 a4 24 60 01 	movaps %xmm12,0x160(%rsp)
    8e06:	00 00 
  return (__m128) ((__v4sf)__A * (__v4sf)__B);
    8e08:	41 0f 59 c3          	mulps  %xmm11,%xmm0
    8e0c:	0f 29 ac 24 70 01 00 	movaps %xmm5,0x170(%rsp)
    8e13:	00 
  return (__m128) ((__v4sf)__A + (__v4sf)__B);
    8e14:	0f 28 e9             	movaps %xmm1,%xmm5
    8e17:	0f 58 ec             	addps  %xmm4,%xmm5
    8e1a:	0f 28 f5             	movaps %xmm5,%xmm6
    8e1d:	0f 28 e9             	movaps %xmm1,%xmm5
  return (__m128) ((__v4sf)__A * (__v4sf)__B);
    8e20:	0f 28 c8             	movaps %xmm0,%xmm1
  return (__m128) ((__v4sf)__A + (__v4sf)__B);
    8e23:	0f 58 ea             	addps  %xmm2,%xmm5
  return (__m128) ((__v4sf)__A * (__v4sf)__B);
    8e26:	41 0f 59 f3          	mulps  %xmm11,%xmm6
  return (__m128) ((__v4sf)__A - (__v4sf)__B);
    8e2a:	41 0f 28 c5          	movaps %xmm13,%xmm0
  return (__m128) ((__v4sf)__A + (__v4sf)__B);
    8e2e:	0f 58 c4             	addps  %xmm4,%xmm0
  return (__m128) ((__v4sf)__A * (__v4sf)__B);
    8e31:	41 0f 28 e6          	movaps %xmm14,%xmm4
    8e35:	44 0f 28 ed          	movaps %xmm5,%xmm13
    8e39:	45 0f 59 e9          	mulps  %xmm9,%xmm13
  return (__m128) ((__v4sf)__A - (__v4sf)__B);
    8e3d:	41 0f 5c c5          	subps  %xmm13,%xmm0
  return (__m128) ((__v4sf)__A * (__v4sf)__B);
    8e41:	45 0f 28 ee          	movaps %xmm14,%xmm13
    8e45:	0f 59 e0             	mulps  %xmm0,%xmm4
  return (__m128) ((__v4sf)__A + (__v4sf)__B);
    8e48:	0f 58 e5             	addps  %xmm5,%xmm4
  return (__m128) ((__v4sf)__A * (__v4sf)__B);
    8e4b:	44 0f 28 f4          	movaps %xmm4,%xmm14
    8e4f:	45 0f 59 f1          	mulps  %xmm9,%xmm14
  return (__m128) ((__v4sf)__A - (__v4sf)__B);
    8e53:	41 0f 5c c6          	subps  %xmm14,%xmm0
    8e57:	44 0f 28 f2          	movaps %xmm2,%xmm14
  return (__m128) ((__v4sf)__A + (__v4sf)__B);
    8e5b:	0f 58 d6             	addps  %xmm6,%xmm2
  return (__m128) ((__v4sf)__A - (__v4sf)__B);
    8e5e:	44 0f 5c f6          	subps  %xmm6,%xmm14
    8e62:	41 0f 28 ee          	movaps %xmm14,%xmm5
  return (__m128) ((__v4sf)__A + (__v4sf)__B);
    8e66:	44 0f 28 f4          	movaps %xmm4,%xmm14
    8e6a:	44 0f 58 f2          	addps  %xmm2,%xmm14
  return (__m128) ((__v4sf)__A - (__v4sf)__B);
    8e6e:	0f 28 f5             	movaps %xmm5,%xmm6
    8e71:	0f 5c d4             	subps  %xmm4,%xmm2
    8e74:	0f 5c f0             	subps  %xmm0,%xmm6
  return (__m128) ((__v4sf)__A + (__v4sf)__B);
    8e77:	0f 58 c5             	addps  %xmm5,%xmm0
  return (__m128) ((__v4sf)__A * (__v4sf)__B);
    8e7a:	0f 59 44 24 10       	mulps  0x10(%rsp),%xmm0
  return (__m128) ((__v4sf)__A + (__v4sf)__B);
    8e7f:	41 0f 28 fe          	movaps %xmm14,%xmm7
    8e83:	44 0f 28 f3          	movaps %xmm3,%xmm14
  return (__m128) ((__v4sf)__A - (__v4sf)__B);
    8e87:	0f 5c d9             	subps  %xmm1,%xmm3
  return (__m128) ((__v4sf)__A * (__v4sf)__B);
    8e8a:	0f 59 1c 24          	mulps  (%rsp),%xmm3
  return (__m128) ((__v4sf)__A + (__v4sf)__B);
    8e8e:	44 0f 58 f1          	addps  %xmm1,%xmm14
  return (__m128) ((__v4sf)__A * (__v4sf)__B);
    8e92:	41 0f 59 fa          	mulps  %xmm10,%xmm7
    8e96:	44 0f 28 54 24 20    	movaps 0x20(%rsp),%xmm10
    8e9c:	0f 29 84 24 80 01 00 	movaps %xmm0,0x180(%rsp)
    8ea3:	00 
    8ea4:	44 0f 59 74 24 30    	mulps  0x30(%rsp),%xmm14
    8eaa:	44 0f 59 d6          	mulps  %xmm6,%xmm10
    8eae:	0f 29 9c 24 90 01 00 	movaps %xmm3,0x190(%rsp)
    8eb5:	00 
    8eb6:	0f 28 da             	movaps %xmm2,%xmm3
    8eb9:	41 0f 59 d8          	mulps  %xmm8,%xmm3
    8ebd:	44 0f 29 54 24 60    	movaps %xmm10,0x60(%rsp)
    8ec3:	0f 29 9c 24 a0 01 00 	movaps %xmm3,0x1a0(%rsp)
    8eca:	00 
  return (__m128) ((__v4sf)__A - (__v4sf)__B);
    8ecb:	0f 28 94 24 b0 01 00 	movaps 0x1b0(%rsp),%xmm2
    8ed2:	00 
    8ed3:	0f 28 8c 24 40 02 00 	movaps 0x240(%rsp),%xmm1
    8eda:	00 
    8edb:	0f 28 9c 24 20 02 00 	movaps 0x220(%rsp),%xmm3
    8ee2:	00 
    8ee3:	0f 28 ea             	movaps %xmm2,%xmm5
  return (__m128) ((__v4sf)__A + (__v4sf)__B);
    8ee6:	0f 58 d1             	addps  %xmm1,%xmm2
  return (__m128) ((__v4sf)__A - (__v4sf)__B);
    8ee9:	0f 5c e9             	subps  %xmm1,%xmm5
  return (__m128) ((__v4sf)__A + (__v4sf)__B);
    8eec:	0f 28 ca             	movaps %xmm2,%xmm1
  return (__m128) ((__v4sf)__A - (__v4sf)__B);
    8eef:	0f 28 94 24 e0 01 00 	movaps 0x1e0(%rsp),%xmm2
    8ef6:	00 
    8ef7:	0f 28 e2             	movaps %xmm2,%xmm4
  return (__m128) ((__v4sf)__A + (__v4sf)__B);
    8efa:	0f 58 d3             	addps  %xmm3,%xmm2
  return (__m128) ((__v4sf)__A - (__v4sf)__B);
    8efd:	0f 5c e3             	subps  %xmm3,%xmm4
    8f00:	0f 28 9c 24 00 02 00 	movaps 0x200(%rsp),%xmm3
    8f07:	00 
  return (__m128) ((__v4sf)__A + (__v4sf)__B);
    8f08:	0f 28 c2             	movaps %xmm2,%xmm0
  return (__m128) ((__v4sf)__A - (__v4sf)__B);
    8f0b:	0f 28 94 24 f0 01 00 	movaps 0x1f0(%rsp),%xmm2
    8f12:	00 
  return (__m128) ((__v4sf)__A + (__v4sf)__B);
    8f13:	0f 28 f0             	movaps %xmm0,%xmm6
  return (__m128) ((__v4sf)__A - (__v4sf)__B);
    8f16:	44 0f 28 d2          	movaps %xmm2,%xmm10
  return (__m128) ((__v4sf)__A + (__v4sf)__B);
    8f1a:	0f 58 d3             	addps  %xmm3,%xmm2
  return (__m128) ((__v4sf)__A - (__v4sf)__B);
    8f1d:	44 0f 5c d3          	subps  %xmm3,%xmm10
    8f21:	0f 28 d9             	movaps %xmm1,%xmm3
  return (__m128) ((__v4sf)__A + (__v4sf)__B);
    8f24:	44 0f 28 e2          	movaps %xmm2,%xmm12
    8f28:	0f 28 54 24 50       	movaps 0x50(%rsp),%xmm2
    8f2d:	0f 58 54 24 70       	addps  0x70(%rsp),%xmm2
    8f32:	41 0f 58 f4          	addps  %xmm12,%xmm6
  return (__m128) ((__v4sf)__A - (__v4sf)__B);
    8f36:	41 0f 5c c4          	subps  %xmm12,%xmm0
  return (__m128) ((__v4sf)__A + (__v4sf)__B);
    8f3a:	0f 58 ca             	addps  %xmm2,%xmm1
  return (__m128) ((__v4sf)__A - (__v4sf)__B);
    8f3d:	0f 5c da             	subps  %xmm2,%xmm3
    8f40:	0f 29 b4 24 e0 01 00 	movaps %xmm6,0x1e0(%rsp)
    8f47:	00 
    8f48:	0f 28 d1             	movaps %xmm1,%xmm2
  return (__m128) ((__v4sf)__A + (__v4sf)__B);
    8f4b:	0f 58 c3             	addps  %xmm3,%xmm0
    8f4e:	0f 58 8c 24 e0 01 00 	addps  0x1e0(%rsp),%xmm1
    8f55:	00 
  return (__m128) ((__v4sf)__A - (__v4sf)__B);
    8f56:	0f 5c d6             	subps  %xmm6,%xmm2
  return (__m128) ((__v4sf)__A * (__v4sf)__B);
    8f59:	41 0f 59 c3          	mulps  %xmm11,%xmm0
    8f5d:	41 0f 59 d3          	mulps  %xmm11,%xmm2
    8f61:	0f 28 f0             	movaps %xmm0,%xmm6
  return (__m128) ((__v4sf)__A - (__v4sf)__B);
    8f64:	0f 28 44 24 50       	movaps 0x50(%rsp),%xmm0
    8f69:	0f 5c 44 24 70       	subps  0x70(%rsp),%xmm0
  return (__m128) ((__v4sf)__A * (__v4sf)__B);
    8f6e:	0f 29 94 24 b0 01 00 	movaps %xmm2,0x1b0(%rsp)
    8f75:	00 
  return (__m128) ((__v4sf)__A + (__v4sf)__B);
    8f76:	0f 28 d4             	movaps %xmm4,%xmm2
    8f79:	0f 58 e5             	addps  %xmm5,%xmm4
    8f7c:	41 0f 58 d2          	addps  %xmm10,%xmm2
    8f80:	41 0f 58 c2          	addps  %xmm10,%xmm0
  return (__m128) ((__v4sf)__A * (__v4sf)__B);
    8f84:	44 0f 28 e4          	movaps %xmm4,%xmm12
    8f88:	45 0f 59 e1          	mulps  %xmm9,%xmm12
    8f8c:	41 0f 59 d3          	mulps  %xmm11,%xmm2
  return (__m128) ((__v4sf)__A - (__v4sf)__B);
    8f90:	41 0f 5c c4          	subps  %xmm12,%xmm0
  return (__m128) ((__v4sf)__A * (__v4sf)__B);
    8f94:	44 0f 59 e8          	mulps  %xmm0,%xmm13
    8f98:	45 0f 28 d5          	movaps %xmm13,%xmm10
  return (__m128) ((__v4sf)__A + (__v4sf)__B);
    8f9c:	44 0f 58 d4          	addps  %xmm4,%xmm10
    8fa0:	0f 28 e3             	movaps %xmm3,%xmm4
  return (__m128) ((__v4sf)__A - (__v4sf)__B);
    8fa3:	0f 5c de             	subps  %xmm6,%xmm3
  return (__m128) ((__v4sf)__A + (__v4sf)__B);
    8fa6:	0f 58 e6             	addps  %xmm6,%xmm4
  return (__m128) ((__v4sf)__A * (__v4sf)__B);
    8fa9:	0f 59 1c 24          	mulps  (%rsp),%xmm3
    8fad:	0f 59 64 24 30       	mulps  0x30(%rsp),%xmm4
    8fb2:	45 0f 28 ea          	movaps %xmm10,%xmm13
    8fb6:	45 0f 59 e9          	mulps  %xmm9,%xmm13
  return (__m128) ((__v4sf)__A - (__v4sf)__B);
    8fba:	41 0f 5c c5          	subps  %xmm13,%xmm0
    8fbe:	44 0f 28 ed          	movaps %xmm5,%xmm13
  return (__m128) ((__v4sf)__A + (__v4sf)__B);
    8fc2:	0f 58 ea             	addps  %xmm2,%xmm5
  return (__m128) ((__v4sf)__A - (__v4sf)__B);
    8fc5:	44 0f 5c ea          	subps  %xmm2,%xmm13
    8fc9:	45 0f 28 e5          	movaps %xmm13,%xmm12
  return (__m128) ((__v4sf)__A + (__v4sf)__B);
    8fcd:	45 0f 28 ea          	movaps %xmm10,%xmm13
    8fd1:	44 0f 58 ed          	addps  %xmm5,%xmm13
  return (__m128) ((__v4sf)__A * (__v4sf)__B);
    8fd5:	44 0f 59 6c 24 40    	mulps  0x40(%rsp),%xmm13
  return (__m128) ((__v4sf)__A - (__v4sf)__B);
    8fdb:	41 0f 28 d4          	movaps %xmm12,%xmm2
    8fdf:	0f 5c d0             	subps  %xmm0,%xmm2
    8fe2:	41 0f 5c ea          	subps  %xmm10,%xmm5
  return (__m128) ((__v4sf)__A * (__v4sf)__B);
    8fe6:	0f 59 54 24 20       	mulps  0x20(%rsp),%xmm2
  return (__m128) ((__v4sf)__A + (__v4sf)__B);
    8feb:	41 0f 58 c4          	addps  %xmm12,%xmm0
  return (__m128) ((__v4sf)__A * (__v4sf)__B);
    8fef:	44 0f 28 64 24 10    	movaps 0x10(%rsp),%xmm12
    8ff5:	41 0f 59 e8          	mulps  %xmm8,%xmm5
    8ff9:	44 0f 59 e0          	mulps  %xmm0,%xmm12
  return (__m128) ((__v4sf)__A + (__v4sf)__B);
    8ffd:	41 0f 58 cd          	addps  %xmm13,%xmm1
        if (k > n - 3)
    9001:	83 fa 10             	cmp    $0x10,%edx
    9004:	0f 85 e9 f3 ff ff    	jne    83f3 <mp3dec_decode_frame+0x4633>
  __builtin_ia32_storelps ((__v2sf *)__P, (__v4sf)__A);
    900a:	0f 28 f3             	movaps %xmm3,%xmm6
    900d:	0f 28 9c 24 80 00 00 	movaps 0x80(%rsp),%xmm3
    9014:	00 
  return (__m128) ((__v4sf)__A + (__v4sf)__B);
    9015:	44 0f 58 ec          	addps  %xmm4,%xmm13
    9019:	0f 58 e2             	addps  %xmm2,%xmm4
  __builtin_ia32_storelps ((__v2sf *)__P, (__v4sf)__A);
    901c:	44 0f 28 94 24 d0 01 	movaps 0x1d0(%rsp),%xmm10
    9023:	00 00 
    9025:	0f 28 c5             	movaps %xmm5,%xmm0
    for (i = 0; i < nch; i++)
    9028:	48 81 c1 40 02 00 00 	add    $0x240,%rcx
    902f:	48 81 c6 00 09 00 00 	add    $0x900,%rsi
    9036:	0f 13 18             	movlps %xmm3,(%rax)
  return (__m128) ((__v4sf)__A + (__v4sf)__B);
    9039:	0f 28 9c 24 60 01 00 	movaps 0x160(%rsp),%xmm3
    9040:	00 
    9041:	0f 58 d9             	addps  %xmm1,%xmm3
    9044:	0f 58 cf             	addps  %xmm7,%xmm1
    9047:	41 0f 58 fd          	addps  %xmm13,%xmm7
    904b:	45 0f 58 ee          	addps  %xmm14,%xmm13
    904f:	44 0f 58 f4          	addps  %xmm4,%xmm14
  __builtin_ia32_storelps ((__v2sf *)__P, (__v4sf)__A);
    9053:	0f 13 58 48          	movlps %xmm3,0x48(%rax)
  return (__m128) ((__v4sf)__A + (__v4sf)__B);
    9057:	0f 28 9c 24 00 01 00 	movaps 0x100(%rsp),%xmm3
    905e:	00 
  __builtin_ia32_storelps ((__v2sf *)__P, (__v4sf)__A);
    905f:	0f 13 88 d8 00 00 00 	movlps %xmm1,0xd8(%rax)
  return (__m128) ((__v4sf)__A + (__v4sf)__B);
    9066:	41 0f 58 da          	addps  %xmm10,%xmm3
    906a:	45 0f 58 d7          	addps  %xmm15,%xmm10
  __builtin_ia32_storelps ((__v2sf *)__P, (__v4sf)__A);
    906e:	0f 13 98 90 00 00 00 	movlps %xmm3,0x90(%rax)
    9075:	0f 28 9c 24 a0 00 00 	movaps 0xa0(%rsp),%xmm3
    907c:	00 
    907d:	0f 13 b8 68 01 00 00 	movlps %xmm7,0x168(%rax)
    9084:	0f 13 98 20 01 00 00 	movlps %xmm3,0x120(%rax)
    908b:	44 0f 13 90 b0 01 00 	movlps %xmm10,0x1b0(%rax)
    9092:	00 
    9093:	44 0f 13 a8 f8 01 00 	movlps %xmm13,0x1f8(%rax)
    909a:	00 
    909b:	0f 28 9c 24 b0 00 00 	movaps 0xb0(%rsp),%xmm3
    90a2:	00 
    90a3:	44 0f 13 b0 88 02 00 	movlps %xmm14,0x288(%rax)
    90aa:	00 
    90ab:	0f 13 98 40 02 00 00 	movlps %xmm3,0x240(%rax)
  return (__m128) ((__v4sf)__A + (__v4sf)__B);
    90b2:	0f 28 9c 24 20 01 00 	movaps 0x120(%rsp),%xmm3
    90b9:	00 
    90ba:	44 0f 58 fb          	addps  %xmm3,%xmm15
  __builtin_ia32_storelps ((__v2sf *)__P, (__v4sf)__A);
    90be:	44 0f 13 b8 d0 02 00 	movlps %xmm15,0x2d0(%rax)
    90c5:	00 
  return (__m128) ((__v4sf)__A + (__v4sf)__B);
    90c6:	0f 28 6c 24 60       	movaps 0x60(%rsp),%xmm5
    90cb:	0f 58 e5             	addps  %xmm5,%xmm4
  __builtin_ia32_storelps ((__v2sf *)__P, (__v4sf)__A);
    90ce:	0f 13 a0 18 03 00 00 	movlps %xmm4,0x318(%rax)
  return (__m128) ((__v4sf)__A + (__v4sf)__B);
    90d5:	0f 28 a4 24 b0 01 00 	movaps 0x1b0(%rsp),%xmm4
    90dc:	00 
  __builtin_ia32_storelps ((__v2sf *)__P, (__v4sf)__A);
    90dd:	0f 28 bc 24 c0 00 00 	movaps 0xc0(%rsp),%xmm7
    90e4:	00 
  return (__m128) ((__v4sf)__A + (__v4sf)__B);
    90e5:	0f 58 d4             	addps  %xmm4,%xmm2
  __builtin_ia32_storelps ((__v2sf *)__P, (__v4sf)__A);
    90e8:	0f 13 b8 60 03 00 00 	movlps %xmm7,0x360(%rax)
  return (__m128) ((__v4sf)__A + (__v4sf)__B);
    90ef:	41 0f 58 e4          	addps  %xmm12,%xmm4
    90f3:	0f 58 ea             	addps  %xmm2,%xmm5
    90f6:	0f 28 cc             	movaps %xmm4,%xmm1
  __builtin_ia32_storelps ((__v2sf *)__P, (__v4sf)__A);
    90f9:	0f 13 a8 a8 03 00 00 	movlps %xmm5,0x3a8(%rax)
  return (__m128) ((__v4sf)__A + (__v4sf)__B);
    9100:	0f 28 ac 24 10 01 00 	movaps 0x110(%rsp),%xmm5
    9107:	00 
    9108:	0f 58 dd             	addps  %xmm5,%xmm3
  __builtin_ia32_storelps ((__v2sf *)__P, (__v4sf)__A);
    910b:	0f 13 98 f0 03 00 00 	movlps %xmm3,0x3f0(%rax)
  return (__m128) ((__v4sf)__A + (__v4sf)__B);
    9112:	0f 28 9c 24 70 01 00 	movaps 0x170(%rsp),%xmm3
    9119:	00 
    911a:	0f 58 d3             	addps  %xmm3,%xmm2
  __builtin_ia32_storelps ((__v2sf *)__P, (__v4sf)__A);
    911d:	0f 13 90 38 04 00 00 	movlps %xmm2,0x438(%rax)
    9124:	0f 28 94 24 90 00 00 	movaps 0x90(%rsp),%xmm2
    912b:	00 
    912c:	0f 13 90 80 04 00 00 	movlps %xmm2,0x480(%rax)
  return (__m128) ((__v4sf)__A + (__v4sf)__B);
    9133:	0f 28 d3             	movaps %xmm3,%xmm2
    9136:	0f 58 d4             	addps  %xmm4,%xmm2
  __builtin_ia32_storelps ((__v2sf *)__P, (__v4sf)__A);
    9139:	0f 13 90 c8 04 00 00 	movlps %xmm2,0x4c8(%rax)
  return (__m128) ((__v4sf)__A + (__v4sf)__B);
    9140:	0f 28 9c 24 30 01 00 	movaps 0x130(%rsp),%xmm3
    9147:	00 
    9148:	0f 28 d5             	movaps %xmm5,%xmm2
    914b:	0f 58 d3             	addps  %xmm3,%xmm2
  __builtin_ia32_storelps ((__v2sf *)__P, (__v4sf)__A);
    914e:	0f 13 90 10 05 00 00 	movlps %xmm2,0x510(%rax)
  return (__m128) ((__v4sf)__A + (__v4sf)__B);
    9155:	0f 28 94 24 80 01 00 	movaps 0x180(%rsp),%xmm2
    915c:	00 
    915d:	0f 58 ca             	addps  %xmm2,%xmm1
  __builtin_ia32_storelps ((__v2sf *)__P, (__v4sf)__A);
    9160:	0f 13 88 58 05 00 00 	movlps %xmm1,0x558(%rax)
  return (__m128) ((__v4sf)__A + (__v4sf)__B);
    9167:	41 0f 28 cc          	movaps %xmm12,%xmm1
  __builtin_ia32_storelps ((__v2sf *)__P, (__v4sf)__A);
    916b:	0f 28 a4 24 d0 00 00 	movaps 0xd0(%rsp),%xmm4
    9172:	00 
  return (__m128) ((__v4sf)__A + (__v4sf)__B);
    9173:	0f 58 ce             	addps  %xmm6,%xmm1
    9176:	0f 58 f0             	addps  %xmm0,%xmm6
  __builtin_ia32_storelps ((__v2sf *)__P, (__v4sf)__A);
    9179:	0f 13 a0 a0 05 00 00 	movlps %xmm4,0x5a0(%rax)
  return (__m128) ((__v4sf)__A + (__v4sf)__B);
    9180:	0f 58 d1             	addps  %xmm1,%xmm2
  __builtin_ia32_storelps ((__v2sf *)__P, (__v4sf)__A);
    9183:	0f 13 90 e8 05 00 00 	movlps %xmm2,0x5e8(%rax)
  return (__m128) ((__v4sf)__A + (__v4sf)__B);
    918a:	0f 28 d3             	movaps %xmm3,%xmm2
    918d:	0f 28 9c 24 40 01 00 	movaps 0x140(%rsp),%xmm3
    9194:	00 
    9195:	0f 58 d3             	addps  %xmm3,%xmm2
  __builtin_ia32_storelps ((__v2sf *)__P, (__v4sf)__A);
    9198:	0f 13 90 30 06 00 00 	movlps %xmm2,0x630(%rax)
  return (__m128) ((__v4sf)__A + (__v4sf)__B);
    919f:	0f 28 94 24 90 01 00 	movaps 0x190(%rsp),%xmm2
    91a6:	00 
    91a7:	0f 58 ca             	addps  %xmm2,%xmm1
    91aa:	0f 58 d6             	addps  %xmm6,%xmm2
  __builtin_ia32_storelps ((__v2sf *)__P, (__v4sf)__A);
    91ad:	0f 13 88 78 06 00 00 	movlps %xmm1,0x678(%rax)
    91b4:	0f 28 a4 24 e0 00 00 	movaps 0xe0(%rsp),%xmm4
    91bb:	00 
    91bc:	0f 13 90 08 07 00 00 	movlps %xmm2,0x708(%rax)
    91c3:	0f 13 a0 c0 06 00 00 	movlps %xmm4,0x6c0(%rax)
  return (__m128) ((__v4sf)__A + (__v4sf)__B);
    91ca:	0f 28 a4 24 50 01 00 	movaps 0x150(%rsp),%xmm4
    91d1:	00 
    91d2:	0f 58 dc             	addps  %xmm4,%xmm3
  __builtin_ia32_storelps ((__v2sf *)__P, (__v4sf)__A);
    91d5:	0f 13 98 50 07 00 00 	movlps %xmm3,0x750(%rax)
  return (__m128) ((__v4sf)__A + (__v4sf)__B);
    91dc:	0f 28 94 24 a0 01 00 	movaps 0x1a0(%rsp),%xmm2
    91e3:	00 
    91e4:	0f 58 f2             	addps  %xmm2,%xmm6
    91e7:	0f 58 d0             	addps  %xmm0,%xmm2
  __builtin_ia32_storelps ((__v2sf *)__P, (__v4sf)__A);
    91ea:	0f 13 b0 98 07 00 00 	movlps %xmm6,0x798(%rax)
    91f1:	0f 28 9c 24 f0 00 00 	movaps 0xf0(%rsp),%xmm3
    91f8:	00 
    91f9:	0f 13 90 28 08 00 00 	movlps %xmm2,0x828(%rax)
    9200:	0f 13 98 e0 07 00 00 	movlps %xmm3,0x7e0(%rax)
    9207:	0f 13 a0 70 08 00 00 	movlps %xmm4,0x870(%rax)
    920e:	0f 13 80 b8 08 00 00 	movlps %xmm0,0x8b8(%rax)
    9215:	48 39 f9             	cmp    %rdi,%rcx
    9218:	0f 85 c2 f1 ff ff    	jne    83e0 <mp3dec_decode_frame+0x4620>
    921e:	44 89 ea             	mov    %r13d,%edx
    9221:	b9 e0 01 00 00       	mov    $0x1e0,%ecx
    9226:	48 8b bc 24 08 04 00 	mov    0x408(%rsp),%rdi
    922d:	00 
    922e:	48 8b b4 24 20 04 00 	mov    0x420(%rsp),%rsi
    9235:	00 
    9236:	c1 e2 06             	shl    $0x6,%edx
    9239:	48 8b 9c 24 00 04 00 	mov    0x400(%rsp),%rbx
    9240:	00 
    9241:	4c 89 24 24          	mov    %r12,(%rsp)
    9245:	f3 48 a5             	rep movsq %ds:(%rsi),%es:(%rdi)
    for (i = 0; i < nbands; i += 2)
    9248:	48 63 d2             	movslq %edx,%rdx
    924b:	48 8b 84 24 e0 03 00 	mov    0x3e0(%rsp),%rax
    9252:	00 
    9253:	48 8d 2c 12          	lea    (%rdx,%rdx,1),%rbp
    9257:	48 8d 94 24 30 26 00 	lea    0x2630(%rsp),%rdx
    925e:	00 
    925f:	48 89 94 24 08 04 00 	mov    %rdx,0x408(%rsp)
    9266:	00 
    9267:	49 89 ec             	mov    %rbp,%r12
    926a:	49 89 d6             	mov    %rdx,%r14
    926d:	48 89 dd             	mov    %rbx,%rbp
    9270:	48 89 c3             	mov    %rax,%rbx
        mp3d_synth(grbuf + i, pcm + 32*nch*i, nch, lins + i*64);
    9273:	4c 89 f1             	mov    %r14,%rcx
    9276:	48 89 ee             	mov    %rbp,%rsi
    9279:	48 89 df             	mov    %rbx,%rdi
    927c:	44 89 ea             	mov    %r13d,%edx
    927f:	e8 3c a6 ff ff       	call   38c0 <mp3d_synth>
    for (i = 0; i < nbands; i += 2)
    9284:	48 83 c3 08          	add    $0x8,%rbx
    9288:	48 8b 84 24 58 04 00 	mov    0x458(%rsp),%rax
    928f:	00 
    9290:	4c 01 e5             	add    %r12,%rbp
    9293:	49 81 c6 00 02 00 00 	add    $0x200,%r14
    929a:	48 39 c3             	cmp    %rax,%rbx
    929d:	75 d4                	jne    9273 <mp3dec_decode_frame+0x54b3>
    if (nch == 1)
    929f:	4c 8b 24 24          	mov    (%rsp),%r12
    92a3:	48 8b 94 24 30 04 00 	mov    0x430(%rsp),%rdx
    92aa:	00 
    92ab:	41 83 fd 01          	cmp    $0x1,%r13d
    92af:	0f 85 c6 07 00 00    	jne    9a7b <mp3dec_decode_frame+0x5cbb>
    92b5:	48 8b 9c 24 18 04 00 	mov    0x418(%rsp),%rbx
    92bc:	00 
    92bd:	48 8b 84 24 20 04 00 	mov    0x420(%rsp),%rax
    92c4:	00 
    92c5:	48 8d 8b 30 3f 00 00 	lea    0x3f30(%rbx),%rcx
            qmf_state[i] = lins[nbands*64 + i];
    92cc:	0f 28 0a             	movaps (%rdx),%xmm1
    92cf:	0f 28 42 10          	movaps 0x10(%rdx),%xmm0
    92d3:	48 83 c2 20          	add    $0x20,%rdx
    92d7:	48 83 c0 20          	add    $0x20,%rax
    92db:	f3 0f 11 48 e0       	movss  %xmm1,-0x20(%rax)
    92e0:	0f 15 c9             	unpckhps %xmm1,%xmm1
    92e3:	f3 0f 11 40 f0       	movss  %xmm0,-0x10(%rax)
    92e8:	0f 15 c0             	unpckhps %xmm0,%xmm0
    92eb:	f3 0f 11 48 e8       	movss  %xmm1,-0x18(%rax)
    92f0:	f3 0f 11 40 f8       	movss  %xmm0,-0x8(%rax)
        for (i = 0; i < 15*64; i += 2)
    92f5:	48 39 ca             	cmp    %rcx,%rdx
    92f8:	75 d2                	jne    92cc <mp3dec_decode_frame+0x550c>
            for (igr = 0; igr < (HDR_TEST_MPEG1(hdr) ? 2 : 1); igr++, pcm += 576*info->channels)
    92fa:	48 8b 84 24 f8 03 00 	mov    0x3f8(%rsp),%rax
    9301:	00 
    9302:	48 8b 9c 24 00 04 00 	mov    0x400(%rsp),%rbx
    9309:	00 
    930a:	8b 40 08             	mov    0x8(%rax),%eax
    930d:	89 84 24 a0 00 00 00 	mov    %eax,0xa0(%rsp)
    9314:	8d 04 c0             	lea    (%rax,%rax,8),%eax
    9317:	c1 e0 06             	shl    $0x6,%eax
    931a:	48 98                	cltq
    931c:	48 8d 04 43          	lea    (%rbx,%rax,2),%rax
    9320:	48 89 84 24 00 04 00 	mov    %rax,0x400(%rsp)
    9327:	00 
    9328:	41 f6 44 24 01 08    	testb  $0x8,0x1(%r12)
    932e:	74 18                	je     9348 <mp3dec_decode_frame+0x5588>
    9330:	83 84 24 10 04 00 00 	addl   $0x1,0x410(%rsp)
    9337:	01 
    9338:	8b 84 24 10 04 00 00 	mov    0x410(%rsp),%eax
    933f:	83 f8 01             	cmp    $0x1,%eax
    9342:	0f 84 c8 d3 ff ff    	je     6710 <mp3dec_decode_frame+0x2950>
    int pos = (s->bs.pos + 7)/8u;
    9348:	8b 84 24 08 08 00 00 	mov    0x808(%rsp),%eax
    934f:	48 8b ac 24 48 04 00 	mov    0x448(%rsp),%rbp
    9356:	00 
    9357:	4d 89 fd             	mov    %r15,%r13
    935a:	44 0f b6 b4 24 40 04 	movzbl 0x440(%rsp),%r14d
    9361:	00 00 
    int remains = s->bs.limit/8u - pos;
    9363:	8b 94 24 0c 08 00 00 	mov    0x80c(%rsp),%edx
    int pos = (s->bs.pos + 7)/8u;
    936a:	83 c0 07             	add    $0x7,%eax
    936d:	c1 e8 03             	shr    $0x3,%eax
    9370:	89 c6                	mov    %eax,%esi
    9372:	e9 1f e4 ff ff       	jmp    7796 <mp3dec_decode_frame+0x39d6>
    9377:	66 0f 1f 84 00 00 00 	nopw   0x0(%rax,%rax,1)
    937e:	00 00 
    9380:	45 89 fa             	mov    %r15d,%r10d
    9383:	4d 89 e0             	mov    %r12,%r8
    9386:	41 89 f7             	mov    %esi,%r15d
    9389:	41 89 fc             	mov    %edi,%r12d
    938c:	48 8b 94 24 30 01 00 	mov    0x130(%rsp),%rdx
    9393:	00 
    9394:	e9 95 e8 ff ff       	jmp    7c2e <mp3dec_decode_frame+0x3e6e>
    uint32_t next, cache = 0, s = bs->pos & 7;
    9399:	31 f6                	xor    %esi,%esi
    939b:	e9 25 e8 ff ff       	jmp    7bc5 <mp3dec_decode_frame+0x3e05>
    } else if (gr->preflag)
    93a0:	80 7b 09 00          	cmpb   $0x0,0x9(%rbx)
            iscf[gr->n_long_sfb + i + 0] += gr->subblock_gain[0] << sh;
    93a4:	0f b6 73 fe          	movzbl -0x2(%rbx),%esi
    } else if (gr->preflag)
    93a8:	74 41                	je     93eb <mp3dec_decode_frame+0x562b>
            iscf[11 + i] += g_preamp[i];
    93aa:	f3 0f 7e 84 24 9b 47 	movq   0x479b(%rsp),%xmm0
    93b1:	00 00 
    93b3:	f3 0f 7e 0d 15 84 00 	movq   0x8415(%rip),%xmm1        # 117d0 <g_pow43+0x3b0>
    93ba:	00 
    93bb:	66 0f fc c1          	paddb  %xmm1,%xmm0
    93bf:	66 0f c4 8c 24 a3 47 	pinsrw $0x0,0x47a3(%rsp),%xmm1
    93c6:	00 00 00 
    93c9:	66 0f d6 84 24 9b 47 	movq   %xmm0,0x479b(%rsp)
    93d0:	00 00 
    93d2:	66 0f c4 05 69 84 00 	pinsrw $0x0,0x8469(%rip),%xmm0        # 11844 <g_pow43+0x424>
    93d9:	00 00 
    93db:	66 0f fc c8          	paddb  %xmm0,%xmm1
    93df:	66 0f 7e c8          	movd   %xmm1,%eax
    93e3:	66 89 84 24 a3 47 00 	mov    %ax,0x47a3(%rsp)
    93ea:	00 
    for (i = 0; i < (int)(gr->n_long_sfb + gr->n_short_sfb); i++)
    93eb:	31 ff                	xor    %edi,%edi
    93ed:	e9 3d d8 ff ff       	jmp    6c2f <mp3dec_decode_frame+0x2e6f>
        int k, modprod, sfc, ist = HDR_TEST_I_STEREO(hdr) && ch;
    93f2:	0f b6 80 0b 18 00 00 	movzbl 0x180b(%rax),%eax
    93f9:	44 8b 94 24 c0 00 00 	mov    0xc0(%rsp),%r10d
    9400:	00 
    9401:	89 c1                	mov    %eax,%ecx
    9403:	88 04 24             	mov    %al,(%rsp)
    9406:	c0 e9 04             	shr    $0x4,%cl
    9409:	45 85 d2             	test   %r10d,%r10d
    940c:	0f 95 c0             	setne  %al
    940f:	21 c1                	and    %eax,%ecx
    9411:	0f b6 c1             	movzbl %cl,%eax
        sfc = gr->scalefac_compress >> ist;
    9414:	d3 fa                	sar    %cl,%edx
        for (k = ist*3*4; sfc >= 0; sfc -= modprod, k += 4)
    9416:	f7 d8                	neg    %eax
        sfc = gr->scalefac_compress >> ist;
    9418:	89 d1                	mov    %edx,%ecx
                scf_size[i] = (uint8_t)(sfc / modprod % g_mod[k + i]);
    941a:	48 8d 15 ef 7a 00 00 	lea    0x7aef(%rip),%rdx        # 10f10 <g_mod.20>
        for (k = ist*3*4; sfc >= 0; sfc -= modprod, k += 4)
    9421:	83 e0 0c             	and    $0xc,%eax
    9424:	41 89 cf             	mov    %ecx,%r15d
                scf_size[i] = (uint8_t)(sfc / modprod % g_mod[k + i]);
    9427:	8d 70 03             	lea    0x3(%rax),%esi
    942a:	48 63 f6             	movslq %esi,%rsi
    942d:	44 0f b6 2c 32       	movzbl (%rdx,%rsi,1),%r13d
    9432:	8d 70 02             	lea    0x2(%rax),%esi
    9435:	48 63 f6             	movslq %esi,%rsi
    9438:	0f b6 3c 32          	movzbl (%rdx,%rsi,1),%edi
    943c:	8d 70 01             	lea    0x1(%rax),%esi
    943f:	48 63 f6             	movslq %esi,%rsi
                modprod *= g_mod[k + i];
    9442:	41 89 fa             	mov    %edi,%r10d
                scf_size[i] = (uint8_t)(sfc / modprod % g_mod[k + i]);
    9445:	44 0f b6 04 32       	movzbl (%rdx,%rsi,1),%r8d
    944a:	48 63 f0             	movslq %eax,%rsi
                modprod *= g_mod[k + i];
    944d:	45 0f af d5          	imul   %r13d,%r10d
                scf_size[i] = (uint8_t)(sfc / modprod % g_mod[k + i]);
    9451:	44 0f b6 1c 32       	movzbl (%rdx,%rsi,1),%r11d
        for (k = ist*3*4; sfc >= 0; sfc -= modprod, k += 4)
    9456:	8d 70 04             	lea    0x4(%rax),%esi
                modprod *= g_mod[k + i];
    9459:	44 89 c5             	mov    %r8d,%ebp
    945c:	45 89 de             	mov    %r11d,%r14d
    945f:	41 0f af ea          	imul   %r10d,%ebp
    9463:	44 0f af f5          	imul   %ebp,%r14d
        for (k = ist*3*4; sfc >= 0; sfc -= modprod, k += 4)
    9467:	45 29 f7             	sub    %r14d,%r15d
    946a:	0f 88 60 01 00 00    	js     95d0 <mp3dec_decode_frame+0x5810>
                scf_size[i] = (uint8_t)(sfc / modprod % g_mod[k + i]);
    9470:	8d 48 07             	lea    0x7(%rax),%ecx
    9473:	48 63 f6             	movslq %esi,%rsi
    9476:	48 63 c9             	movslq %ecx,%rcx
    9479:	44 0f b6 1c 32       	movzbl (%rdx,%rsi,1),%r11d
        for (k = ist*3*4; sfc >= 0; sfc -= modprod, k += 4)
    947e:	8d 70 08             	lea    0x8(%rax),%esi
                scf_size[i] = (uint8_t)(sfc / modprod % g_mod[k + i]);
    9481:	44 0f b6 2c 0a       	movzbl (%rdx,%rcx,1),%r13d
    9486:	8d 48 06             	lea    0x6(%rax),%ecx
    9489:	48 63 c9             	movslq %ecx,%rcx
    948c:	0f b6 3c 0a          	movzbl (%rdx,%rcx,1),%edi
    9490:	8d 48 05             	lea    0x5(%rax),%ecx
                modprod *= g_mod[k + i];
    9493:	45 89 ea             	mov    %r13d,%r10d
                scf_size[i] = (uint8_t)(sfc / modprod % g_mod[k + i]);
    9496:	48 63 c9             	movslq %ecx,%rcx
    9499:	44 0f b6 04 0a       	movzbl (%rdx,%rcx,1),%r8d
                modprod *= g_mod[k + i];
    949e:	44 0f af d7          	imul   %edi,%r10d
        for (k = ist*3*4; sfc >= 0; sfc -= modprod, k += 4)
    94a2:	44 89 f9             	mov    %r15d,%ecx
                modprod *= g_mod[k + i];
    94a5:	44 89 c5             	mov    %r8d,%ebp
    94a8:	41 0f af ea          	imul   %r10d,%ebp
    94ac:	41 89 ee             	mov    %ebp,%r14d
    94af:	45 0f af f3          	imul   %r11d,%r14d
        for (k = ist*3*4; sfc >= 0; sfc -= modprod, k += 4)
    94b3:	44 29 f1             	sub    %r14d,%ecx
    94b6:	0f 88 01 06 00 00    	js     9abd <mp3dec_decode_frame+0x5cfd>
                scf_size[i] = (uint8_t)(sfc / modprod % g_mod[k + i]);
    94bc:	8d 78 0b             	lea    0xb(%rax),%edi
    94bf:	44 8d 40 09          	lea    0x9(%rax),%r8d
    94c3:	48 63 f6             	movslq %esi,%rsi
        for (k = ist*3*4; sfc >= 0; sfc -= modprod, k += 4)
    94c6:	41 89 cf             	mov    %ecx,%r15d
                scf_size[i] = (uint8_t)(sfc / modprod % g_mod[k + i]);
    94c9:	48 63 ff             	movslq %edi,%rdi
    94cc:	4d 63 c0             	movslq %r8d,%r8
    94cf:	44 0f b6 1c 32       	movzbl (%rdx,%rsi,1),%r11d
        for (k = ist*3*4; sfc >= 0; sfc -= modprod, k += 4)
    94d4:	8d 70 0c             	lea    0xc(%rax),%esi
                scf_size[i] = (uint8_t)(sfc / modprod % g_mod[k + i]);
    94d7:	44 0f b6 2c 3a       	movzbl (%rdx,%rdi,1),%r13d
    94dc:	8d 78 0a             	lea    0xa(%rax),%edi
    94df:	46 0f b6 04 02       	movzbl (%rdx,%r8,1),%r8d
    94e4:	48 63 ff             	movslq %edi,%rdi
    94e7:	0f b6 3c 3a          	movzbl (%rdx,%rdi,1),%edi
                modprod *= g_mod[k + i];
    94eb:	44 89 c5             	mov    %r8d,%ebp
    94ee:	41 89 fa             	mov    %edi,%r10d
    94f1:	45 0f af d5          	imul   %r13d,%r10d
    94f5:	41 0f af ea          	imul   %r10d,%ebp
    94f9:	41 89 ee             	mov    %ebp,%r14d
    94fc:	45 0f af f3          	imul   %r11d,%r14d
        for (k = ist*3*4; sfc >= 0; sfc -= modprod, k += 4)
    9500:	45 29 f7             	sub    %r14d,%r15d
    9503:	0f 88 c7 00 00 00    	js     95d0 <mp3dec_decode_frame+0x5810>
                scf_size[i] = (uint8_t)(sfc / modprod % g_mod[k + i]);
    9509:	8d 48 0f             	lea    0xf(%rax),%ecx
    950c:	48 63 f6             	movslq %esi,%rsi
        for (k = ist*3*4; sfc >= 0; sfc -= modprod, k += 4)
    950f:	45 89 fc             	mov    %r15d,%r12d
                scf_size[i] = (uint8_t)(sfc / modprod % g_mod[k + i]);
    9512:	48 63 c9             	movslq %ecx,%rcx
    9515:	44 0f b6 1c 32       	movzbl (%rdx,%rsi,1),%r11d
        for (k = ist*3*4; sfc >= 0; sfc -= modprod, k += 4)
    951a:	8d 70 10             	lea    0x10(%rax),%esi
                scf_size[i] = (uint8_t)(sfc / modprod % g_mod[k + i]);
    951d:	44 0f b6 2c 0a       	movzbl (%rdx,%rcx,1),%r13d
    9522:	8d 48 0e             	lea    0xe(%rax),%ecx
    9525:	48 63 c9             	movslq %ecx,%rcx
    9528:	0f b6 3c 0a          	movzbl (%rdx,%rcx,1),%edi
    952c:	8d 48 0d             	lea    0xd(%rax),%ecx
                modprod *= g_mod[k + i];
    952f:	45 89 ea             	mov    %r13d,%r10d
                scf_size[i] = (uint8_t)(sfc / modprod % g_mod[k + i]);
    9532:	48 63 c9             	movslq %ecx,%rcx
    9535:	44 0f b6 04 0a       	movzbl (%rdx,%rcx,1),%r8d
                modprod *= g_mod[k + i];
    953a:	44 0f af d7          	imul   %edi,%r10d
    953e:	44 89 c5             	mov    %r8d,%ebp
    9541:	41 0f af ea          	imul   %r10d,%ebp
    9545:	89 e9                	mov    %ebp,%ecx
    9547:	41 0f af cb          	imul   %r11d,%ecx
        for (k = ist*3*4; sfc >= 0; sfc -= modprod, k += 4)
    954b:	41 29 cc             	sub    %ecx,%r12d
    954e:	0f 88 69 05 00 00    	js     9abd <mp3dec_decode_frame+0x5cfd>
                scf_size[i] = (uint8_t)(sfc / modprod % g_mod[k + i]);
    9554:	8d 48 13             	lea    0x13(%rax),%ecx
    9557:	48 63 f6             	movslq %esi,%rsi
    955a:	48 63 c9             	movslq %ecx,%rcx
    955d:	44 0f b6 1c 32       	movzbl (%rdx,%rsi,1),%r11d
        for (k = ist*3*4; sfc >= 0; sfc -= modprod, k += 4)
    9562:	8d 70 14             	lea    0x14(%rax),%esi
                scf_size[i] = (uint8_t)(sfc / modprod % g_mod[k + i]);
    9565:	44 0f b6 2c 0a       	movzbl (%rdx,%rcx,1),%r13d
    956a:	8d 48 12             	lea    0x12(%rax),%ecx
    956d:	48 63 c9             	movslq %ecx,%rcx
    9570:	0f b6 3c 0a          	movzbl (%rdx,%rcx,1),%edi
    9574:	8d 48 11             	lea    0x11(%rax),%ecx
                modprod *= g_mod[k + i];
    9577:	45 89 ea             	mov    %r13d,%r10d
                scf_size[i] = (uint8_t)(sfc / modprod % g_mod[k + i]);
    957a:	48 63 c9             	movslq %ecx,%rcx
    957d:	44 0f b6 04 0a       	movzbl (%rdx,%rcx,1),%r8d
                modprod *= g_mod[k + i];
    9582:	44 0f af d7          	imul   %edi,%r10d
        for (k = ist*3*4; sfc >= 0; sfc -= modprod, k += 4)
    9586:	44 89 e1             	mov    %r12d,%ecx
                modprod *= g_mod[k + i];
    9589:	44 89 c5             	mov    %r8d,%ebp
    958c:	41 0f af ea          	imul   %r10d,%ebp
    9590:	41 89 ee             	mov    %ebp,%r14d
    9593:	45 0f af f3          	imul   %r11d,%r14d
        for (k = ist*3*4; sfc >= 0; sfc -= modprod, k += 4)
    9597:	44 29 f1             	sub    %r14d,%ecx
    959a:	0f 88 8a 0b 00 00    	js     a12a <mp3dec_decode_frame+0x636a>
                scf_size[i] = (uint8_t)(sfc / modprod % g_mod[k + i]);
    95a0:	8d 78 16             	lea    0x16(%rax),%edi
    95a3:	44 8d 40 15          	lea    0x15(%rax),%r8d
    95a7:	48 63 f6             	movslq %esi,%rsi
    95aa:	41 bd 01 00 00 00    	mov    $0x1,%r13d
    95b0:	48 63 ff             	movslq %edi,%rdi
    95b3:	4d 63 c0             	movslq %r8d,%r8
    95b6:	44 0f b6 1c 32       	movzbl (%rdx,%rsi,1),%r11d
        for (k = ist*3*4; sfc >= 0; sfc -= modprod, k += 4)
    95bb:	8d 70 18             	lea    0x18(%rax),%esi
                scf_size[i] = (uint8_t)(sfc / modprod % g_mod[k + i]);
    95be:	0f b6 3c 3a          	movzbl (%rdx,%rdi,1),%edi
    95c2:	46 0f b6 04 02       	movzbl (%rdx,%r8,1),%r8d
                modprod *= g_mod[k + i];
    95c7:	89 fd                	mov    %edi,%ebp
    95c9:	41 89 fa             	mov    %edi,%r10d
    95cc:	41 0f af e8          	imul   %r8d,%ebp
        for (k = ist*3*4; sfc >= 0; sfc -= modprod, k += 4)
    95d0:	89 c8                	mov    %ecx,%eax
        scf_partition += k;
    95d2:	48 63 f6             	movslq %esi,%rsi
    95d5:	48 01 74 24 20       	add    %rsi,0x20(%rsp)
    95da:	99                   	cltd
    95db:	41 f7 fd             	idiv   %r13d
    95de:	41 89 c5             	mov    %eax,%r13d
                scf_size[i] = (uint8_t)(sfc / modprod % g_mod[k + i]);
    95e1:	89 c8                	mov    %ecx,%eax
    95e3:	41 89 d6             	mov    %edx,%r14d
    95e6:	99                   	cltd
    95e7:	f7 fd                	idiv   %ebp
    95e9:	99                   	cltd
    95ea:	41 f7 fb             	idiv   %r11d
    95ed:	89 c8                	mov    %ecx,%eax
    95ef:	89 d5                	mov    %edx,%ebp
    95f1:	99                   	cltd
    95f2:	41 f7 fa             	idiv   %r10d
    95f5:	99                   	cltd
    95f6:	41 f7 f8             	idiv   %r8d
    95f9:	44 89 e8             	mov    %r13d,%eax
    95fc:	89 d1                	mov    %edx,%ecx
    95fe:	99                   	cltd
    95ff:	f7 ff                	idiv   %edi
    9601:	41 0f b6 c6          	movzbl %r14b,%eax
        scfsi = -16;
    9605:	bf f0 ff ff ff       	mov    $0xfffffff0,%edi
    960a:	c1 e0 08             	shl    $0x8,%eax
    960d:	0f b6 d2             	movzbl %dl,%edx
    9610:	09 d0                	or     %edx,%eax
    9612:	0f b6 d1             	movzbl %cl,%edx
    9615:	c1 e0 08             	shl    $0x8,%eax
    9618:	09 d0                	or     %edx,%eax
    961a:	40 0f b6 d5          	movzbl %bpl,%edx
    961e:	c1 e0 08             	shl    $0x8,%eax
    9621:	09 d0                	or     %edx,%eax
    9623:	e9 6f d2 ff ff       	jmp    6897 <mp3dec_decode_frame+0x2ad7>
    9628:	48 8d 04 c9          	lea    (%rcx,%rcx,8),%rax
    962c:	48 89 6c 24 70       	mov    %rbp,0x70(%rsp)
    9631:	4d 8d 24 c2          	lea    (%r10,%rax,8),%r12
    9635:	48 8d 84 24 70 04 00 	lea    0x470(%rsp),%rax
    963c:	00 
    963d:	48 89 44 24 40       	mov    %rax,0x40(%rsp)
    9642:	48 8d 84 24 74 04 00 	lea    0x474(%rsp),%rax
    9649:	00 
    964a:	4c 89 e5             	mov    %r12,%rbp
    964d:	49 89 dc             	mov    %rbx,%r12
    9650:	48 89 44 24 20       	mov    %rax,0x20(%rsp)
    9655:	48 8d 84 24 78 04 00 	lea    0x478(%rsp),%rax
    965c:	00 
    965d:	4c 89 d3             	mov    %r10,%rbx
    9660:	48 89 44 24 30       	mov    %rax,0x30(%rsp)
    9665:	f3 0f 6f 13          	movdqu (%rbx),%xmm2
    9669:	48 8b 43 40          	mov    0x40(%rbx),%rax
    966d:	4c 89 e9             	mov    %r13,%rcx
    9670:	4c 89 f6             	mov    %r14,%rsi
    9673:	48 89 df             	mov    %rbx,%rdi
    9676:	ba 18 00 00 00       	mov    $0x18,%edx
    967b:	0f 29 94 24 70 04 00 	movaps %xmm2,0x470(%rsp)
    9682:	00 
    9683:	f3 0f 6f 53 10       	movdqu 0x10(%rbx),%xmm2
    9688:	48 89 84 24 b0 04 00 	mov    %rax,0x4b0(%rsp)
    968f:	00 
    9690:	0f 29 94 24 80 04 00 	movaps %xmm2,0x480(%rsp)
    9697:	00 
    9698:	f3 0f 6f 53 20       	movdqu 0x20(%rbx),%xmm2
    969d:	0f 29 94 24 90 04 00 	movaps %xmm2,0x490(%rsp)
    96a4:	00 
    96a5:	f3 0f 6f 53 30       	movdqu 0x30(%rbx),%xmm2
    96aa:	0f 29 94 24 a0 04 00 	movaps %xmm2,0x4a0(%rsp)
    96b1:	00 
    96b2:	e8 09 8e ff ff       	call   24c0 <__memcpy_chk@plt>
        L3_imdct12(tmp, grbuf + 6, overlap + 6);
    96b7:	48 8b 7c 24 40       	mov    0x40(%rsp),%rdi
    96bc:	49 8d 56 18          	lea    0x18(%r14),%rdx
    96c0:	48 8d 73 18          	lea    0x18(%rbx),%rsi
    96c4:	e8 f7 9c ff ff       	call   33c0 <L3_imdct12>
        L3_imdct12(tmp + 1, grbuf + 12, overlap + 6);
    96c9:	48 8b 7c 24 20       	mov    0x20(%rsp),%rdi
    96ce:	48 8d 73 30          	lea    0x30(%rbx),%rsi
    96d2:	e8 e9 9c ff ff       	call   33c0 <L3_imdct12>
        L3_imdct12(tmp + 2, overlap, overlap + 6);
    96d7:	48 8b 7c 24 30       	mov    0x30(%rsp),%rdi
    96dc:	4c 89 f6             	mov    %r14,%rsi
    for (;nbands > 0; nbands--, overlap += 9, grbuf += 18)
    96df:	49 83 c6 24          	add    $0x24,%r14
        L3_imdct12(tmp + 2, overlap, overlap + 6);
    96e3:	e8 d8 9c ff ff       	call   33c0 <L3_imdct12>
    for (;nbands > 0; nbands--, overlap += 9, grbuf += 18)
    96e8:	b8 80 3f 00 00       	mov    $0x3f80,%eax
    96ed:	0f 28 0d 2c 80 00 00 	movaps 0x802c(%rip),%xmm1        # 11720 <g_pow43+0x300>
    96f4:	f3 44 0f 10 05 83 7f 	movss  0x7f83(%rip),%xmm8        # 11680 <g_pow43+0x260>
    96fb:	00 00 
    96fd:	49 39 c5             	cmp    %rax,%r13
    9700:	49 0f 43 c5          	cmovae %r13,%rax
    9704:	48 89 c2             	mov    %rax,%rdx
    9707:	4c 29 ea             	sub    %r13,%rdx
    970a:	48 83 c2 48          	add    $0x48,%rdx
    970e:	48 39 c2             	cmp    %rax,%rdx
    9711:	48 0f 42 d0          	cmovb  %rax,%rdx
    9715:	48 83 c3 48          	add    $0x48,%rbx
    9719:	49 29 c5             	sub    %rax,%r13
    971c:	48 39 eb             	cmp    %rbp,%rbx
    971f:	4d 8d 6c 15 b8       	lea    -0x48(%r13,%rdx,1),%r13
    9724:	0f 85 3b ff ff ff    	jne    9665 <mp3dec_decode_frame+0x58a5>
    972a:	48 8b 6c 24 70       	mov    0x70(%rsp),%rbp
    972f:	4c 89 e3             	mov    %r12,%rbx
    9732:	e9 2a e9 ff ff       	jmp    8061 <mp3dec_decode_frame+0x42a1>
            L3_reorder(s->grbuf[ch] + n_long_bands*18, s->syn[0], gr_info->sfbtab + gr_info->n_long_sfb);
    9737:	41 0f b6 47 11       	movzbl 0x11(%r15),%eax
    973c:	49 03 07             	add    (%r15),%rax
            aa_bands = n_long_bands - 1;
    973f:	44 8d 46 ff          	lea    -0x1(%rsi),%r8d
            L3_reorder(s->grbuf[ch] + n_long_bands*18, s->syn[0], gr_info->sfbtab + gr_info->n_long_sfb);
    9743:	49 89 c6             	mov    %rax,%r14
    9746:	49 89 c3             	mov    %rax,%r11
    9749:	8d 04 f6             	lea    (%rsi,%rsi,8),%eax
    974c:	be 80 3f 00 00       	mov    $0x3f80,%esi
    9751:	01 c0                	add    %eax,%eax
    9753:	48 8b 7c 24 20       	mov    0x20(%rsp),%rdi
    9758:	48 98                	cltq
    975a:	48 c1 e0 02          	shl    $0x2,%rax
    975e:	49 39 f5             	cmp    %rsi,%r13
    9761:	49 0f 43 f5          	cmovae %r13,%rsi
    9765:	48 29 fa             	sub    %rdi,%rdx
    9768:	49 8d 3c 02          	lea    (%r10,%rax,1),%rdi
    for (;0 != (len = *sfb); sfb += 3, src += 2*len)
    976c:	48 8d 0c 30          	lea    (%rax,%rsi,1),%rcx
    9770:	41 0f b6 06          	movzbl (%r14),%eax
    float *src = grbuf, *dst = scratch;
    9774:	4c 8b b4 24 08 04 00 	mov    0x408(%rsp),%r14
    977b:	00 
    977c:	48 01 ca             	add    %rcx,%rdx
    977f:	48 39 f2             	cmp    %rsi,%rdx
    9782:	48 0f 42 d6          	cmovb  %rsi,%rdx
    9786:	4c 89 ee             	mov    %r13,%rsi
    9789:	48 29 ce             	sub    %rcx,%rsi
    978c:	48 89 f9             	mov    %rdi,%rcx
    978f:	48 01 d6             	add    %rdx,%rsi
    for (;0 != (len = *sfb); sfb += 3, src += 2*len)
    9792:	48 89 c2             	mov    %rax,%rdx
    9795:	85 c0                	test   %eax,%eax
    9797:	0f 84 d4 03 00 00    	je     9b71 <mp3dec_decode_frame+0x5db1>
    979d:	4c 89 6c 24 30       	mov    %r13,0x30(%rsp)
    97a2:	44 89 44 24 40       	mov    %r8d,0x40(%rsp)
    97a7:	44 89 64 24 70       	mov    %r12d,0x70(%rsp)
    97ac:	48 89 bc 24 80 00 00 	mov    %rdi,0x80(%rsp)
    97b3:	00 
    97b4:	4c 89 bc 24 90 00 00 	mov    %r15,0x90(%rsp)
    97bb:	00 
    97bc:	4c 89 94 24 a0 00 00 	mov    %r10,0xa0(%rsp)
    97c3:	00 
    97c4:	48 89 b4 24 b0 00 00 	mov    %rsi,0xb0(%rsp)
    97cb:	00 
    97cc:	48 89 ac 24 c0 00 00 	mov    %rbp,0xc0(%rsp)
    97d3:	00 
    97d4:	48 89 9c 24 d0 00 00 	mov    %rbx,0xd0(%rsp)
    97db:	00 
    97dc:	4c 89 db             	mov    %r11,%rbx
        for (i = 0; i < len; i++, src++)
    97df:	8d 70 ff             	lea    -0x1(%rax),%esi
            *dst++ = src[2*len];
    97e2:	8d 3c 00             	lea    (%rax,%rax,1),%edi
    97e5:	48 63 ff             	movslq %edi,%rdi
    97e8:	83 fe 02             	cmp    $0x2,%esi
            *dst++ = src[1*len];
    97eb:	4c 8d 2c 95 00 00 00 	lea    0x0(,%rdx,4),%r13
    97f2:	00 
    97f3:	48 63 f0             	movslq %eax,%rsi
            *dst++ = src[2*len];
    97f6:	4c 8d 14 bd 00 00 00 	lea    0x0(,%rdi,4),%r10
    97fd:	00 
    97fe:	0f 86 24 02 00 00    	jbe    9a28 <mp3dec_decode_frame+0x5c68>
    9804:	4c 8d 1c 37          	lea    (%rdi,%rsi,1),%r11
    9808:	4c 8d 04 76          	lea    (%rsi,%rsi,2),%r8
    980c:	4e 8d 1c 99          	lea    (%rcx,%r11,4),%r11
    9810:	4f 8d 24 86          	lea    (%r14,%r8,4),%r12
    9814:	4d 39 de             	cmp    %r11,%r14
    9817:	4e 8d 04 11          	lea    (%rcx,%r10,1),%r8
    981b:	4e 8d 0c 29          	lea    (%rcx,%r13,1),%r9
    981f:	40 0f 93 c5          	setae  %bpl
    9823:	4d 39 e0             	cmp    %r12,%r8
    9826:	41 0f 93 c3          	setae  %r11b
    982a:	44 09 dd             	or     %r11d,%ebp
    982d:	4c 8d 1c 32          	lea    (%rdx,%rsi,1),%r11
    9831:	4e 8d 1c 99          	lea    (%rcx,%r11,4),%r11
    9835:	4d 39 de             	cmp    %r11,%r14
    9838:	41 0f 93 c3          	setae  %r11b
    983c:	4d 39 e1             	cmp    %r12,%r9
    983f:	41 0f 93 c7          	setae  %r15b
    9843:	45 09 fb             	or     %r15d,%r11d
    9846:	44 84 dd             	test   %r11b,%bpl
    9849:	0f 84 d9 01 00 00    	je     9a28 <mp3dec_decode_frame+0x5c68>
    984f:	4c 8d 1c b1          	lea    (%rcx,%rsi,4),%r11
    9853:	4d 39 de             	cmp    %r11,%r14
    9856:	41 0f 93 c3          	setae  %r11b
    985a:	4c 39 e1             	cmp    %r12,%rcx
    985d:	40 0f 93 c5          	setae  %bpl
    9861:	44 08 dd             	or     %r11b,%bpl
    9864:	0f 84 be 01 00 00    	je     9a28 <mp3dec_decode_frame+0x5c68>
    986a:	89 c5                	mov    %eax,%ebp
    986c:	4d 89 f3             	mov    %r14,%r11
    986f:	31 f6                	xor    %esi,%esi
    9871:	c1 ed 02             	shr    $0x2,%ebp
    9874:	48 c1 e5 04          	shl    $0x4,%rbp
            *dst++ = src[0*len];
    9878:	0f 10 1c 31          	movups (%rcx,%rsi,1),%xmm3
            *dst++ = src[1*len];
    987c:	41 0f 10 24 31       	movups (%r9,%rsi,1),%xmm4
            *dst++ = src[2*len];
    9881:	49 83 c3 30          	add    $0x30,%r11
    9885:	41 0f 10 04 30       	movups (%r8,%rsi,1),%xmm0
    988a:	48 83 c6 10          	add    $0x10,%rsi
    988e:	0f 28 d3             	movaps %xmm3,%xmm2
    9891:	0f 14 d4             	unpcklps %xmm4,%xmm2
    9894:	0f 28 e8             	movaps %xmm0,%xmm5
    9897:	0f c6 d2 84          	shufps $0x84,%xmm2,%xmm2
    989b:	0f c6 ea f0          	shufps $0xf0,%xmm2,%xmm5
    989f:	0f c6 d5 84          	shufps $0x84,%xmm5,%xmm2
    98a3:	0f 28 e8             	movaps %xmm0,%xmm5
    98a6:	41 0f 11 53 d0       	movups %xmm2,-0x30(%r11)
    98ab:	0f 28 d4             	movaps %xmm4,%xmm2
    98ae:	0f c6 e3 0f          	shufps $0xf,%xmm3,%xmm4
    98b2:	0f c6 d3 89          	shufps $0x89,%xmm3,%xmm2
    98b6:	0f c6 dc 8c          	shufps $0x8c,%xmm4,%xmm3
    98ba:	0f c6 d2 78          	shufps $0x78,%xmm2,%xmm2
    98be:	0f c6 c3 9e          	shufps $0x9e,%xmm3,%xmm0
    98c2:	0f c6 ea 05          	shufps $0x5,%xmm2,%xmm5
    98c6:	0f c6 c0 78          	shufps $0x78,%xmm0,%xmm0
    98ca:	0f c6 ea e2          	shufps $0xe2,%xmm2,%xmm5
    98ce:	41 0f 11 43 f0       	movups %xmm0,-0x10(%r11)
    98d3:	41 0f 11 6b e0       	movups %xmm5,-0x20(%r11)
    98d8:	48 39 ee             	cmp    %rbp,%rsi
    98db:	75 9b                	jne    9878 <mp3dec_decode_frame+0x5ab8>
    98dd:	41 89 c1             	mov    %eax,%r9d
    98e0:	41 83 e1 fc          	and    $0xfffffffc,%r9d
    98e4:	44 89 ce             	mov    %r9d,%esi
    98e7:	4c 8d 04 b1          	lea    (%rcx,%rsi,4),%r8
    98eb:	48 8d 34 76          	lea    (%rsi,%rsi,2),%rsi
    98ef:	49 8d 34 b6          	lea    (%r14,%rsi,4),%rsi
    98f3:	41 39 c1             	cmp    %eax,%r9d
    98f6:	74 76                	je     996e <mp3dec_decode_frame+0x5bae>
            *dst++ = src[0*len];
    98f8:	f3 41 0f 10 00       	movss  (%r8),%xmm0
    98fd:	f3 0f 11 06          	movss  %xmm0,(%rsi)
            *dst++ = src[1*len];
    9901:	f3 41 0f 10 04 90    	movss  (%r8,%rdx,4),%xmm0
        for (i = 0; i < len; i++, src++)
    9907:	41 8d 51 01          	lea    0x1(%r9),%edx
            *dst++ = src[1*len];
    990b:	f3 0f 11 46 04       	movss  %xmm0,0x4(%rsi)
            *dst++ = src[2*len];
    9910:	f3 41 0f 10 04 b8    	movss  (%r8,%rdi,4),%xmm0
    9916:	f3 0f 11 46 08       	movss  %xmm0,0x8(%rsi)
        for (i = 0; i < len; i++, src++)
    991b:	39 c2                	cmp    %eax,%edx
    991d:	7d 4f                	jge    996e <mp3dec_decode_frame+0x5bae>
            *dst++ = src[0*len];
    991f:	f3 41 0f 10 40 04    	movss  0x4(%r8),%xmm0
        for (i = 0; i < len; i++, src++)
    9925:	41 83 c1 02          	add    $0x2,%r9d
            *dst++ = src[0*len];
    9929:	f3 0f 11 46 0c       	movss  %xmm0,0xc(%rsi)
            *dst++ = src[1*len];
    992e:	f3 43 0f 10 44 28 04 	movss  0x4(%r8,%r13,1),%xmm0
    9935:	f3 0f 11 46 10       	movss  %xmm0,0x10(%rsi)
            *dst++ = src[2*len];
    993a:	f3 43 0f 10 44 10 04 	movss  0x4(%r8,%r10,1),%xmm0
    9941:	f3 0f 11 46 14       	movss  %xmm0,0x14(%rsi)
        for (i = 0; i < len; i++, src++)
    9946:	41 39 c1             	cmp    %eax,%r9d
    9949:	7d 23                	jge    996e <mp3dec_decode_frame+0x5bae>
            *dst++ = src[0*len];
    994b:	f3 41 0f 10 40 08    	movss  0x8(%r8),%xmm0
    9951:	f3 0f 11 46 18       	movss  %xmm0,0x18(%rsi)
            *dst++ = src[1*len];
    9956:	f3 43 0f 10 44 28 08 	movss  0x8(%r8,%r13,1),%xmm0
    995d:	f3 0f 11 46 1c       	movss  %xmm0,0x1c(%rsi)
            *dst++ = src[2*len];
    9962:	f3 43 0f 10 44 10 08 	movss  0x8(%r8,%r10,1),%xmm0
    9969:	f3 0f 11 46 20       	movss  %xmm0,0x20(%rsi)
        for (i = 0; i < len; i++, src++)
    996e:	89 c0                	mov    %eax,%eax
    for (;0 != (len = *sfb); sfb += 3, src += 2*len)
    9970:	48 83 c3 03          	add    $0x3,%rbx
    9974:	48 8d 14 40          	lea    (%rax,%rax,2),%rdx
    9978:	49 8d 04 82          	lea    (%r10,%rax,4),%rax
    997c:	48 01 c1             	add    %rax,%rcx
    997f:	0f b6 03             	movzbl (%rbx),%eax
    9982:	4d 8d 34 96          	lea    (%r14,%rdx,4),%r14
    9986:	48 89 c2             	mov    %rax,%rdx
    9989:	85 c0                	test   %eax,%eax
    998b:	0f 85 4e fe ff ff    	jne    97df <mp3dec_decode_frame+0x5a1f>
    memcpy(grbuf, scratch, (dst - scratch)*sizeof(float));
    9991:	48 8b 84 24 08 04 00 	mov    0x408(%rsp),%rax
    9998:	00 
    9999:	4c 89 f2             	mov    %r14,%rdx
    999c:	4c 8b 6c 24 30       	mov    0x30(%rsp),%r13
    99a1:	44 8b 44 24 40       	mov    0x40(%rsp),%r8d
    99a6:	44 8b 64 24 70       	mov    0x70(%rsp),%r12d
    99ab:	48 8b bc 24 80 00 00 	mov    0x80(%rsp),%rdi
    99b2:	00 
    99b3:	4c 8b bc 24 90 00 00 	mov    0x90(%rsp),%r15
    99ba:	00 
    99bb:	48 29 c2             	sub    %rax,%rdx
    99be:	4c 8b 94 24 a0 00 00 	mov    0xa0(%rsp),%r10
    99c5:	00 
    99c6:	48 8b b4 24 b0 00 00 	mov    0xb0(%rsp),%rsi
    99cd:	00 
    99ce:	48 8b ac 24 c0 00 00 	mov    0xc0(%rsp),%rbp
    99d5:	00 
    99d6:	48 8b 9c 24 d0 00 00 	mov    0xd0(%rsp),%rbx
    99dd:	00 
    99de:	48 89 f1             	mov    %rsi,%rcx
    99e1:	48 8b b4 24 08 04 00 	mov    0x408(%rsp),%rsi
    99e8:	00 
    99e9:	4c 89 54 24 40       	mov    %r10,0x40(%rsp)
    99ee:	44 89 44 24 30       	mov    %r8d,0x30(%rsp)
    99f3:	e8 c8 8a ff ff       	call   24c0 <__memcpy_chk@plt>
    for (; nbands > 0; nbands--, grbuf += 18)
    99f8:	44 8b 44 24 30       	mov    0x30(%rsp),%r8d
    99fd:	4c 8b 54 24 40       	mov    0x40(%rsp),%r10
    9a02:	0f 28 0d 17 7d 00 00 	movaps 0x7d17(%rip),%xmm1        # 11720 <g_pow43+0x300>
    9a09:	45 85 c0             	test   %r8d,%r8d
    9a0c:	0f 8f f8 e4 ff ff    	jg     7f0a <mp3dec_decode_frame+0x414a>
        L3_imdct_gr(s->grbuf[ch], h->mdct_overlap[ch], gr_info->block_type, n_long_bands);
    9a12:	4c 8b 74 24 10       	mov    0x10(%rsp),%r14
    9a17:	45 0f b6 47 0f       	movzbl 0xf(%r15),%r8d
    9a1c:	31 c0                	xor    %eax,%eax
    9a1e:	e9 f6 e5 ff ff       	jmp    8019 <mp3dec_decode_frame+0x4259>
    9a23:	0f 1f 44 00 00       	nopl   0x0(%rax,%rax,1)
    9a28:	4c 8d 0c b1          	lea    (%rcx,%rsi,4),%r9
    int i = 0;
    9a2c:	4d 89 f0             	mov    %r14,%r8
    9a2f:	48 89 cf             	mov    %rcx,%rdi
    9a32:	66 0f 1f 44 00 00    	nopw   0x0(%rax,%rax,1)
            *dst++ = src[0*len];
    9a38:	f3 0f 10 07          	movss  (%rdi),%xmm0
            *dst++ = src[2*len];
    9a3c:	49 83 c0 0c          	add    $0xc,%r8
            *dst++ = src[0*len];
    9a40:	f3 41 0f 11 40 f4    	movss  %xmm0,-0xc(%r8)
            *dst++ = src[1*len];
    9a46:	f3 0f 10 04 97       	movss  (%rdi,%rdx,4),%xmm0
    9a4b:	f3 41 0f 11 40 f8    	movss  %xmm0,-0x8(%r8)
            *dst++ = src[2*len];
    9a51:	f3 0f 10 04 f7       	movss  (%rdi,%rsi,8),%xmm0
        for (i = 0; i < len; i++, src++)
    9a56:	48 83 c7 04          	add    $0x4,%rdi
            *dst++ = src[2*len];
    9a5a:	f3 41 0f 11 40 fc    	movss  %xmm0,-0x4(%r8)
        for (i = 0; i < len; i++, src++)
    9a60:	49 39 f9             	cmp    %rdi,%r9
    9a63:	75 d3                	jne    9a38 <mp3dec_decode_frame+0x5c78>
    9a65:	e9 04 ff ff ff       	jmp    996e <mp3dec_decode_frame+0x5bae>
    while (big_val_cnt > 0)
    9a6a:	4c 8b 84 24 20 01 00 	mov    0x120(%rsp),%r8
    9a71:	00 
    float one = 0.0f;
    9a72:	66 0f ef c9          	pxor   %xmm1,%xmm1
    9a76:	e9 b3 e1 ff ff       	jmp    7c2e <mp3dec_decode_frame+0x3e6e>
    9a7b:	48 8b 02             	mov    (%rdx),%rax
    9a7e:	48 8b 9c 24 20 04 00 	mov    0x420(%rsp),%rbx
    9a85:	00 
    9a86:	48 89 03             	mov    %rax,(%rbx)
    9a89:	48 8b 84 24 28 47 00 	mov    0x4728(%rsp),%rax
    9a90:	00 
    9a91:	48 8d 7b 08          	lea    0x8(%rbx),%rdi
    9a95:	48 83 e7 f8          	and    $0xfffffffffffffff8,%rdi
    9a99:	48 89 83 f8 0e 00 00 	mov    %rax,0xef8(%rbx)
    9aa0:	48 89 d8             	mov    %rbx,%rax
    9aa3:	48 29 f8             	sub    %rdi,%rax
    9aa6:	48 29 c2             	sub    %rax,%rdx
    9aa9:	8d 88 00 0f 00 00    	lea    0xf00(%rax),%ecx
    9aaf:	48 89 d6             	mov    %rdx,%rsi
    9ab2:	c1 e9 03             	shr    $0x3,%ecx
    9ab5:	f3 48 a5             	rep movsq %ds:(%rsi),%es:(%rdi)
    9ab8:	e9 3d f8 ff ff       	jmp    92fa <mp3dec_decode_frame+0x553a>
        for (k = ist*3*4; sfc >= 0; sfc -= modprod, k += 4)
    9abd:	44 89 f9             	mov    %r15d,%ecx
    9ac0:	e9 0b fb ff ff       	jmp    95d0 <mp3dec_decode_frame+0x5810>
    9ac5:	8b 5c 24 70          	mov    0x70(%rsp),%ebx
    9ac9:	8d 53 cf             	lea    -0x31(%rbx),%edx
    9acc:	83 fa 06             	cmp    $0x6,%edx
    9acf:	0f 86 4b 06 00 00    	jbe    a120 <mp3dec_decode_frame+0x6360>
        sci->scfcod[i] = sci->bitalloc[i] ? HDR_IS_LAYER_1(hdr) ? 2 : get_bits(bs, 2) : 6;
    9ad5:	b9 30 00 00 00       	mov    $0x30,%ecx
    9ada:	ba 30 00 00 00       	mov    $0x30,%edx
    9adf:	be 0c 00 00 00       	mov    $0xc,%esi
    9ae4:	e9 d1 d9 ff ff       	jmp    74ba <mp3dec_decode_frame+0x36fa>
    if (remains > 0)
    9ae9:	85 d2                	test   %edx,%edx
    9aeb:	0f 8e 01 dd ff ff    	jle    77f2 <mp3dec_decode_frame+0x3a32>
        memmove(h->reserv_buf, s->maindata + pos, remains);
    9af1:	89 d1                	mov    %edx,%ecx
    9af3:	e9 c0 dc ff ff       	jmp    77b8 <mp3dec_decode_frame+0x39f8>
        } else if (kbps >= 96 && sample_rate_idx != 1)
    9af8:	c7 44 24 70 36 00 00 	movl   $0x36,0x70(%rsp)
    9aff:	00 
    9b00:	41 bc 1b 00 00 00    	mov    $0x1b,%r12d
        nbands = 27;
    9b06:	41 b8 1b 00 00 00    	mov    $0x1b,%r8d
        alloc = g_alloc_L2M1;
    9b0c:	4c 8d 15 ed 60 00 00 	lea    0x60ed(%rip),%r10        # fc00 <g_alloc_L2M1.4>
    9b13:	e9 6c db ff ff       	jmp    7684 <mp3dec_decode_frame+0x38c4>
    sci->total_bands = (uint8_t)nbands;
    9b18:	48 8d 1d 01 61 00 00 	lea    0x6101(%rip),%rbx        # fc20 <g_bitalloc_code_tab.7>
    int nbands, stereo_bands = (mode == MODE_MONO) ? 0 : (mode == MODE_JOINT_STEREO) ? (HDR_GET_STEREO_MODE_EXT(hdr) << 2) + 4 : 32;
    9b1f:	45 31 c9             	xor    %r9d,%r9d
    sci->stereo_bands = (uint8_t)MINIMP3_MIN(stereo_bands, nbands);
    9b22:	45 31 e4             	xor    %r12d,%r12d
    sci->total_bands = (uint8_t)nbands;
    9b25:	45 31 ed             	xor    %r13d,%r13d
    9b28:	b9 20 00 00 00       	mov    $0x20,%ecx
    9b2d:	48 89 5c 24 20       	mov    %rbx,0x20(%rsp)
        nbands = 32;
    9b32:	41 b8 20 00 00 00    	mov    $0x20,%r8d
        alloc = g_alloc_L1;
    9b38:	4c 8d 15 da 60 00 00 	lea    0x60da(%rip),%r10        # fc19 <g_alloc_L1.6>
    sci->total_bands = (uint8_t)nbands;
    9b3f:	66 89 8c 24 70 07 00 	mov    %cx,0x770(%rsp)
    9b46:	00 
    9b47:	48 8d ac 24 70 04 00 	lea    0x470(%rsp),%rbp
    9b4e:	00 
    9b4f:	c7 44 24 70 40 00 00 	movl   $0x40,0x70(%rsp)
    9b56:	00 
    9b57:	48 89 1c 24          	mov    %rbx,(%rsp)
    9b5b:	c7 44 24 10 00 00 00 	movl   $0x0,0x10(%rsp)
    9b62:	00 
    9b63:	e9 5d a9 ff ff       	jmp    44c5 <mp3dec_decode_frame+0x705>
            iscf[gr->n_long_sfb + i + 2] += gr->subblock_gain[2] << sh;
    9b68:	31 d2                	xor    %edx,%edx
        for (i = 0; i < gr->n_short_sfb; i += 3)
    9b6a:	31 c0                	xor    %eax,%eax
    9b6c:	e9 80 cf ff ff       	jmp    6af1 <mp3dec_decode_frame+0x2d31>
    for (;0 != (len = *sfb); sfb += 3, src += 2*len)
    9b71:	31 d2                	xor    %edx,%edx
    9b73:	e9 66 fe ff ff       	jmp    99de <mp3dec_decode_frame+0x5c1e>
    if (HDR_TEST_I_STEREO(h->header))
    9b78:	48 8b 84 24 f0 03 00 	mov    0x3f0(%rsp),%rax
    9b7f:	00 
    9b80:	0f b6 80 0b 18 00 00 	movzbl 0x180b(%rax),%eax
    9b87:	a8 10                	test   $0x10,%al
    9b89:	75 66                	jne    9bf1 <mp3dec_decode_frame+0x5e31>
    } else if (HDR_IS_MS_STEREO(h->header))
    9b8b:	83 e0 e0             	and    $0xffffffe0,%eax
    9b8e:	41 89 dd             	mov    %ebx,%r13d
    9b91:	3c 60                	cmp    $0x60,%al
    9b93:	0f 85 85 f6 ff ff    	jne    921e <mp3dec_decode_frame+0x545e>
    9b99:	48 8b 84 24 e0 03 00 	mov    0x3e0(%rsp),%rax
    9ba0:	00 
    9ba1:	48 8d 94 24 90 1c 00 	lea    0x1c90(%rsp),%rdx
    9ba8:	00 
  return *(__m128_u *)__P;
    9ba9:	0f 28 00             	movaps (%rax),%xmm0
  return (__m128) ((__v4sf)__A + (__v4sf)__B);
    9bac:	0f 28 88 00 09 00 00 	movaps 0x900(%rax),%xmm1
        for (; i < n - 3; i += 4)
    9bb3:	48 83 c0 10          	add    $0x10,%rax
    9bb7:	0f 58 c8             	addps  %xmm0,%xmm1
  return (__m128) ((__v4sf)__A - (__v4sf)__B);
    9bba:	0f 5c 80 f0 08 00 00 	subps  0x8f0(%rax),%xmm0
  *(__m128_u *)__P = __A;
    9bc1:	0f 29 48 f0          	movaps %xmm1,-0x10(%rax)
    9bc5:	0f 29 80 f0 08 00 00 	movaps %xmm0,0x8f0(%rax)
    9bcc:	48 39 d0             	cmp    %rdx,%rax
    9bcf:	75 d8                	jne    9ba9 <mp3dec_decode_frame+0x5de9>
    for (ch = 0; ch < nch; ch++, gr_info++)
    9bd1:	8b bc 24 a0 00 00 00 	mov    0xa0(%rsp),%edi
    9bd8:	85 ff                	test   %edi,%edi
    9bda:	0f 8f 60 e2 ff ff    	jg     7e40 <mp3dec_decode_frame+0x4080>
    9be0:	e9 53 e5 ff ff       	jmp    8138 <mp3dec_decode_frame+0x4378>
        } else if (kbps >= 96 && sample_rate_idx != 1)
    9be5:	41 83 f9 5f          	cmp    $0x5f,%r9d
    9be9:	0f 97 c1             	seta   %cl
    9bec:	e9 66 da ff ff       	jmp    7657 <mp3dec_decode_frame+0x3897>
    int max_band[3], n_sfb = gr->n_long_sfb + gr->n_short_sfb;
    9bf1:	48 8b 9c 24 d0 00 00 	mov    0xd0(%rsp),%rbx
    9bf8:	00 
    max_band[0] = max_band[1] = max_band[2] = -1;
    9bf9:	c7 84 24 78 04 00 00 	movl   $0xffffffff,0x478(%rsp)
    9c00:	ff ff ff ff 
    9c04:	48 c7 84 24 70 04 00 	movq   $0xffffffffffffffff,0x470(%rsp)
    9c0b:	00 ff ff ff ff 
    int max_band[3], n_sfb = gr->n_long_sfb + gr->n_short_sfb;
    9c10:	0f b6 53 12          	movzbl 0x12(%rbx),%edx
    9c14:	0f b6 4b 11          	movzbl 0x11(%rbx),%ecx
    L3_stereo_top_band(left + 576, gr->sfbtab, n_sfb, max_band);
    9c18:	4c 8b 1b             	mov    (%rbx),%r11
    int i, max_blocks = gr->n_short_sfb ? 3 : 1;
    9c1b:	80 fa 01             	cmp    $0x1,%dl
    int max_band[3], n_sfb = gr->n_long_sfb + gr->n_short_sfb;
    9c1e:	41 89 c8             	mov    %ecx,%r8d
    int i, max_blocks = gr->n_short_sfb ? 3 : 1;
    9c21:	19 f6                	sbb    %esi,%esi
    9c23:	83 e6 fe             	and    $0xfffffffe,%esi
    9c26:	83 c6 03             	add    $0x3,%esi
    for (i = 0; i < nbands; i++)
    9c29:	01 ca                	add    %ecx,%edx
    9c2b:	0f 84 5a 04 00 00    	je     a08b <mp3dec_decode_frame+0x62cb>
    9c31:	48 63 da             	movslq %edx,%rbx
    9c34:	31 ff                	xor    %edi,%edi
            if (right[k] != 0 || right[k + 1] != 0)
    9c36:	66 0f ef c0          	pxor   %xmm0,%xmm0
                max_band[i % 3] = i;
    9c3a:	41 be ab aa aa aa    	mov    $0xaaaaaaab,%r14d
    for (i = 0; i < nbands; i++)
    9c40:	4c 8d 94 24 90 1c 00 	lea    0x1c90(%rsp),%r10
    9c47:	00 
        for (k = 0; k < sfb[i]; k += 2)
    9c48:	45 0f b6 0c 3b       	movzbl (%r11,%rdi,1),%r9d
    9c4d:	45 84 c9             	test   %r9b,%r9b
    9c50:	74 4e                	je     9ca0 <mp3dec_decode_frame+0x5ee0>
    9c52:	41 0f b6 e9          	movzbl %r9b,%ebp
    9c56:	4c 89 d1             	mov    %r10,%rcx
    9c59:	83 ed 01             	sub    $0x1,%ebp
    9c5c:	d1 ed                	shr    $1,%ebp
    9c5e:	49 8d 6c ea 08       	lea    0x8(%r10,%rbp,8),%rbp
    9c63:	eb 15                	jmp    9c7a <mp3dec_decode_frame+0x5eba>
            if (right[k] != 0 || right[k + 1] != 0)
    9c65:	0f 2e 41 04          	ucomiss 0x4(%rcx),%xmm0
    9c69:	7a 16                	jp     9c81 <mp3dec_decode_frame+0x5ec1>
    9c6b:	75 14                	jne    9c81 <mp3dec_decode_frame+0x5ec1>
        for (k = 0; k < sfb[i]; k += 2)
    9c6d:	48 83 c1 08          	add    $0x8,%rcx
    9c71:	48 39 e9             	cmp    %rbp,%rcx
    9c74:	0f 84 e5 02 00 00    	je     9f5f <mp3dec_decode_frame+0x619f>
            if (right[k] != 0 || right[k + 1] != 0)
    9c7a:	0f 2e 01             	ucomiss (%rcx),%xmm0
    9c7d:	7a 02                	jp     9c81 <mp3dec_decode_frame+0x5ec1>
    9c7f:	74 e4                	je     9c65 <mp3dec_decode_frame+0x5ea5>
                max_band[i % 3] = i;
    9c81:	89 f9                	mov    %edi,%ecx
        right += sfb[i];
    9c83:	4f 8d 14 8a          	lea    (%r10,%r9,4),%r10
                max_band[i % 3] = i;
    9c87:	49 0f af ce          	imul   %r14,%rcx
    9c8b:	48 c1 e9 21          	shr    $0x21,%rcx
    9c8f:	8d 2c 49             	lea    (%rcx,%rcx,2),%ebp
    9c92:	89 f9                	mov    %edi,%ecx
    9c94:	29 e9                	sub    %ebp,%ecx
    9c96:	48 63 c9             	movslq %ecx,%rcx
    9c99:	89 bc 8c 70 04 00 00 	mov    %edi,0x470(%rsp,%rcx,4)
    for (i = 0; i < nbands; i++)
    9ca0:	48 83 c7 01          	add    $0x1,%rdi
    9ca4:	48 39 df             	cmp    %rbx,%rdi
    9ca7:	75 9f                	jne    9c48 <mp3dec_decode_frame+0x5e88>
        max_band[0] = max_band[1] = max_band[2] = MINIMP3_MAX(MINIMP3_MAX(max_band[0], max_band[1]), max_band[2]);
    9ca9:	8b bc 24 70 04 00 00 	mov    0x470(%rsp),%edi
    if (gr->n_long_sfb)
    9cb0:	45 84 c0             	test   %r8b,%r8b
    9cb3:	74 31                	je     9ce6 <mp3dec_decode_frame+0x5f26>
        max_band[0] = max_band[1] = max_band[2] = MINIMP3_MAX(MINIMP3_MAX(max_band[0], max_band[1]), max_band[2]);
    9cb5:	8b 8c 24 74 04 00 00 	mov    0x474(%rsp),%ecx
    9cbc:	39 cf                	cmp    %ecx,%edi
    9cbe:	0f 4d cf             	cmovge %edi,%ecx
    9cc1:	8b bc 24 78 04 00 00 	mov    0x478(%rsp),%edi
    9cc8:	39 f9                	cmp    %edi,%ecx
    9cca:	0f 4d f9             	cmovge %ecx,%edi
    9ccd:	66 0f 6e d7          	movd   %edi,%xmm2
    9cd1:	89 bc 24 78 04 00 00 	mov    %edi,0x478(%rsp)
    9cd8:	66 0f 70 c2 e0       	pshufd $0xe0,%xmm2,%xmm0
    9cdd:	66 0f d6 84 24 70 04 	movq   %xmm0,0x470(%rsp)
    9ce4:	00 00 
    for (i = 0; i < max_blocks; i++)
    9ce6:	48 8b 9c 24 f0 03 00 	mov    0x3f0(%rsp),%rbx
    9ced:	00 
    9cee:	0f b6 ab 09 18 00 00 	movzbl 0x1809(%rbx),%ebp
    9cf5:	89 eb                	mov    %ebp,%ebx
    9cf7:	83 e3 08             	and    $0x8,%ebx
        ist_pos[itop] = max_band[i] >= prev ? default_pos : ist_pos[prev];
    9cfa:	89 d9                	mov    %ebx,%ecx
    9cfc:	f6 d9                	neg    %cl
    9cfe:	18 c9                	sbb    %cl,%cl
        int itop = n_sfb - max_blocks + i;
    9d00:	29 f2                	sub    %esi,%edx
        ist_pos[itop] = max_band[i] >= prev ? default_pos : ist_pos[prev];
    9d02:	83 e1 03             	and    $0x3,%ecx
        int prev = itop - max_blocks;
    9d05:	41 89 d2             	mov    %edx,%r10d
        ist_pos[itop] = max_band[i] >= prev ? default_pos : ist_pos[prev];
    9d08:	41 89 cb             	mov    %ecx,%r11d
        int prev = itop - max_blocks;
    9d0b:	41 29 f2             	sub    %esi,%r10d
        ist_pos[itop] = max_band[i] >= prev ? default_pos : ist_pos[prev];
    9d0e:	41 89 c8             	mov    %ecx,%r8d
    9d11:	44 3b 94 24 70 04 00 	cmp    0x470(%rsp),%r10d
    9d18:	00 
    9d19:	7e 0c                	jle    9d27 <mp3dec_decode_frame+0x5f67>
    9d1b:	4d 63 d2             	movslq %r10d,%r10
    9d1e:	46 0f b6 84 14 57 47 	movzbl 0x4757(%rsp,%r10,1),%r8d
    9d25:	00 00 
    9d27:	4c 63 d2             	movslq %edx,%r10
    9d2a:	46 88 84 14 57 47 00 	mov    %r8b,0x4757(%rsp,%r10,1)
    9d31:	00 
    for (i = 0; i < max_blocks; i++)
    9d32:	83 fe 01             	cmp    $0x1,%esi
    9d35:	74 4b                	je     9d82 <mp3dec_decode_frame+0x5fc2>
        int itop = n_sfb - max_blocks + i;
    9d37:	44 8d 42 01          	lea    0x1(%rdx),%r8d
        int prev = itop - max_blocks;
    9d3b:	8d 72 fe             	lea    -0x2(%rdx),%esi
        ist_pos[itop] = max_band[i] >= prev ? default_pos : ist_pos[prev];
    9d3e:	3b b4 24 74 04 00 00 	cmp    0x474(%rsp),%esi
    9d45:	7e 0b                	jle    9d52 <mp3dec_decode_frame+0x5f92>
    9d47:	48 63 f6             	movslq %esi,%rsi
    9d4a:	0f b6 8c 34 57 47 00 	movzbl 0x4757(%rsp,%rsi,1),%ecx
    9d51:	00 
    9d52:	49 63 f0             	movslq %r8d,%rsi
    9d55:	88 8c 34 57 47 00 00 	mov    %cl,0x4757(%rsp,%rsi,1)
        int itop = n_sfb - max_blocks + i;
    9d5c:	8d 4a 02             	lea    0x2(%rdx),%ecx
        int prev = itop - max_blocks;
    9d5f:	83 ea 01             	sub    $0x1,%edx
        ist_pos[itop] = max_band[i] >= prev ? default_pos : ist_pos[prev];
    9d62:	3b 94 24 78 04 00 00 	cmp    0x478(%rsp),%edx
    9d69:	7e 0c                	jle    9d77 <mp3dec_decode_frame+0x5fb7>
    9d6b:	48 63 d2             	movslq %edx,%rdx
    9d6e:	44 0f b6 9c 14 57 47 	movzbl 0x4757(%rsp,%rdx,1),%r11d
    9d75:	00 00 
    9d77:	48 63 c9             	movslq %ecx,%rcx
    9d7a:	44 88 9c 0c 57 47 00 	mov    %r11b,0x4757(%rsp,%rcx,1)
    9d81:	00 
    L3_stereo_process(left, ist_pos, gr->sfbtab, hdr, max_band, gr[1].scalefac_compress & 1);
    9d82:	48 8b b4 24 d0 00 00 	mov    0xd0(%rsp),%rsi
    9d89:	00 
    9d8a:	0f b7 56 2c          	movzwl 0x2c(%rsi),%edx
    9d8e:	4c 8b 36             	mov    (%rsi),%r14
    9d91:	83 e2 01             	and    $0x1,%edx
    unsigned i, max_pos = HDR_TEST_MPEG1(hdr) ? 7 : 64;
    9d94:	80 fb 01             	cmp    $0x1,%bl
    for (i = 0; sfb[i]; i++)
    9d97:	41 0f b6 36          	movzbl (%r14),%esi
    unsigned i, max_pos = HDR_TEST_MPEG1(hdr) ? 7 : 64;
    9d9b:	45 19 db             	sbb    %r11d,%r11d
    L3_stereo_process(left, ist_pos, gr->sfbtab, hdr, max_band, gr[1].scalefac_compress & 1);
    9d9e:	89 14 24             	mov    %edx,(%rsp)
    unsigned i, max_pos = HDR_TEST_MPEG1(hdr) ? 7 : 64;
    9da1:	41 83 e3 39          	and    $0x39,%r11d
    9da5:	41 83 c3 07          	add    $0x7,%r11d
    for (i = 0; sfb[i]; i++)
    9da9:	40 84 f6             	test   %sil,%sil
    9dac:	0f 84 1f fe ff ff    	je     9bd1 <mp3dec_decode_frame+0x5e11>
    9db2:	48 8b 94 24 e0 03 00 	mov    0x3e0(%rsp),%rdx
    9db9:	00 
    9dba:	4d 89 f2             	mov    %r14,%r10
    9dbd:	45 31 c0             	xor    %r8d,%r8d
    9dc0:	31 c9                	xor    %ecx,%ecx
            if (HDR_TEST_MPEG1(hdr))
    9dc2:	83 e5 08             	and    $0x8,%ebp
    9dc5:	eb 49                	jmp    9e10 <mp3dec_decode_frame+0x6050>
    for (i = 0; sfb[i]; i++)
    9dc7:	41 8d 48 01          	lea    0x1(%r8),%ecx
        left += sfb[i];
    9dcb:	48 8d 14 b2          	lea    (%rdx,%rsi,4),%rdx
    for (i = 0; sfb[i]; i++)
    9dcf:	4d 8d 14 0e          	lea    (%r14,%rcx,1),%r10
    9dd3:	49 89 c8             	mov    %rcx,%r8
    9dd6:	41 0f b6 32          	movzbl (%r10),%esi
    9dda:	40 84 f6             	test   %sil,%sil
    9ddd:	0f 84 ee fd ff ff    	je     9bd1 <mp3dec_decode_frame+0x5e11>
        if ((int)i > max_band[i % 3] && ipos < max_pos)
    9de3:	48 89 c8             	mov    %rcx,%rax
    9de6:	bb ab aa aa aa       	mov    $0xaaaaaaab,%ebx
    9deb:	48 0f af c3          	imul   %rbx,%rax
    9def:	48 c1 e8 21          	shr    $0x21,%rax
    9df3:	8d 3c 40             	lea    (%rax,%rax,2),%edi
    9df6:	89 c8                	mov    %ecx,%eax
    9df8:	29 f8                	sub    %edi,%eax
    9dfa:	8b bc 84 70 04 00 00 	mov    0x470(%rsp,%rax,4),%edi
            float kl, kr, s = HDR_TEST_MS_STEREO(hdr) ? 1.41421356f : 1;
    9e01:	48 8b 84 24 f0 03 00 	mov    0x3f0(%rsp),%rax
    9e08:	00 
    9e09:	0f b6 80 0b 18 00 00 	movzbl 0x180b(%rax),%eax
        unsigned ipos = ist_pos[i];
    9e10:	0f b6 8c 0c 57 47 00 	movzbl 0x4757(%rsp,%rcx,1),%ecx
    9e17:	00 
    9e18:	83 e0 20             	and    $0x20,%eax
    9e1b:	89 cb                	mov    %ecx,%ebx
        if ((int)i > max_band[i % 3] && ipos < max_pos)
    9e1d:	41 39 f8             	cmp    %edi,%r8d
    9e20:	7e 09                	jle    9e2b <mp3dec_decode_frame+0x606b>
    9e22:	44 39 d9             	cmp    %r11d,%ecx
    9e25:	0f 82 48 01 00 00    	jb     9f73 <mp3dec_decode_frame+0x61b3>
        } else if (HDR_TEST_MS_STEREO(hdr))
    9e2b:	84 c0                	test   %al,%al
    9e2d:	74 98                	je     9dc7 <mp3dec_decode_frame+0x6007>
            L3_midside_stereo(left, sfb[i]);
    9e2f:	40 0f b6 ce          	movzbl %sil,%ecx
        for (; i < n - 3; i += 4)
    9e33:	40 80 fe 03          	cmp    $0x3,%sil
    9e37:	0f 86 2b 01 00 00    	jbe    9f68 <mp3dec_decode_frame+0x61a8>
    9e3d:	8d 71 fc             	lea    -0x4(%rcx),%esi
    9e40:	48 89 d0             	mov    %rdx,%rax
    9e43:	c1 ee 02             	shr    $0x2,%esi
    9e46:	89 f7                	mov    %esi,%edi
    9e48:	48 c1 e7 04          	shl    $0x4,%rdi
    9e4c:	48 8d 7c 3a 10       	lea    0x10(%rdx,%rdi,1),%rdi
  return *(__m128_u *)__P;
    9e51:	0f 10 00             	movups (%rax),%xmm0
  return (__m128) ((__v4sf)__A + (__v4sf)__B);
    9e54:	0f 10 88 00 09 00 00 	movups 0x900(%rax),%xmm1
    9e5b:	48 83 c0 10          	add    $0x10,%rax
  return (__m128) ((__v4sf)__A - (__v4sf)__B);
    9e5f:	0f 10 90 f0 08 00 00 	movups 0x8f0(%rax),%xmm2
  return (__m128) ((__v4sf)__A + (__v4sf)__B);
    9e66:	0f 58 c8             	addps  %xmm0,%xmm1
  return (__m128) ((__v4sf)__A - (__v4sf)__B);
    9e69:	0f 5c c2             	subps  %xmm2,%xmm0
  *(__m128_u *)__P = __A;
    9e6c:	0f 11 48 f0          	movups %xmm1,-0x10(%rax)
    9e70:	0f 11 80 f0 08 00 00 	movups %xmm0,0x8f0(%rax)
    9e77:	48 39 f8             	cmp    %rdi,%rax
    9e7a:	75 d5                	jne    9e51 <mp3dec_decode_frame+0x6091>
    9e7c:	8d 3c b5 04 00 00 00 	lea    0x4(,%rsi,4),%edi
    for (; i < n; i++)
    9e83:	39 f9                	cmp    %edi,%ecx
    9e85:	0f 8e cb 00 00 00    	jle    9f56 <mp3dec_decode_frame+0x6196>
    9e8b:	29 f9                	sub    %edi,%ecx
    9e8d:	8d 41 ff             	lea    -0x1(%rcx),%eax
    9e90:	83 f8 02             	cmp    $0x2,%eax
    9e93:	0f 86 d9 01 00 00    	jbe    a072 <mp3dec_decode_frame+0x62b2>
    9e99:	48 63 c7             	movslq %edi,%rax
    9e9c:	89 ce                	mov    %ecx,%esi
    9e9e:	48 c1 e0 02          	shl    $0x2,%rax
    9ea2:	c1 ee 02             	shr    $0x2,%esi
    9ea5:	4c 8d 2c 02          	lea    (%rdx,%rax,1),%r13
    9ea9:	48 8d 9c 02 00 09 00 	lea    0x900(%rdx,%rax,1),%rbx
    9eb0:	00 
    9eb1:	48 c1 e6 04          	shl    $0x4,%rsi
    9eb5:	31 c0                	xor    %eax,%eax
        float b = right[i];
    9eb7:	0f 10 0c 03          	movups (%rbx,%rax,1),%xmm1
        float a = left[i];
    9ebb:	41 0f 10 44 05 00    	movups 0x0(%r13,%rax,1),%xmm0
        left[i] = a + b;
    9ec1:	0f 28 d1             	movaps %xmm1,%xmm2
    9ec4:	0f 58 d0             	addps  %xmm0,%xmm2
        right[i] = a - b;
    9ec7:	0f 5c c1             	subps  %xmm1,%xmm0
        left[i] = a + b;
    9eca:	41 0f 11 54 05 00    	movups %xmm2,0x0(%r13,%rax,1)
        right[i] = a - b;
    9ed0:	0f 11 04 03          	movups %xmm0,(%rbx,%rax,1)
    for (; i < n; i++)
    9ed4:	48 83 c0 10          	add    $0x10,%rax
    9ed8:	48 39 f0             	cmp    %rsi,%rax
    9edb:	75 da                	jne    9eb7 <mp3dec_decode_frame+0x60f7>
    9edd:	89 c8                	mov    %ecx,%eax
    9edf:	83 e0 fc             	and    $0xfffffffc,%eax
    9ee2:	8d 34 38             	lea    (%rax,%rdi,1),%esi
    9ee5:	f6 c1 03             	test   $0x3,%cl
    9ee8:	74 6c                	je     9f56 <mp3dec_decode_frame+0x6196>
    9eea:	29 c1                	sub    %eax,%ecx
    9eec:	83 f9 01             	cmp    $0x1,%ecx
    9eef:	74 37                	je     9f28 <mp3dec_decode_frame+0x6168>
    9ef1:	48 63 ff             	movslq %edi,%rdi
    9ef4:	48 01 f8             	add    %rdi,%rax
    9ef7:	48 c1 e0 02          	shl    $0x2,%rax
    9efb:	48 8d 3c 02          	lea    (%rdx,%rax,1),%rdi
    9eff:	48 8d 84 02 00 09 00 	lea    0x900(%rdx,%rax,1),%rax
    9f06:	00 
        float b = right[i];
    9f07:	f3 0f 7e 08          	movq   (%rax),%xmm1
        float a = left[i];
    9f0b:	f3 0f 7e 07          	movq   (%rdi),%xmm0
        left[i] = a + b;
    9f0f:	0f 28 d1             	movaps %xmm1,%xmm2
    9f12:	0f 58 d0             	addps  %xmm0,%xmm2
        right[i] = a - b;
    9f15:	0f 5c c1             	subps  %xmm1,%xmm0
        left[i] = a + b;
    9f18:	0f 13 17             	movlps %xmm2,(%rdi)
        right[i] = a - b;
    9f1b:	0f 13 00             	movlps %xmm0,(%rax)
    for (; i < n; i++)
    9f1e:	f6 c1 01             	test   $0x1,%cl
    9f21:	74 33                	je     9f56 <mp3dec_decode_frame+0x6196>
    9f23:	83 e1 fe             	and    $0xfffffffe,%ecx
    9f26:	01 ce                	add    %ecx,%esi
        float a = left[i];
    9f28:	48 63 c6             	movslq %esi,%rax
    9f2b:	48 c1 e0 02          	shl    $0x2,%rax
    9f2f:	48 8d 0c 02          	lea    (%rdx,%rax,1),%rcx
        float b = right[i];
    9f33:	48 8d 84 02 00 09 00 	lea    0x900(%rdx,%rax,1),%rax
    9f3a:	00 
    9f3b:	f3 0f 10 08          	movss  (%rax),%xmm1
        float a = left[i];
    9f3f:	f3 0f 10 01          	movss  (%rcx),%xmm0
        left[i] = a + b;
    9f43:	0f 28 d1             	movaps %xmm1,%xmm2
    9f46:	f3 0f 58 d0          	addss  %xmm0,%xmm2
        right[i] = a - b;
    9f4a:	f3 0f 5c c1          	subss  %xmm1,%xmm0
        left[i] = a + b;
    9f4e:	f3 0f 11 11          	movss  %xmm2,(%rcx)
        right[i] = a - b;
    9f52:	f3 0f 11 00          	movss  %xmm0,(%rax)
        left += sfb[i];
    9f56:	41 0f b6 32          	movzbl (%r10),%esi
    9f5a:	e9 68 fe ff ff       	jmp    9dc7 <mp3dec_decode_frame+0x6007>
        right += sfb[i];
    9f5f:	4f 8d 14 8a          	lea    (%r10,%r9,4),%r10
    9f63:	e9 38 fd ff ff       	jmp    9ca0 <mp3dec_decode_frame+0x5ee0>
    int i = 0;
    9f68:	31 ff                	xor    %edi,%edi
        for (; i < n - 3; i += 4)
    9f6a:	31 c0                	xor    %eax,%eax
    int i = 0;
    9f6c:	31 f6                	xor    %esi,%esi
    9f6e:	e9 77 ff ff ff       	jmp    9eea <mp3dec_decode_frame+0x612a>
            float kl, kr, s = HDR_TEST_MS_STEREO(hdr) ? 1.41421356f : 1;
    9f73:	f3 0f 10 0d fd 50 00 	movss  0x50fd(%rip),%xmm1        # f078 <_IO_stdin_used+0x78>
    9f7a:	00 
    9f7b:	84 c0                	test   %al,%al
    9f7d:	74 08                	je     9f87 <mp3dec_decode_frame+0x61c7>
    9f7f:	f3 0f 10 0d ed 50 00 	movss  0x50ed(%rip),%xmm1        # f074 <_IO_stdin_used+0x74>
    9f86:	00 
            if (HDR_TEST_MPEG1(hdr))
    9f87:	40 84 ed             	test   %bpl,%bpl
    9f8a:	0f 84 0e 01 00 00    	je     a09e <mp3dec_decode_frame+0x62de>
                kl = g_pan[2*ipos];
    9f90:	01 c9                	add    %ecx,%ecx
                kr = g_pan[2*ipos + 1];
    9f92:	48 8d 3d 87 5d 00 00 	lea    0x5d87(%rip),%rdi        # fd20 <g_pan.12>
            L3_intensity_stereo_band(left, sfb[i], kl*s, kr*s);
    9f99:	f3 0f 10 04 8f       	movss  (%rdi,%rcx,4),%xmm0
                kr = g_pan[2*ipos + 1];
    9f9e:	8d 41 01             	lea    0x1(%rcx),%eax
            L3_intensity_stereo_band(left, sfb[i], kl*s, kr*s);
    9fa1:	f3 0f 59 c1          	mulss  %xmm1,%xmm0
    9fa5:	f3 0f 59 0c 87       	mulss  (%rdi,%rax,4),%xmm1
    for (i = 0; i < n; i++)
    9faa:	40 0f b6 c6          	movzbl %sil,%eax
    9fae:	8d 48 ff             	lea    -0x1(%rax),%ecx
    9fb1:	83 f9 02             	cmp    $0x2,%ecx
    9fb4:	0f 86 db 00 00 00    	jbe    a095 <mp3dec_decode_frame+0x62d5>
    9fba:	89 c1                	mov    %eax,%ecx
    9fbc:	0f 28 e1             	movaps %xmm1,%xmm4
    9fbf:	0f 28 d8             	movaps %xmm0,%xmm3
    9fc2:	48 89 d7             	mov    %rdx,%rdi
    9fc5:	c1 e9 02             	shr    $0x2,%ecx
    9fc8:	0f c6 e4 00          	shufps $0x0,%xmm4,%xmm4
    9fcc:	0f c6 db 00          	shufps $0x0,%xmm3,%xmm3
    9fd0:	48 c1 e1 04          	shl    $0x4,%rcx
    9fd4:	48 01 d1             	add    %rdx,%rcx
        left[i + 576] = left[i]*kr;
    9fd7:	0f 10 17             	movups (%rdi),%xmm2
    9fda:	48 83 c7 10          	add    $0x10,%rdi
    9fde:	0f 59 d4             	mulps  %xmm4,%xmm2
    9fe1:	0f 11 97 f0 08 00 00 	movups %xmm2,0x8f0(%rdi)
        left[i] = left[i]*kl;
    9fe8:	0f 10 57 f0          	movups -0x10(%rdi),%xmm2
    9fec:	0f 59 d3             	mulps  %xmm3,%xmm2
    9fef:	0f 11 57 f0          	movups %xmm2,-0x10(%rdi)
    for (i = 0; i < n; i++)
    9ff3:	48 39 cf             	cmp    %rcx,%rdi
    9ff6:	75 df                	jne    9fd7 <mp3dec_decode_frame+0x6217>
    9ff8:	89 c7                	mov    %eax,%edi
    9ffa:	83 e7 fc             	and    $0xfffffffc,%edi
    9ffd:	83 e6 03             	and    $0x3,%esi
    a000:	89 f9                	mov    %edi,%ecx
    a002:	0f 84 4e ff ff ff    	je     9f56 <mp3dec_decode_frame+0x6196>
    a008:	29 f8                	sub    %edi,%eax
    a00a:	83 f8 01             	cmp    $0x1,%eax
    a00d:	74 3e                	je     a04d <mp3dec_decode_frame+0x628d>
    a00f:	89 fe                	mov    %edi,%esi
        left[i + 576] = left[i]*kr;
    a011:	0f 28 d9             	movaps %xmm1,%xmm3
    a014:	48 c1 e6 02          	shl    $0x2,%rsi
    a018:	0f c6 db e0          	shufps $0xe0,%xmm3,%xmm3
    a01c:	48 8d 3c 32          	lea    (%rdx,%rsi,1),%rdi
    a020:	f3 0f 7e 17          	movq   (%rdi),%xmm2
    a024:	0f 59 d3             	mulps  %xmm3,%xmm2
        left[i] = left[i]*kl;
    a027:	0f 28 d8             	movaps %xmm0,%xmm3
    a02a:	0f c6 db e0          	shufps $0xe0,%xmm3,%xmm3
        left[i + 576] = left[i]*kr;
    a02e:	0f 13 94 32 00 09 00 	movlps %xmm2,0x900(%rdx,%rsi,1)
    a035:	00 
        left[i] = left[i]*kl;
    a036:	f3 0f 7e 17          	movq   (%rdi),%xmm2
    a03a:	0f 59 d3             	mulps  %xmm3,%xmm2
    a03d:	0f 13 17             	movlps %xmm2,(%rdi)
    for (i = 0; i < n; i++)
    a040:	a8 01                	test   $0x1,%al
    a042:	0f 84 0e ff ff ff    	je     9f56 <mp3dec_decode_frame+0x6196>
    a048:	83 e0 fe             	and    $0xfffffffe,%eax
    a04b:	01 c1                	add    %eax,%ecx
        left[i + 576] = left[i]*kr;
    a04d:	48 63 c1             	movslq %ecx,%rax
    a050:	48 c1 e0 02          	shl    $0x2,%rax
    a054:	48 8d 0c 02          	lea    (%rdx,%rax,1),%rcx
    a058:	f3 0f 59 09          	mulss  (%rcx),%xmm1
    a05c:	f3 0f 11 8c 02 00 09 	movss  %xmm1,0x900(%rdx,%rax,1)
    a063:	00 00 
        left[i] = left[i]*kl;
    a065:	f3 0f 59 01          	mulss  (%rcx),%xmm0
    a069:	f3 0f 11 01          	movss  %xmm0,(%rcx)
    for (i = 0; i < n; i++)
    a06d:	e9 e4 fe ff ff       	jmp    9f56 <mp3dec_decode_frame+0x6196>
    for (; i < n; i++)
    a072:	89 fe                	mov    %edi,%esi
    a074:	31 c0                	xor    %eax,%eax
    a076:	e9 6f fe ff ff       	jmp    9eea <mp3dec_decode_frame+0x612a>
    a07b:	0f 1f 44 00 00       	nopl   0x0(%rax,%rax,1)
    a080:	44 89 c1             	mov    %r8d,%ecx
    int i = 0, igr, frame_size = 0, success = 1;
    a083:	45 31 ff             	xor    %r15d,%r15d
    a086:	e9 d9 a0 ff ff       	jmp    4164 <mp3dec_decode_frame+0x3a4>
    for (i = 0; i < nbands; i++)
    a08b:	bf ff ff ff ff       	mov    $0xffffffff,%edi
    for (i = 0; i < max_blocks; i++)
    a090:	e9 51 fc ff ff       	jmp    9ce6 <mp3dec_decode_frame+0x5f26>
                if (ipos & 1)
    a095:	31 ff                	xor    %edi,%edi
    for (i = 0; i < n; i++)
    a097:	31 c9                	xor    %ecx,%ecx
    a099:	e9 6a ff ff ff       	jmp    a008 <mp3dec_decode_frame+0x6248>
                kr = L3_ldexp_q2(1, (ipos + 1) >> 1 << mpeg2_sh);
    a09e:	8d 41 01             	lea    0x1(%rcx),%eax
    a0a1:	0f b6 0c 24          	movzbl (%rsp),%ecx
    a0a5:	f3 0f 10 05 cb 4f 00 	movss  0x4fcb(%rip),%xmm0        # f078 <_IO_stdin_used+0x78>
    a0ac:	00 
    a0ad:	4c 8d 2d 4c 6e 00 00 	lea    0x6e4c(%rip),%r13        # 10f00 <g_expfrac.18>
    a0b4:	d1 e8                	shr    $1,%eax
    a0b6:	d3 e0                	shl    %cl,%eax
        e = MINIMP3_MIN(30*4, exp_q2);
    a0b8:	bf 78 00 00 00       	mov    $0x78,%edi
        y *= g_expfrac[e & 3]*(1 << 30 >> (e >> 2));
    a0bd:	41 b9 00 00 00 40    	mov    $0x40000000,%r9d
    a0c3:	66 0f ef d2          	pxor   %xmm2,%xmm2
        e = MINIMP3_MIN(30*4, exp_q2);
    a0c7:	39 f8                	cmp    %edi,%eax
    a0c9:	0f 4e f8             	cmovle %eax,%edi
        y *= g_expfrac[e & 3]*(1 << 30 >> (e >> 2));
    a0cc:	89 f9                	mov    %edi,%ecx
    } while ((exp_q2 -= e) > 0);
    a0ce:	29 f8                	sub    %edi,%eax
        y *= g_expfrac[e & 3]*(1 << 30 >> (e >> 2));
    a0d0:	c1 f9 02             	sar    $0x2,%ecx
    a0d3:	41 d3 f9             	sar    %cl,%r9d
    a0d6:	89 f9                	mov    %edi,%ecx
    a0d8:	83 e1 03             	and    $0x3,%ecx
    a0db:	f3 41 0f 2a d1       	cvtsi2ss %r9d,%xmm2
    a0e0:	f3 41 0f 59 54 8d 00 	mulss  0x0(%r13,%rcx,4),%xmm2
    a0e7:	f3 0f 59 c2          	mulss  %xmm2,%xmm0
    } while ((exp_q2 -= e) > 0);
    a0eb:	85 c0                	test   %eax,%eax
    a0ed:	7f c9                	jg     a0b8 <mp3dec_decode_frame+0x62f8>
            L3_intensity_stereo_band(left, sfb[i], kl*s, kr*s);
    a0ef:	f3 0f 59 c1          	mulss  %xmm1,%xmm0
                if (ipos & 1)
    a0f3:	83 e3 01             	and    $0x1,%ebx
    a0f6:	0f 85 ae fe ff ff    	jne    9faa <mp3dec_decode_frame+0x61ea>
    a0fc:	0f 28 d1             	movaps %xmm1,%xmm2
    a0ff:	0f 28 c8             	movaps %xmm0,%xmm1
    a102:	0f 28 c2             	movaps %xmm2,%xmm0
    a105:	e9 a0 fe ff ff       	jmp    9faa <mp3dec_decode_frame+0x61ea>
  return __builtin___memmove_chk (__dest, __src, __len,
    a10a:	41 0f b7 4c 07 fe    	movzwl -0x2(%r15,%rax,1),%ecx
    a110:	66 41 89 4c 05 fe    	mov    %cx,-0x2(%r13,%rax,1)
    a116:	e9 d7 d6 ff ff       	jmp    77f2 <mp3dec_decode_frame+0x3a32>
    a11b:	0f 1f 44 00 00       	nopl   0x0(%rax,%rax,1)
    for (i = 0; i < 2*sci->total_bands; i++)
    a120:	ba 30 00 00 00       	mov    $0x30,%edx
    a125:	e9 d2 d3 ff ff       	jmp    74fc <mp3dec_decode_frame+0x373c>
        for (k = ist*3*4; sfc >= 0; sfc -= modprod, k += 4)
    a12a:	44 89 e1             	mov    %r12d,%ecx
    a12d:	e9 9e f4 ff ff       	jmp    95d0 <mp3dec_decode_frame+0x5810>
    return cache | (next >> -shl);
    a132:	be 06 00 00 00       	mov    $0x6,%esi
    uint32_t next, cache = 0, s = bs->pos & 7;
    a137:	45 31 e4             	xor    %r12d,%r12d
    return cache | (next >> -shl);
    a13a:	29 ce                	sub    %ecx,%esi
    a13c:	89 f1                	mov    %esi,%ecx
    a13e:	e9 5e be ff ff       	jmp    5fa1 <mp3dec_decode_frame+0x21e1>
    a143:	41 8b 0f             	mov    (%r15),%ecx
    a146:	48 8b 9c 24 f0 03 00 	mov    0x3f0(%rsp),%rbx
    a14d:	00 
    a14e:	89 8b 0c 18 00 00    	mov    %ecx,0x180c(%rbx)
    a154:	41 8b 4c 07 fc       	mov    -0x4(%r15,%rax,1),%ecx
    a159:	41 89 4c 05 fc       	mov    %ecx,-0x4(%r13,%rax,1)
    a15e:	e9 8f d6 ff ff       	jmp    77f2 <mp3dec_decode_frame+0x3a32>
    a163:	49 8b 07             	mov    (%r15),%rax
    a166:	48 8b 9c 24 f0 03 00 	mov    0x3f0(%rsp),%rbx
    a16d:	00 
    a16e:	49 8d 7d 08          	lea    0x8(%r13),%rdi
    a172:	4c 89 fe             	mov    %r15,%rsi
    a175:	48 83 e7 f8          	and    $0xfffffffffffffff8,%rdi
    a179:	48 89 83 0c 18 00 00 	mov    %rax,0x180c(%rbx)
    a180:	4a 8b 44 39 f8       	mov    -0x8(%rcx,%r15,1),%rax
    a185:	49 89 44 0d f8       	mov    %rax,-0x8(%r13,%rcx,1)
    a18a:	49 29 fd             	sub    %rdi,%r13
    a18d:	42 8d 04 29          	lea    (%rcx,%r13,1),%eax
    a191:	4c 29 ee             	sub    %r13,%rsi
    a194:	c1 e8 03             	shr    $0x3,%eax
    a197:	89 c1                	mov    %eax,%ecx
    a199:	f3 48 a5             	rep movsq %ds:(%rsi),%es:(%rdi)
    a19c:	e9 51 d6 ff ff       	jmp    77f2 <mp3dec_decode_frame+0x3a32>
        if (!frame_size || i + frame_size > mp3_bytes)
    a1a1:	45 89 f9             	mov    %r15d,%r9d
    a1a4:	e9 a9 9c ff ff       	jmp    3e52 <mp3dec_decode_frame+0x92>
}
    a1a9:	e8 62 82 ff ff       	call   2410 <__stack_chk_fail@plt>
    sci->stereo_bands = (uint8_t)MINIMP3_MIN(stereo_bands, nbands);
    a1ae:	41 89 f1             	mov    %esi,%r9d
    a1b1:	e9 34 a1 ff ff       	jmp    42ea <mp3dec_decode_frame+0x52a>
    a1b6:	66 2e 0f 1f 84 00 00 	cs nopw 0x0(%rax,%rax,1)
    a1bd:	00 00 00 

000000000000a1c0 <load_mp3_file>:
AudioData* load_mp3_file(const char* filename) {
    a1c0:	f3 0f 1e fa          	endbr64
    a1c4:	41 57                	push   %r15
    a1c6:	41 56                	push   %r14
    a1c8:	41 55                	push   %r13
    a1ca:	41 54                	push   %r12
    a1cc:	55                   	push   %rbp
    a1cd:	53                   	push   %rbx
    a1ce:	48 81 ec 00 10 00 00 	sub    $0x1000,%rsp
    a1d5:	48 83 0c 24 00       	orq    $0x0,(%rsp)
    a1da:	48 81 ec 58 0a 00 00 	sub    $0xa58,%rsp
    FILE* f = fopen(filename, "rb");
    a1e1:	48 8d 35 3c 4f 00 00 	lea    0x4f3c(%rip),%rsi        # f124 <_IO_stdin_used+0x124>
AudioData* load_mp3_file(const char* filename) {
    a1e8:	64 48 8b 04 25 28 00 	mov    %fs:0x28,%rax
    a1ef:	00 00 
    a1f1:	48 89 84 24 48 1a 00 	mov    %rax,0x1a48(%rsp)
    a1f8:	00 
    a1f9:	31 c0                	xor    %eax,%eax
    a1fb:	48 89 fb             	mov    %rdi,%rbx
    FILE* f = fopen(filename, "rb");
    a1fe:	e8 8d 84 ff ff       	call   2690 <fopen@plt>
    if (!f) {
    a203:	48 85 c0             	test   %rax,%rax
    a206:	0f 84 ad 01 00 00    	je     a3b9 <load_mp3_file+0x1f9>
    a20c:	48 89 c5             	mov    %rax,%rbp
    fseek(f, 0, SEEK_END);
    a20f:	ba 02 00 00 00       	mov    $0x2,%edx
    a214:	31 f6                	xor    %esi,%esi
    a216:	48 89 c7             	mov    %rax,%rdi
    a219:	e8 62 84 ff ff       	call   2680 <fseek@plt>
    long file_size = ftell(f);
    a21e:	48 89 ef             	mov    %rbp,%rdi
    a221:	e8 da 81 ff ff       	call   2400 <ftell@plt>
    fseek(f, 0, SEEK_SET);
    a226:	31 d2                	xor    %edx,%edx
    a228:	31 f6                	xor    %esi,%esi
    a22a:	48 89 ef             	mov    %rbp,%rdi
    long file_size = ftell(f);
    a22d:	48 89 c3             	mov    %rax,%rbx
    fseek(f, 0, SEEK_SET);
    a230:	e8 4b 84 ff ff       	call   2680 <fseek@plt>
    unsigned char* mp3_buffer_orig = (unsigned char*)malloc(file_size);
    a235:	48 89 df             	mov    %rbx,%rdi
    a238:	e8 83 83 ff ff       	call   25c0 <malloc@plt>
    a23d:	48 89 44 24 08       	mov    %rax,0x8(%rsp)
    if (!mp3_buffer_orig) {
    a242:	48 85 c0             	test   %rax,%rax
    a245:	0f 84 58 01 00 00    	je     a3a3 <load_mp3_file+0x1e3>
    a24b:	48 89 c7             	mov    %rax,%rdi
fread (void *__restrict __ptr, size_t __size, size_t __n,
       FILE *__restrict __stream)
{
  size_t sz = __glibc_objsize0 (__ptr);
  if (__glibc_safe_or_unknown_len (__n, __size, sz))
    return __fread_alias (__ptr, __size, __n, __stream);
    a24e:	48 89 e9             	mov    %rbp,%rcx
    a251:	48 89 da             	mov    %rbx,%rdx
    a254:	be 01 00 00 00       	mov    $0x1,%esi
    a259:	e8 72 82 ff ff       	call   24d0 <fread@plt>
    if (fread(mp3_buffer_orig, 1, file_size, f) != file_size) {
    a25e:	48 39 c3             	cmp    %rax,%rbx
    a261:	0f 85 19 01 00 00    	jne    a380 <load_mp3_file+0x1c0>
    fclose(f);
    a267:	48 89 ef             	mov    %rbp,%rdi
    long file_size_remaining = file_size;
    a26a:	49 89 df             	mov    %rbx,%r15
    a26d:	4c 8d 64 24 10       	lea    0x10(%rsp),%r12
    size_t total_pcm_samples = 0;
    a272:	31 ed                	xor    %ebp,%ebp
    fclose(f);
    a274:	e8 f7 81 ff ff       	call   2470 <fclose@plt>
    dec->header[0] = 0;
    a279:	4c 8d 6c 24 30       	lea    0x30(%rsp),%r13
    unsigned char *mp3_ptr = mp3_buffer_orig;
    a27e:	4c 8b 74 24 08       	mov    0x8(%rsp),%r14
    a283:	c6 84 24 38 18 00 00 	movb   $0x0,0x1838(%rsp)
    a28a:	00 
    while ((samples = mp3dec_decode_frame(&dec, mp3_ptr, file_size_remaining, NULL, &info)) > 0) {
    a28b:	eb 18                	jmp    a2a5 <load_mp3_file+0xe5>
    a28d:	0f 1f 00             	nopl   (%rax)
        total_pcm_samples += samples * info.channels;
    a290:	0f af 44 24 18       	imul   0x18(%rsp),%eax
    a295:	48 98                	cltq
    a297:	48 01 c5             	add    %rax,%rbp
        mp3_ptr += info.frame_bytes;
    a29a:	48 63 44 24 10       	movslq 0x10(%rsp),%rax
    a29f:	49 01 c6             	add    %rax,%r14
        file_size_remaining -= info.frame_bytes;
    a2a2:	49 29 c7             	sub    %rax,%r15
    while ((samples = mp3dec_decode_frame(&dec, mp3_ptr, file_size_remaining, NULL, &info)) > 0) {
    a2a5:	31 c9                	xor    %ecx,%ecx
    a2a7:	4d 89 e0             	mov    %r12,%r8
    a2aa:	44 89 fa             	mov    %r15d,%edx
    a2ad:	4c 89 f6             	mov    %r14,%rsi
    a2b0:	4c 89 ef             	mov    %r13,%rdi
    a2b3:	e8 08 9b ff ff       	call   3dc0 <mp3dec_decode_frame>
    a2b8:	85 c0                	test   %eax,%eax
    a2ba:	7f d4                	jg     a290 <load_mp3_file+0xd0>
    AudioData* audio_data = (AudioData*)malloc(sizeof(AudioData));
    a2bc:	bf 18 00 00 00       	mov    $0x18,%edi
    a2c1:	e8 fa 82 ff ff       	call   25c0 <malloc@plt>
    a2c6:	49 89 c7             	mov    %rax,%r15
    if (!audio_data) {
    a2c9:	48 85 c0             	test   %rax,%rax
    a2cc:	0f 84 24 01 00 00    	je     a3f6 <load_mp3_file+0x236>
    audio_data->pcm_buffer = (short*)malloc(total_pcm_samples * sizeof(short));
    a2d2:	48 8d 7c 2d 00       	lea    0x0(%rbp,%rbp,1),%rdi
    a2d7:	e8 e4 82 ff ff       	call   25c0 <malloc@plt>
    a2dc:	49 89 07             	mov    %rax,(%r15)
    if (!audio_data->pcm_buffer) {
    a2df:	48 85 c0             	test   %rax,%rax
    a2e2:	0f 84 ee 00 00 00    	je     a3d6 <load_mp3_file+0x216>
    a2e8:	c6 84 24 38 18 00 00 	movb   $0x0,0x1838(%rsp)
    a2ef:	00 
    mp3_ptr = mp3_buffer_orig;
    a2f0:	4c 8b 74 24 08       	mov    0x8(%rsp),%r14
    size_t pcm_size = 0;
    a2f5:	31 ed                	xor    %ebp,%ebp
    while ((samples = mp3dec_decode_frame(&dec, mp3_ptr, file_size_remaining, 
    a2f7:	eb 1f                	jmp    a318 <load_mp3_file+0x158>
    a2f9:	0f 1f 80 00 00 00 00 	nopl   0x0(%rax)
        pcm_size += samples * info.channels;
    a300:	0f af 44 24 18       	imul   0x18(%rsp),%eax
    a305:	48 98                	cltq
    a307:	48 01 c5             	add    %rax,%rbp
        mp3_ptr += info.frame_bytes;
    a30a:	48 63 44 24 10       	movslq 0x10(%rsp),%rax
    a30f:	49 01 c6             	add    %rax,%r14
        file_size_remaining -= info.frame_bytes;
    a312:	48 29 c3             	sub    %rax,%rbx
                                         audio_data->pcm_buffer + pcm_size, &info)) > 0) {
    a315:	49 8b 07             	mov    (%r15),%rax
    a318:	48 8d 0c 68          	lea    (%rax,%rbp,2),%rcx
    while ((samples = mp3dec_decode_frame(&dec, mp3_ptr, file_size_remaining, 
    a31c:	4d 89 e0             	mov    %r12,%r8
    a31f:	89 da                	mov    %ebx,%edx
    a321:	4c 89 f6             	mov    %r14,%rsi
    a324:	4c 89 ef             	mov    %r13,%rdi
    a327:	e8 94 9a ff ff       	call   3dc0 <mp3dec_decode_frame>
                                         audio_data->pcm_buffer + pcm_size, &info)) > 0) {
    a32c:	85 c0                	test   %eax,%eax
    a32e:	7f d0                	jg     a300 <load_mp3_file+0x140>
    free(mp3_buffer_orig);
    a330:	48 8b 7c 24 08       	mov    0x8(%rsp),%rdi
    a335:	e8 86 80 ff ff       	call   23c0 <free@plt>
    audio_data->sample_rate = info.hz;
    a33a:	f3 0f 7e 44 24 18    	movq   0x18(%rsp),%xmm0
    audio_data->pcm_size = pcm_size;
    a340:	49 89 6f 08          	mov    %rbp,0x8(%r15)
    audio_data->channels = info.channels;
    a344:	66 0f 70 c0 e1       	pshufd $0xe1,%xmm0,%xmm0
    audio_data->sample_rate = info.hz;
    a349:	66 41 0f d6 47 10    	movq   %xmm0,0x10(%r15)
}
    a34f:	48 8b 84 24 48 1a 00 	mov    0x1a48(%rsp),%rax
    a356:	00 
    a357:	64 48 2b 04 25 28 00 	sub    %fs:0x28,%rax
    a35e:	00 00 
    a360:	75 6f                	jne    a3d1 <load_mp3_file+0x211>
    a362:	48 81 c4 58 1a 00 00 	add    $0x1a58,%rsp
    a369:	4c 89 f8             	mov    %r15,%rax
    a36c:	5b                   	pop    %rbx
    a36d:	5d                   	pop    %rbp
    a36e:	41 5c                	pop    %r12
    a370:	41 5d                	pop    %r13
    a372:	41 5e                	pop    %r14
    a374:	41 5f                	pop    %r15
    a376:	c3                   	ret
    a377:	66 0f 1f 84 00 00 00 	nopw   0x0(%rax,%rax,1)
    a37e:	00 00 
  return __printf_chk (__USE_FORTIFY_LEVEL - 1, __fmt, __va_arg_pack ());
    a380:	48 8d 3d e1 4f 00 00 	lea    0x4fe1(%rip),%rdi        # f368 <_IO_stdin_used+0x368>
    a387:	e8 44 82 ff ff       	call   25d0 <puts@plt>
        free(mp3_buffer_orig);
    a38c:	48 8b 7c 24 08       	mov    0x8(%rsp),%rdi
    a391:	e8 2a 80 ff ff       	call   23c0 <free@plt>
        fclose(f);
    a396:	48 89 ef             	mov    %rbp,%rdi
    a399:	e8 d2 80 ff ff       	call   2470 <fclose@plt>
        return NULL;
    a39e:	45 31 ff             	xor    %r15d,%r15d
    a3a1:	eb ac                	jmp    a34f <load_mp3_file+0x18f>
    a3a3:	48 8d 3d 8e 4f 00 00 	lea    0x4f8e(%rip),%rdi        # f338 <_IO_stdin_used+0x338>
    a3aa:	e8 21 82 ff ff       	call   25d0 <puts@plt>
        fclose(f);
    a3af:	48 89 ef             	mov    %rbp,%rdi
    a3b2:	e8 b9 80 ff ff       	call   2470 <fclose@plt>
        return NULL;
    a3b7:	eb e5                	jmp    a39e <load_mp3_file+0x1de>
    a3b9:	48 89 da             	mov    %rbx,%rdx
    a3bc:	48 8d 35 4d 4f 00 00 	lea    0x4f4d(%rip),%rsi        # f310 <_IO_stdin_used+0x310>
    a3c3:	bf 02 00 00 00       	mov    $0x2,%edi
    a3c8:	31 c0                	xor    %eax,%eax
    a3ca:	e8 31 82 ff ff       	call   2600 <__printf_chk@plt>
        return NULL;
    a3cf:	eb cd                	jmp    a39e <load_mp3_file+0x1de>
}
    a3d1:	e8 3a 80 ff ff       	call   2410 <__stack_chk_fail@plt>
    a3d6:	48 8d 3d e3 4f 00 00 	lea    0x4fe3(%rip),%rdi        # f3c0 <_IO_stdin_used+0x3c0>
    a3dd:	e8 ee 81 ff ff       	call   25d0 <puts@plt>
        free(mp3_buffer_orig);
    a3e2:	48 8b 7c 24 08       	mov    0x8(%rsp),%rdi
    a3e7:	e8 d4 7f ff ff       	call   23c0 <free@plt>
        free(audio_data);
    a3ec:	4c 89 ff             	mov    %r15,%rdi
    a3ef:	e8 cc 7f ff ff       	call   23c0 <free@plt>
        return NULL;
    a3f4:	eb a8                	jmp    a39e <load_mp3_file+0x1de>
    a3f6:	48 8d 3d 9b 4f 00 00 	lea    0x4f9b(%rip),%rdi        # f398 <_IO_stdin_used+0x398>
    a3fd:	e8 ce 81 ff ff       	call   25d0 <puts@plt>
        free(mp3_buffer_orig);
    a402:	48 8b 7c 24 08       	mov    0x8(%rsp),%rdi
    a407:	e8 b4 7f ff ff       	call   23c0 <free@plt>
        return NULL;
    a40c:	eb 90                	jmp    a39e <load_mp3_file+0x1de>
    a40e:	66 90                	xchg   %ax,%ax

000000000000a410 <free_audio_data>:
void free_audio_data(AudioData* audio_data) {
    a410:	f3 0f 1e fa          	endbr64
    if (audio_data) {
    a414:	48 85 ff             	test   %rdi,%rdi
    a417:	74 1f                	je     a438 <free_audio_data+0x28>
void free_audio_data(AudioData* audio_data) {
    a419:	53                   	push   %rbx
    a41a:	48 89 fb             	mov    %rdi,%rbx
        if (audio_data->pcm_buffer) {
    a41d:	48 8b 3f             	mov    (%rdi),%rdi
    a420:	48 85 ff             	test   %rdi,%rdi
    a423:	74 05                	je     a42a <free_audio_data+0x1a>
            free(audio_data->pcm_buffer);
    a425:	e8 96 7f ff ff       	call   23c0 <free@plt>
        free(audio_data);
    a42a:	48 89 df             	mov    %rbx,%rdi
}
    a42d:	5b                   	pop    %rbx
        free(audio_data);
    a42e:	e9 8d 7f ff ff       	jmp    23c0 <free@plt>
    a433:	0f 1f 44 00 00       	nopl   0x0(%rax,%rax,1)
    a438:	c3                   	ret
    a439:	0f 1f 80 00 00 00 00 	nopl   0x0(%rax)

000000000000a440 <analyze_audio_to_file>:
void analyze_audio_to_file(AudioData* audio_data, const char* output_filename) {
    a440:	f3 0f 1e fa          	endbr64
    a444:	41 57                	push   %r15
    a446:	41 56                	push   %r14
    a448:	41 55                	push   %r13
    a44a:	41 54                	push   %r12
    a44c:	55                   	push   %rbp
    a44d:	53                   	push   %rbx
    a44e:	4c 8d 9c 24 00 00 ff 	lea    -0x10000(%rsp),%r11
    a455:	ff 
    a456:	48 81 ec 00 10 00 00 	sub    $0x1000,%rsp
    a45d:	48 83 0c 24 00       	orq    $0x0,(%rsp)
    a462:	4c 39 dc             	cmp    %r11,%rsp
    a465:	75 ef                	jne    a456 <analyze_audio_to_file+0x16>
    a467:	48 83 ec 48          	sub    $0x48,%rsp
    a46b:	48 89 74 24 10       	mov    %rsi,0x10(%rsp)
    a470:	64 48 8b 04 25 28 00 	mov    %fs:0x28,%rax
    a477:	00 00 
    a479:	48 89 84 24 38 00 01 	mov    %rax,0x10038(%rsp)
    a480:	00 
    a481:	31 c0                	xor    %eax,%eax
    if (!audio_data || !output_filename) return;
    a483:	48 85 ff             	test   %rdi,%rdi
    a486:	0f 84 ab 02 00 00    	je     a737 <analyze_audio_to_file+0x2f7>
    a48c:	48 89 f3             	mov    %rsi,%rbx
    a48f:	48 85 f6             	test   %rsi,%rsi
    a492:	0f 84 9f 02 00 00    	je     a737 <analyze_audio_to_file+0x2f7>
    kiss_fft_cfg cfg = kiss_fft_alloc(FRAME_SIZE, 0, NULL, NULL);
    a498:	31 c9                	xor    %ecx,%ecx
    a49a:	31 d2                	xor    %edx,%edx
    a49c:	31 f6                	xor    %esi,%esi
    a49e:	49 89 fe             	mov    %rdi,%r14
    a4a1:	bf 00 10 00 00       	mov    $0x1000,%edi
    a4a6:	e8 05 22 00 00       	call   c6b0 <kiss_fft_alloc>
    FILE* output = fopen(output_filename, "w");
    a4ab:	48 8d 35 75 4c 00 00 	lea    0x4c75(%rip),%rsi        # f127 <_IO_stdin_used+0x127>
    a4b2:	48 89 df             	mov    %rbx,%rdi
    kiss_fft_cfg cfg = kiss_fft_alloc(FRAME_SIZE, 0, NULL, NULL);
    a4b5:	48 89 c5             	mov    %rax,%rbp
    FILE* output = fopen(output_filename, "w");
    a4b8:	e8 d3 81 ff ff       	call   2690 <fopen@plt>
    a4bd:	48 89 44 24 20       	mov    %rax,0x20(%rsp)
    if (!output) {
    a4c2:	48 85 c0             	test   %rax,%rax
    a4c5:	0f 84 d0 03 00 00    	je     a89b <analyze_audio_to_file+0x45b>
    a4cb:	41 8b 56 10          	mov    0x10(%r14),%edx
    a4cf:	48 8d 35 42 4f 00 00 	lea    0x4f42(%rip),%rsi        # f418 <_IO_stdin_used+0x418>
    a4d6:	bf 02 00 00 00       	mov    $0x2,%edi
    a4db:	31 c0                	xor    %eax,%eax
    a4dd:	e8 1e 81 ff ff       	call   2600 <__printf_chk@plt>
         pcm_offset + (FRAME_SIZE * audio_data->channels) < audio_data->pcm_size; 
    a4e2:	41 8b 56 14          	mov    0x14(%r14),%edx
    char ultima_nota_encontrada[5] = "";
    a4e6:	c7 84 24 33 00 01 00 	movl   $0x0,0x10033(%rsp)
    a4ed:	00 00 00 00 
    a4f1:	c6 84 24 37 00 01 00 	movb   $0x0,0x10037(%rsp)
    a4f8:	00 
         pcm_offset + (FRAME_SIZE * audio_data->channels) < audio_data->pcm_size; 
    a4f9:	89 d0                	mov    %edx,%eax
    a4fb:	c1 e0 0c             	shl    $0xc,%eax
    a4fe:	48 98                	cltq
    a500:	49 3b 46 08          	cmp    0x8(%r14),%rax
    a504:	0f 83 03 02 00 00    	jae    a70d <analyze_audio_to_file+0x2cd>
    a50a:	f3 0f 10 1d 3e 72 00 	movss  0x723e(%rip),%xmm3        # 11750 <g_pow43+0x330>
    a511:	00 
    for (long pcm_offset = 0; 
    a512:	45 31 ff             	xor    %r15d,%r15d
    a515:	4c 8d ac 24 30 80 00 	lea    0x8030(%rsp),%r13
    a51c:	00 
    a51d:	48 8d 5c 24 30       	lea    0x30(%rsp),%rbx
    a522:	4c 8d a4 24 3c 80 00 	lea    0x803c(%rsp),%r12
    a529:	00 
    a52a:	0f c6 db 00          	shufps $0x0,%xmm3,%xmm3
                in[i].r = (float)(audio_data->pcm_buffer[pcm_offset + i*2] + 
    a52e:	49 8b 0e             	mov    (%r14),%rcx
    a531:	83 fa 02             	cmp    $0x2,%edx
    a534:	0f 84 26 02 00 00    	je     a760 <analyze_audio_to_file+0x320>
    a53a:	4a 8d 14 79          	lea    (%rcx,%r15,2),%rdx
                in[i].r = (float)audio_data->pcm_buffer[pcm_offset + i] / 32768.0f;
    a53e:	66 0f ef f6          	pxor   %xmm6,%xmm6
            in[i].i = 0;
    a542:	66 0f ef d2          	pxor   %xmm2,%xmm2
    a546:	48 89 d8             	mov    %rbx,%rax
    a549:	0f 1f 80 00 00 00 00 	nopl   0x0(%rax)
                in[i].r = (float)audio_data->pcm_buffer[pcm_offset + i] / 32768.0f;
    a550:	f3 0f 6f 02          	movdqu (%rdx),%xmm0
    a554:	66 0f 6f ee          	movdqa %xmm6,%xmm5
    a558:	48 83 c0 40          	add    $0x40,%rax
    a55c:	48 83 c2 10          	add    $0x10,%rdx
    a560:	66 0f 65 e8          	pcmpgtw %xmm0,%xmm5
    a564:	66 0f 6f c8          	movdqa %xmm0,%xmm1
    a568:	66 0f 61 cd          	punpcklwd %xmm5,%xmm1
    a56c:	66 0f 69 c5          	punpckhwd %xmm5,%xmm0
    a570:	0f 5b c9             	cvtdq2ps %xmm1,%xmm1
    a573:	0f 59 cb             	mulps  %xmm3,%xmm1
    a576:	0f 5b c0             	cvtdq2ps %xmm0,%xmm0
    a579:	0f 59 c3             	mulps  %xmm3,%xmm0
            in[i].i = 0;
    a57c:	0f 28 e9             	movaps %xmm1,%xmm5
    a57f:	0f 15 ca             	unpckhps %xmm2,%xmm1
    a582:	0f 29 48 d0          	movaps %xmm1,-0x30(%rax)
    a586:	0f 28 c8             	movaps %xmm0,%xmm1
    a589:	0f 14 ea             	unpcklps %xmm2,%xmm5
    a58c:	0f 15 c2             	unpckhps %xmm2,%xmm0
    a58f:	0f 14 ca             	unpcklps %xmm2,%xmm1
    a592:	0f 29 68 c0          	movaps %xmm5,-0x40(%rax)
    a596:	0f 29 48 e0          	movaps %xmm1,-0x20(%rax)
    a59a:	0f 29 40 f0          	movaps %xmm0,-0x10(%rax)
        for (int i = 0; i < FRAME_SIZE; i++) {
    a59e:	49 39 c5             	cmp    %rax,%r13
    a5a1:	75 ad                	jne    a550 <analyze_audio_to_file+0x110>
        kiss_fft(cfg, in, out);
    a5a3:	4c 89 ea             	mov    %r13,%rdx
    a5a6:	48 89 de             	mov    %rbx,%rsi
    a5a9:	48 89 ef             	mov    %rbp,%rdi
    a5ac:	e8 2f 24 00 00       	call   c9e0 <kiss_fft>
        for (int i = 1; i < FRAME_SIZE / 2; i++) {
    a5b1:	4c 89 e2             	mov    %r12,%rdx
    a5b4:	b8 01 00 00 00       	mov    $0x1,%eax
        int max_idx = 0;
    a5b9:	31 c9                	xor    %ecx,%ecx
        float max_mag = 0;
    a5bb:	0f 28 1d 8e 71 00 00 	movaps 0x718e(%rip),%xmm3        # 11750 <g_pow43+0x330>
    a5c2:	66 0f ef d2          	pxor   %xmm2,%xmm2
    a5c6:	f3 0f 10 25 92 71 00 	movss  0x7192(%rip),%xmm4        # 11760 <g_pow43+0x340>
    a5cd:	00 
    a5ce:	66 90                	xchg   %ax,%ax
            float mag = sqrt(out[i].r * out[i].r + out[i].i * out[i].i);
    a5d0:	f3 0f 10 4a fc       	movss  -0x4(%rdx),%xmm1
    a5d5:	f3 0f 10 02          	movss  (%rdx),%xmm0
    a5d9:	f3 0f 59 c9          	mulss  %xmm1,%xmm1
    a5dd:	f3 0f 59 c0          	mulss  %xmm0,%xmm0
    a5e1:	f3 0f 58 c1          	addss  %xmm1,%xmm0
    a5e5:	f3 0f 51 c0          	sqrtss %xmm0,%xmm0
            if (mag > max_mag) { max_mag = mag; max_idx = i; }
    a5e9:	0f 2f c2             	comiss %xmm2,%xmm0
    a5ec:	f3 0f 5f c2          	maxss  %xmm2,%xmm0
    a5f0:	0f 47 c8             	cmova  %eax,%ecx
        for (int i = 1; i < FRAME_SIZE / 2; i++) {
    a5f3:	83 c0 01             	add    $0x1,%eax
            if (mag > max_mag) { max_mag = mag; max_idx = i; }
    a5f6:	0f 28 d0             	movaps %xmm0,%xmm2
        for (int i = 1; i < FRAME_SIZE / 2; i++) {
    a5f9:	48 83 c2 08          	add    $0x8,%rdx
    a5fd:	3d 00 08 00 00       	cmp    $0x800,%eax
    a602:	75 cc                	jne    a5d0 <analyze_audio_to_file+0x190>
        if (max_mag > THRESHOLD) {
    a604:	0f 2f 05 01 4b 00 00 	comiss 0x4b01(%rip),%xmm0        # f10c <_IO_stdin_used+0x10c>
    a60b:	0f 86 e1 00 00 00    	jbe    a6f2 <analyze_audio_to_file+0x2b2>
        float freq = (float)max_idx * audio_data->sample_rate / FRAME_SIZE;
    a611:	41 8b 56 10          	mov    0x10(%r14),%edx
    a615:	66 0f ef d2          	pxor   %xmm2,%xmm2
    a619:	66 0f ef c0          	pxor   %xmm0,%xmm0
    if (freq < FREQS[0] * 0.97) return NULL;
    a61d:	f2 0f 10 3d b3 71 00 	movsd  0x71b3(%rip),%xmm7        # 117d8 <g_pow43+0x3b8>
    a624:	00 
        float freq = (float)max_idx * audio_data->sample_rate / FRAME_SIZE;
    a625:	f3 0f 2a d1          	cvtsi2ss %ecx,%xmm2
    a629:	f3 0f 2a c2          	cvtsi2ss %edx,%xmm0
    a62d:	f3 0f 59 d0          	mulss  %xmm0,%xmm2
    if (freq < FREQS[0] * 0.97) return NULL;
    a631:	66 0f ef c0          	pxor   %xmm0,%xmm0
        float freq = (float)max_idx * audio_data->sample_rate / FRAME_SIZE;
    a635:	f3 0f 59 15 d3 4a 00 	mulss  0x4ad3(%rip),%xmm2        # f110 <_IO_stdin_used+0x110>
    a63c:	00 
    if (freq < FREQS[0] * 0.97) return NULL;
    a63d:	f3 0f 5a c2          	cvtss2sd %xmm2,%xmm0
    a641:	66 0f 2f f8          	comisd %xmm0,%xmm7
    a645:	0f 87 a7 00 00 00    	ja     a6f2 <analyze_audio_to_file+0x2b2>
    float min_diff = 1e9;
    a64b:	f3 0f 10 0d b5 4a 00 	movss  0x4ab5(%rip),%xmm1        # f108 <_IO_stdin_used+0x108>
    a652:	00 
    a653:	31 c0                	xor    %eax,%eax
    int note_idx = -1;
    a655:	b9 ff ff ff ff       	mov    $0xffffffff,%ecx
    a65a:	48 8d 35 ff 6c 00 00 	lea    0x6cff(%rip),%rsi        # 11360 <FREQS>
    a661:	0f 1f 80 00 00 00 00 	nopl   0x0(%rax)
        float diff = fabs(freq - FREQS[i]);
    a668:	0f 28 c2             	movaps %xmm2,%xmm0
    a66b:	f3 0f 5c 04 86       	subss  (%rsi,%rax,4),%xmm0
    a670:	0f 54 c4             	andps  %xmm4,%xmm0
        if (diff < min_diff) {
    a673:	0f 2f c8             	comiss %xmm0,%xmm1
            min_diff = diff;
    a676:	f3 0f 5d c1          	minss  %xmm1,%xmm0
    a67a:	0f 47 c8             	cmova  %eax,%ecx
    for (int i = 0; i < NUM_NOTES; i++) {
    a67d:	48 83 c0 01          	add    $0x1,%rax
            min_diff = diff;
    a681:	0f 28 c8             	movaps %xmm0,%xmm1
    for (int i = 0; i < NUM_NOTES; i++) {
    a684:	48 83 f8 30          	cmp    $0x30,%rax
    a688:	75 de                	jne    a668 <analyze_audio_to_file+0x228>
    a68a:	89 54 24 0c          	mov    %edx,0xc(%rsp)
    if (note_idx != -1 && min_diff < FREQS[note_idx] * 0.05) {
    a68e:	83 f9 ff             	cmp    $0xffffffff,%ecx
    a691:	74 5f                	je     a6f2 <analyze_audio_to_file+0x2b2>
    a693:	66 0f ef c9          	pxor   %xmm1,%xmm1
    a697:	48 63 c9             	movslq %ecx,%rcx
    a69a:	f3 0f 5a c8          	cvtss2sd %xmm0,%xmm1
    a69e:	66 0f ef c0          	pxor   %xmm0,%xmm0
    a6a2:	f3 0f 5a 04 8e       	cvtss2sd (%rsi,%rcx,4),%xmm0
    a6a7:	f2 0f 59 05 31 71 00 	mulsd  0x7131(%rip),%xmm0        # 117e0 <g_pow43+0x3c0>
    a6ae:	00 
    a6af:	66 0f 2f c1          	comisd %xmm1,%xmm0
    a6b3:	76 3d                	jbe    a6f2 <analyze_audio_to_file+0x2b2>
        return NOTES[note_idx];
    a6b5:	48 8d 05 64 99 00 00 	lea    0x9964(%rip),%rax        # 14020 <NOTES>
    a6bc:	48 8b 3c c8          	mov    (%rax,%rcx,8),%rdi
    a6c0:	48 89 7c 24 28       	mov    %rdi,0x28(%rsp)
            if (note) {
    a6c5:	48 85 ff             	test   %rdi,%rdi
    a6c8:	74 28                	je     a6f2 <analyze_audio_to_file+0x2b2>
                if (strcmp(note, ultima_nota_encontrada) != 0) {
    a6ca:	48 8d 84 24 33 00 01 	lea    0x10033(%rsp),%rax
    a6d1:	00 
    a6d2:	48 89 c6             	mov    %rax,%rsi
    a6d5:	48 89 44 24 18       	mov    %rax,0x18(%rsp)
    a6da:	e8 81 7e ff ff       	call   2560 <strcmp@plt>
    a6df:	0f 28 1d 6a 70 00 00 	movaps 0x706a(%rip),%xmm3        # 11750 <g_pow43+0x330>
    a6e6:	8b 54 24 0c          	mov    0xc(%rsp),%edx
    a6ea:	85 c0                	test   %eax,%eax
    a6ec:	0f 85 4f 01 00 00    	jne    a841 <analyze_audio_to_file+0x401>
         pcm_offset += (FRAME_SIZE * audio_data->channels)) {
    a6f2:	41 8b 56 14          	mov    0x14(%r14),%edx
    a6f6:	89 d0                	mov    %edx,%eax
    a6f8:	c1 e0 0c             	shl    $0xc,%eax
    a6fb:	48 98                	cltq
    a6fd:	49 01 c7             	add    %rax,%r15
         pcm_offset + (FRAME_SIZE * audio_data->channels) < audio_data->pcm_size; 
    a700:	4c 01 f8             	add    %r15,%rax
    a703:	49 3b 46 08          	cmp    0x8(%r14),%rax
    a707:	0f 82 21 fe ff ff    	jb     a52e <analyze_audio_to_file+0xee>
    kiss_fft_free(cfg);
    a70d:	48 89 ef             	mov    %rbp,%rdi
    a710:	e8 ab 7c ff ff       	call   23c0 <free@plt>
    fclose(output);
    a715:	48 8b 7c 24 20       	mov    0x20(%rsp),%rdi
    a71a:	e8 51 7d ff ff       	call   2470 <fclose@plt>
    a71f:	48 8b 54 24 10       	mov    0x10(%rsp),%rdx
    a724:	48 8d 35 07 4a 00 00 	lea    0x4a07(%rip),%rsi        # f132 <_IO_stdin_used+0x132>
    a72b:	31 c0                	xor    %eax,%eax
    a72d:	bf 02 00 00 00       	mov    $0x2,%edi
    a732:	e8 c9 7e ff ff       	call   2600 <__printf_chk@plt>
    a737:	48 8b 84 24 38 00 01 	mov    0x10038(%rsp),%rax
    a73e:	00 
    a73f:	64 48 2b 04 25 28 00 	sub    %fs:0x28,%rax
    a746:	00 00 
    a748:	0f 85 8f 01 00 00    	jne    a8dd <analyze_audio_to_file+0x49d>
    a74e:	48 81 c4 48 00 01 00 	add    $0x10048,%rsp
    a755:	5b                   	pop    %rbx
    a756:	5d                   	pop    %rbp
    a757:	41 5c                	pop    %r12
    a759:	41 5d                	pop    %r13
    a75b:	41 5e                	pop    %r14
    a75d:	41 5f                	pop    %r15
    a75f:	c3                   	ret
    a760:	4a 8d 14 79          	lea    (%rcx,%r15,2),%rdx
                in[i].r = (float)(audio_data->pcm_buffer[pcm_offset + i*2] + 
    a764:	66 0f ef f6          	pxor   %xmm6,%xmm6
            in[i].i = 0;
    a768:	66 0f ef ed          	pxor   %xmm5,%xmm5
                in[i].r = (float)(audio_data->pcm_buffer[pcm_offset + i*2] + 
    a76c:	48 89 d8             	mov    %rbx,%rax
    a76f:	f3 0f 10 3d fd 6e 00 	movss  0x6efd(%rip),%xmm7        # 11674 <g_pow43+0x254>
    a776:	00 
    a777:	0f c6 ff 00          	shufps $0x0,%xmm7,%xmm7
    a77b:	0f 1f 44 00 00       	nopl   0x0(%rax,%rax,1)
    a780:	f3 0f 6f 02          	movdqu (%rdx),%xmm0
    a784:	f3 44 0f 6f 42 10    	movdqu 0x10(%rdx),%xmm8
        for (int i = 0; i < FRAME_SIZE; i++) {
    a78a:	48 83 c0 40          	add    $0x40,%rax
    a78e:	48 83 c2 20          	add    $0x20,%rdx
                in[i].r = (float)(audio_data->pcm_buffer[pcm_offset + i*2] + 
    a792:	66 0f 6f d0          	movdqa %xmm0,%xmm2
    a796:	66 0f 6f c8          	movdqa %xmm0,%xmm1
    a79a:	66 41 0f 61 c0       	punpcklwd %xmm8,%xmm0
    a79f:	66 41 0f 61 d0       	punpcklwd %xmm8,%xmm2
    a7a4:	66 41 0f 69 c8       	punpckhwd %xmm8,%xmm1
                                  audio_data->pcm_buffer[pcm_offset + i*2 + 1]) / 2.0f / 32768.0f;
    a7a9:	66 44 0f 6f c6       	movdqa %xmm6,%xmm8
                in[i].r = (float)(audio_data->pcm_buffer[pcm_offset + i*2] + 
    a7ae:	66 44 0f 6f ca       	movdqa %xmm2,%xmm9
    a7b3:	66 0f 61 c1          	punpcklwd %xmm1,%xmm0
    a7b7:	66 0f 61 d1          	punpcklwd %xmm1,%xmm2
    a7bb:	66 44 0f 69 c9       	punpckhwd %xmm1,%xmm9
    a7c0:	66 41 0f 61 d1       	punpcklwd %xmm9,%xmm2
    a7c5:	66 41 0f 69 c1       	punpckhwd %xmm9,%xmm0
    a7ca:	66 44 0f 6f ce       	movdqa %xmm6,%xmm9
    a7cf:	66 44 0f 65 ca       	pcmpgtw %xmm2,%xmm9
                                  audio_data->pcm_buffer[pcm_offset + i*2 + 1]) / 2.0f / 32768.0f;
    a7d4:	66 44 0f 65 c0       	pcmpgtw %xmm0,%xmm8
                in[i].r = (float)(audio_data->pcm_buffer[pcm_offset + i*2] + 
    a7d9:	66 44 0f 6f d2       	movdqa %xmm2,%xmm10
                                  audio_data->pcm_buffer[pcm_offset + i*2 + 1]) / 2.0f / 32768.0f;
    a7de:	66 0f 6f c8          	movdqa %xmm0,%xmm1
                in[i].r = (float)(audio_data->pcm_buffer[pcm_offset + i*2] + 
    a7e2:	66 45 0f 61 d1       	punpcklwd %xmm9,%xmm10
                                  audio_data->pcm_buffer[pcm_offset + i*2 + 1]) / 2.0f / 32768.0f;
    a7e7:	66 41 0f 61 c8       	punpcklwd %xmm8,%xmm1
                in[i].r = (float)(audio_data->pcm_buffer[pcm_offset + i*2] + 
    a7ec:	66 41 0f 69 d1       	punpckhwd %xmm9,%xmm2
    a7f1:	66 41 0f fe ca       	paddd  %xmm10,%xmm1
                                  audio_data->pcm_buffer[pcm_offset + i*2 + 1]) / 2.0f / 32768.0f;
    a7f6:	66 41 0f 69 c0       	punpckhwd %xmm8,%xmm0
                in[i].r = (float)(audio_data->pcm_buffer[pcm_offset + i*2] + 
    a7fb:	66 0f fe c2          	paddd  %xmm2,%xmm0
    a7ff:	0f 5b c9             	cvtdq2ps %xmm1,%xmm1
                                  audio_data->pcm_buffer[pcm_offset + i*2 + 1]) / 2.0f / 32768.0f;
    a802:	0f 59 cf             	mulps  %xmm7,%xmm1
                in[i].r = (float)(audio_data->pcm_buffer[pcm_offset + i*2] + 
    a805:	0f 5b c0             	cvtdq2ps %xmm0,%xmm0
                                  audio_data->pcm_buffer[pcm_offset + i*2 + 1]) / 2.0f / 32768.0f;
    a808:	0f 59 c7             	mulps  %xmm7,%xmm0
    a80b:	0f 59 cb             	mulps  %xmm3,%xmm1
    a80e:	0f 59 c3             	mulps  %xmm3,%xmm0
            in[i].i = 0;
    a811:	0f 28 d1             	movaps %xmm1,%xmm2
    a814:	0f 15 cd             	unpckhps %xmm5,%xmm1
    a817:	0f 29 48 d0          	movaps %xmm1,-0x30(%rax)
    a81b:	0f 28 c8             	movaps %xmm0,%xmm1
    a81e:	0f 14 d5             	unpcklps %xmm5,%xmm2
    a821:	0f 15 c5             	unpckhps %xmm5,%xmm0
    a824:	0f 14 cd             	unpcklps %xmm5,%xmm1
    a827:	0f 29 50 c0          	movaps %xmm2,-0x40(%rax)
    a82b:	0f 29 48 e0          	movaps %xmm1,-0x20(%rax)
    a82f:	0f 29 40 f0          	movaps %xmm0,-0x10(%rax)
        for (int i = 0; i < FRAME_SIZE; i++) {
    a833:	4c 39 e8             	cmp    %r13,%rax
    a836:	0f 85 44 ff ff ff    	jne    a780 <analyze_audio_to_file+0x340>
    a83c:	e9 62 fd ff ff       	jmp    a5a3 <analyze_audio_to_file+0x163>
                    double time = (double)pcm_offset / (audio_data->channels * audio_data->sample_rate);
    a841:	41 0f af 56 14       	imul   0x14(%r14),%edx
    a846:	66 0f ef c0          	pxor   %xmm0,%xmm0
    a84a:	66 0f ef c9          	pxor   %xmm1,%xmm1
  return __fprintf_chk (__stream, __USE_FORTIFY_LEVEL - 1, __fmt,
    a84e:	48 8b 4c 24 28       	mov    0x28(%rsp),%rcx
    a853:	f2 49 0f 2a c7       	cvtsi2sd %r15,%xmm0
    a858:	48 8b 7c 24 20       	mov    0x20(%rsp),%rdi
    a85d:	be 02 00 00 00       	mov    $0x2,%esi
    a862:	b8 01 00 00 00       	mov    $0x1,%eax
    a867:	f2 0f 2a ca          	cvtsi2sd %edx,%xmm1
    a86b:	48 8d 15 b7 48 00 00 	lea    0x48b7(%rip),%rdx        # f129 <_IO_stdin_used+0x129>
    a872:	f2 0f 5e c1          	divsd  %xmm1,%xmm0
    a876:	e8 75 7b ff ff       	call   23f0 <__fprintf_chk@plt>
#endif

__fortify_function char *
__NTH (strcpy (char *__restrict __dest, const char *__restrict __src))
{
  return __builtin___strcpy_chk (__dest, __src, __glibc_objsize (__dest));
    a87b:	48 8b 74 24 28       	mov    0x28(%rsp),%rsi
    a880:	48 8b 7c 24 18       	mov    0x18(%rsp),%rdi
    a885:	ba 05 00 00 00       	mov    $0x5,%edx
    a88a:	e8 c1 7c ff ff       	call   2550 <__strcpy_chk@plt>
    a88f:	0f 28 1d ba 6e 00 00 	movaps 0x6eba(%rip),%xmm3        # 11750 <g_pow43+0x330>
    a896:	e9 57 fe ff ff       	jmp    a6f2 <analyze_audio_to_file+0x2b2>
  return __printf_chk (__USE_FORTIFY_LEVEL - 1, __fmt, __va_arg_pack ());
    a89b:	48 8b 54 24 10       	mov    0x10(%rsp),%rdx
    a8a0:	48 8d 35 49 4b 00 00 	lea    0x4b49(%rip),%rsi        # f3f0 <_IO_stdin_used+0x3f0>
    a8a7:	bf 02 00 00 00       	mov    $0x2,%edi
    a8ac:	e8 4f 7d ff ff       	call   2600 <__printf_chk@plt>
        kiss_fft_free(cfg);
    a8b1:	48 8b 84 24 38 00 01 	mov    0x10038(%rsp),%rax
    a8b8:	00 
    a8b9:	64 48 2b 04 25 28 00 	sub    %fs:0x28,%rax
    a8c0:	00 00 
    a8c2:	75 19                	jne    a8dd <analyze_audio_to_file+0x49d>
    a8c4:	48 81 c4 48 00 01 00 	add    $0x10048,%rsp
        kiss_fft_free(cfg);
    a8cb:	48 89 ef             	mov    %rbp,%rdi
    a8ce:	5b                   	pop    %rbx
    a8cf:	5d                   	pop    %rbp
    a8d0:	41 5c                	pop    %r12
    a8d2:	41 5d                	pop    %r13
    a8d4:	41 5e                	pop    %r14
    a8d6:	41 5f                	pop    %r15
        kiss_fft_free(cfg);
    a8d8:	e9 e3 7a ff ff       	jmp    23c0 <free@plt>
    a8dd:	e8 2e 7b ff ff       	call   2410 <__stack_chk_fail@plt>
    a8e2:	66 2e 0f 1f 84 00 00 	cs nopw 0x0(%rax,%rax,1)
    a8e9:	00 00 00 
    a8ec:	0f 1f 40 00          	nopl   0x0(%rax)

000000000000a8f0 <kf_work>:
        const size_t fstride,
        int in_stride,
        int * factors,
        const kiss_fft_cfg st
        )
{
    a8f0:	41 57                	push   %r15
    a8f2:	48 89 f0             	mov    %rsi,%rax
    a8f5:	48 63 f1             	movslq %ecx,%rsi
    a8f8:	49 89 d7             	mov    %rdx,%r15
    a8fb:	41 56                	push   %r14
    a8fd:	48 89 f2             	mov    %rsi,%rdx
#endif

    if (m==1) {
        do{
            *Fout = *f;
            f += fstride*in_stride;
    a900:	49 0f af f7          	imul   %r15,%rsi
{
    a904:	41 55                	push   %r13
    a906:	49 89 fd             	mov    %rdi,%r13
    a909:	41 54                	push   %r12
    a90b:	55                   	push   %rbp
            f += fstride*in_stride;
    a90c:	48 c1 e6 03          	shl    $0x3,%rsi
{
    a910:	53                   	push   %rbx
    a911:	48 83 ec 58          	sub    $0x58,%rsp
    const int m=*factors++; /* stage's fft length/p */
    a915:	41 8b 78 04          	mov    0x4(%r8),%edi
    const int p=*factors++; /* the radix  */
    a919:	45 8b 20             	mov    (%r8),%r12d
    const kiss_fft_cpx * Fout_end = Fout + p*m;
    a91c:	89 f9                	mov    %edi,%ecx
    const int m=*factors++; /* stage's fft length/p */
    a91e:	89 7c 24 04          	mov    %edi,0x4(%rsp)
    const kiss_fft_cpx * Fout_end = Fout + p*m;
    a922:	41 0f af cc          	imul   %r12d,%ecx
    a926:	48 63 c9             	movslq %ecx,%rcx
    a929:	4d 8d 54 cd 00       	lea    0x0(%r13,%rcx,8),%r10
    if (m==1) {
    a92e:	83 ff 01             	cmp    $0x1,%edi
    a931:	0f 84 65 04 00 00    	je     ad9c <kf_work+0x4ac>
        do{
            // recursive call:
            // DFT of size m*p performed by doing
            // p instances of smaller DFTs of size m,
            // each one takes a decimated version of the input
            kf_work( Fout , f, fstride*p, in_stride, factors,st);
    a937:	4d 63 f4             	movslq %r12d,%r14
    const int m=*factors++; /* stage's fft length/p */
    a93a:	49 8d 78 08          	lea    0x8(%r8),%rdi
            f += fstride*in_stride;
        }while( (Fout += m) != Fout_end );
    a93e:	48 63 6c 24 04       	movslq 0x4(%rsp),%rbp
    a943:	89 54 24 10          	mov    %edx,0x10(%rsp)
            kf_work( Fout , f, fstride*p, in_stride, factors,st);
    a947:	4d 0f af f7          	imul   %r15,%r14
    const int m=*factors++; /* stage's fft length/p */
    a94b:	48 89 7c 24 08       	mov    %rdi,0x8(%rsp)
        }while( (Fout += m) != Fout_end );
    a950:	4c 89 eb             	mov    %r13,%rbx
    a953:	44 89 64 24 28       	mov    %r12d,0x28(%rsp)
    a958:	48 c1 e5 03          	shl    $0x3,%rbp
    a95c:	4d 89 d4             	mov    %r10,%r12
    a95f:	4c 89 6c 24 30       	mov    %r13,0x30(%rsp)
    a964:	49 89 f5             	mov    %rsi,%r13
    a967:	4c 89 74 24 20       	mov    %r14,0x20(%rsp)
    a96c:	4d 89 ce             	mov    %r9,%r14
    a96f:	4c 89 7c 24 38       	mov    %r15,0x38(%rsp)
    a974:	49 89 df             	mov    %rbx,%r15
    a977:	48 89 c3             	mov    %rax,%rbx
            kf_work( Fout , f, fstride*p, in_stride, factors,st);
    a97a:	4c 8b 44 24 08       	mov    0x8(%rsp),%r8
    a97f:	8b 4c 24 10          	mov    0x10(%rsp),%ecx
    a983:	48 89 de             	mov    %rbx,%rsi
    a986:	4c 89 ff             	mov    %r15,%rdi
    a989:	48 8b 54 24 20       	mov    0x20(%rsp),%rdx
    a98e:	4d 89 f1             	mov    %r14,%r9
        }while( (Fout += m) != Fout_end );
    a991:	49 01 ef             	add    %rbp,%r15
            f += fstride*in_stride;
    a994:	4c 01 eb             	add    %r13,%rbx
            kf_work( Fout , f, fstride*p, in_stride, factors,st);
    a997:	e8 54 ff ff ff       	call   a8f0 <kf_work>
        }while( (Fout += m) != Fout_end );
    a99c:	4d 39 fc             	cmp    %r15,%r12
    a99f:	75 d9                	jne    a97a <kf_work+0x8a>
    a9a1:	44 8b 64 24 28       	mov    0x28(%rsp),%r12d
    a9a6:	4c 8b 6c 24 30       	mov    0x30(%rsp),%r13
    a9ab:	4d 89 f1             	mov    %r14,%r9
    }

    Fout=Fout_beg;

    // recombine the p smaller DFTs
    switch (p) {
    a9ae:	4c 8b 7c 24 38       	mov    0x38(%rsp),%r15
    a9b3:	41 83 fc 04          	cmp    $0x4,%r12d
    a9b7:	0f 84 00 04 00 00    	je     adbd <kf_work+0x4cd>
    a9bd:	0f 8f 88 05 00 00    	jg     af4b <kf_work+0x65b>
    a9c3:	41 83 fc 02          	cmp    $0x2,%r12d
    a9c7:	0f 84 ca 09 00 00    	je     b397 <kf_work+0xaa7>
    a9cd:	41 83 fc 03          	cmp    $0x3,%r12d
    a9d1:	0f 85 bb 08 00 00    	jne    b292 <kf_work+0x9a2>
        case 2: kf_bfly2(Fout,fstride,st,m); break;
        case 3: kf_bfly3(Fout,fstride,st,m); break;
    a9d7:	48 63 4c 24 04       	movslq 0x4(%rsp),%rcx
     epi3 = st->twiddles[fstride*m];
    a9dc:	48 89 c8             	mov    %rcx,%rax
         C_MUL(scratch[2],Fout[m2] , *tw2);
    a9df:	48 89 cd             	mov    %rcx,%rbp
         C_MUL(scratch[1],Fout[m] , *tw1);
    a9e2:	4c 8d 04 cd 00 00 00 	lea    0x0(,%rcx,8),%r8
    a9e9:	00 
     epi3 = st->twiddles[fstride*m];
    a9ea:	49 0f af c7          	imul   %r15,%rax
         C_MUL(scratch[2],Fout[m2] , *tw2);
    a9ee:	48 c1 e5 04          	shl    $0x4,%rbp
     epi3 = st->twiddles[fstride*m];
    a9f2:	f3 41 0f 10 a4 c1 0c 	movss  0x10c(%r9,%rax,8),%xmm4
    a9f9:	01 00 00 
     tw1=tw2=st->twiddles;
    a9fc:	49 8d 81 08 01 00 00 	lea    0x108(%r9),%rax
    aa03:	0f 28 d4             	movaps %xmm4,%xmm2
    aa06:	0f c6 d2 e0          	shufps $0xe0,%xmm2,%xmm2
    aa0a:	49 83 ff 01          	cmp    $0x1,%r15
    aa0e:	0f 85 1a 0e 00 00    	jne    b82e <kf_work+0xf3e>
    aa14:	49 8d 74 2d fc       	lea    -0x4(%r13,%rbp,1),%rsi
    aa19:	4c 8d 34 49          	lea    (%rcx,%rcx,2),%r14
    aa1d:	48 39 c6             	cmp    %rax,%rsi
    aa20:	48 8d 79 ff          	lea    -0x1(%rcx),%rdi
    aa24:	4f 8d 74 f5 fc       	lea    -0x4(%r13,%r14,8),%r14
    aa29:	41 0f 92 c7          	setb   %r15b
    aa2d:	48 89 7c 24 08       	mov    %rdi,0x8(%rsp)
    aa32:	48 c1 e7 04          	shl    $0x4,%rdi
    aa36:	49 39 c6             	cmp    %rax,%r14
    aa39:	4f 8d 74 05 fc       	lea    -0x4(%r13,%r8,1),%r14
    aa3e:	4d 8d 60 10          	lea    0x10(%r8),%r12
    aa42:	0f 92 44 24 20       	setb   0x20(%rsp)
    aa47:	49 39 c6             	cmp    %rax,%r14
    aa4a:	48 8d 5d 10          	lea    0x10(%rbp),%rbx
    aa4e:	4d 8d 5d 10          	lea    0x10(%r13),%r11
    aa52:	41 0f 92 c6          	setb   %r14b
    aa56:	49 39 ec             	cmp    %rbp,%r12
    aa59:	4b 8d 54 05 00       	lea    0x0(%r13,%r8,1),%rdx
    aa5e:	40 0f 9e c5          	setle  %bpl
    aa62:	4c 39 c3             	cmp    %r8,%rbx
    aa65:	4a 8d 34 02          	lea    (%rdx,%r8,1),%rsi
    aa69:	41 0f 9e c0          	setle  %r8b
    aa6d:	4d 8d 94 39 0c 01 00 	lea    0x10c(%r9,%rdi,1),%r10
    aa74:	00 
    aa75:	0f b6 7c 24 20       	movzbl 0x20(%rsp),%edi
    aa7a:	44 09 c5             	or     %r8d,%ebp
    aa7d:	4d 85 e4             	test   %r12,%r12
    aa80:	41 0f 9e c0          	setle  %r8b
    aa84:	4c 39 da             	cmp    %r11,%rdx
    aa87:	41 0f 93 c4          	setae  %r12b
    aa8b:	45 09 e0             	or     %r12d,%r8d
    aa8e:	44 21 c5             	and    %r8d,%ebp
    aa91:	48 85 db             	test   %rbx,%rbx
    aa94:	49 8d 9c c9 04 01 00 	lea    0x104(%r9,%rcx,8),%rbx
    aa9b:	00 
    aa9c:	41 0f 9e c0          	setle  %r8b
    aaa0:	4c 39 de             	cmp    %r11,%rsi
    aaa3:	41 0f 93 c3          	setae  %r11b
    aaa7:	45 09 d8             	or     %r11d,%r8d
    aaaa:	41 21 e8             	and    %ebp,%r8d
    aaad:	48 39 d3             	cmp    %rdx,%rbx
    aab0:	41 0f 92 c3          	setb   %r11b
    aab4:	45 09 fb             	or     %r15d,%r11d
    aab7:	45 21 c3             	and    %r8d,%r11d
    aaba:	49 39 d2             	cmp    %rdx,%r10
    aabd:	41 0f 92 c0          	setb   %r8b
    aac1:	45 09 f8             	or     %r15d,%r8d
    aac4:	45 21 d8             	and    %r11d,%r8d
    aac7:	48 39 f3             	cmp    %rsi,%rbx
    aaca:	41 0f 92 c3          	setb   %r11b
    aace:	41 09 fb             	or     %edi,%r11d
    aad1:	45 21 c3             	and    %r8d,%r11d
    aad4:	49 39 f2             	cmp    %rsi,%r10
    aad7:	41 0f 92 c0          	setb   %r8b
    aadb:	41 09 f8             	or     %edi,%r8d
    aade:	45 21 d8             	and    %r11d,%r8d
    aae1:	4c 39 eb             	cmp    %r13,%rbx
    aae4:	41 0f 92 c3          	setb   %r11b
    aae8:	45 09 f3             	or     %r14d,%r11d
    aaeb:	45 84 d8             	test   %r11b,%r8b
    aaee:	0f 84 97 11 00 00    	je     bc8b <kf_work+0x139b>
    aaf4:	4d 39 ea             	cmp    %r13,%r10
    aaf7:	41 0f 92 c0          	setb   %r8b
    aafb:	45 08 f0             	or     %r14b,%r8b
    aafe:	0f 84 87 11 00 00    	je     bc8b <kf_work+0x139b>
    ab04:	83 7c 24 04 01       	cmpl   $0x1,0x4(%rsp)
    ab09:	0f 84 f4 19 00 00    	je     c503 <kf_work+0x1c13>
    ab0f:	4c 8d 59 fe          	lea    -0x2(%rcx),%r11
    ab13:	4c 89 ef             	mov    %r13,%rdi
         C_MUL(scratch[2],Fout[m2] , *tw2);
    ab16:	49 89 c0             	mov    %rax,%r8
    ab19:	45 31 d2             	xor    %r10d,%r10d
    ab1c:	f3 0f 10 2d c4 6c 00 	movss  0x6cc4(%rip),%xmm5        # 117e8 <g_pow43+0x3c8>
    ab23:	00 
    ab24:	49 d1 eb             	shr    $1,%r11
    ab27:	0f c6 e4 00          	shufps $0x0,%xmm4,%xmm4
    ab2b:	49 83 c3 01          	add    $0x1,%r11
    ab2f:	0f c6 ed 00          	shufps $0x0,%xmm5,%xmm5
         C_MUL(scratch[1],Fout[m] , *tw1);
    ab33:	0f 10 02             	movups (%rdx),%xmm0
    ab36:	f3 0f 7e 08          	movq   (%rax),%xmm1
    ab3a:	49 83 c2 01          	add    $0x1,%r10
    ab3e:	48 83 c7 10          	add    $0x10,%rdi
    ab42:	48 83 c2 10          	add    $0x10,%rdx
    ab46:	48 83 c0 10          	add    $0x10,%rax
    ab4a:	48 83 c6 10          	add    $0x10,%rsi
    ab4e:	49 83 c0 20          	add    $0x20,%r8
    ab52:	0f 16 48 f8          	movhps -0x8(%rax),%xmm1
    ab56:	44 0f 28 d8          	movaps %xmm0,%xmm11
    ab5a:	44 0f c6 d8 a0       	shufps $0xa0,%xmm0,%xmm11
    ab5f:	0f 28 f1             	movaps %xmm1,%xmm6
    ab62:	45 0f 28 c3          	movaps %xmm11,%xmm8
    ab66:	0f 28 d9             	movaps %xmm1,%xmm3
    ab69:	44 0f 59 c1          	mulps  %xmm1,%xmm8
    ab6d:	0f c6 f1 b1          	shufps $0xb1,%xmm1,%xmm6
    ab71:	0f c6 c0 f5          	shufps $0xf5,%xmm0,%xmm0
         C_MUL(scratch[2],Fout[m2] , *tw2);
    ab75:	0f 10 4e f0          	movups -0x10(%rsi),%xmm1
         C_MUL(scratch[1],Fout[m] , *tw1);
    ab79:	0f 59 d8             	mulps  %xmm0,%xmm3
    ab7c:	44 0f 59 de          	mulps  %xmm6,%xmm11
         C_MUL(scratch[2],Fout[m2] , *tw2);
    ab80:	44 0f 28 e1          	movaps %xmm1,%xmm12
         C_MUL(scratch[1],Fout[m] , *tw1);
    ab84:	0f 59 f0             	mulps  %xmm0,%xmm6
         C_MUL(scratch[2],Fout[m2] , *tw2);
    ab87:	f3 41 0f 7e 40 e0    	movq   -0x20(%r8),%xmm0
    ab8d:	44 0f c6 e1 a0       	shufps $0xa0,%xmm1,%xmm12
    ab92:	41 0f 28 fc          	movaps %xmm12,%xmm7
    ab96:	0f c6 c9 f5          	shufps $0xf5,%xmm1,%xmm1
    ab9a:	41 0f 16 40 f0       	movhps -0x10(%r8),%xmm0
    ab9f:	0f 59 f8             	mulps  %xmm0,%xmm7
    aba2:	44 0f 28 c8          	movaps %xmm0,%xmm9
    aba6:	44 0f c6 c8 b1       	shufps $0xb1,%xmm0,%xmm9
    abab:	0f 59 c1             	mulps  %xmm1,%xmm0
    abae:	45 0f 59 e1          	mulps  %xmm9,%xmm12
    abb2:	44 0f 59 c9          	mulps  %xmm1,%xmm9
    abb6:	0f 28 cf             	movaps %xmm7,%xmm1
    abb9:	44 0f 28 d0          	movaps %xmm0,%xmm10
         C_MUL(scratch[1],Fout[m] , *tw1);
    abbd:	41 0f 28 c3          	movaps %xmm11,%xmm0
    abc1:	44 0f 5c db          	subps  %xmm3,%xmm11
    abc5:	0f 58 c3             	addps  %xmm3,%xmm0
         C_MUL(scratch[2],Fout[m2] , *tw2);
    abc8:	41 0f 28 dc          	movaps %xmm12,%xmm3
    abcc:	45 0f 5c e2          	subps  %xmm10,%xmm12
    abd0:	41 0f 58 da          	addps  %xmm10,%xmm3
    abd4:	41 0f 58 f9          	addps  %xmm9,%xmm7
    abd8:	41 0f 5c c9          	subps  %xmm9,%xmm1
         C_SUB(scratch[0],scratch[1],scratch[2]);
    abdc:	41 0f c6 c3 d8       	shufps $0xd8,%xmm11,%xmm0
    abe1:	0f c6 c0 d8          	shufps $0xd8,%xmm0,%xmm0
    abe5:	41 0f c6 dc d8       	shufps $0xd8,%xmm12,%xmm3
    abea:	0f c6 db d8          	shufps $0xd8,%xmm3,%xmm3
    abee:	0f 5c c3             	subps  %xmm3,%xmm0
         C_MUL(scratch[1],Fout[m] , *tw1);
    abf1:	41 0f 28 d8          	movaps %xmm8,%xmm3
    abf5:	0f 5c de             	subps  %xmm6,%xmm3
    abf8:	44 0f 58 c6          	addps  %xmm6,%xmm8
         C_ADD(scratch[3],scratch[1],scratch[2]);
    abfc:	0f c6 cf d8          	shufps $0xd8,%xmm7,%xmm1
    ac00:	0f c6 c9 d8          	shufps $0xd8,%xmm1,%xmm1
         C_MULBYSCALAR( scratch[0] , epi3.i );
    ac04:	0f 59 c4             	mulps  %xmm4,%xmm0
         C_ADD(scratch[3],scratch[1],scratch[2]);
    ac07:	41 0f c6 d8 d8       	shufps $0xd8,%xmm8,%xmm3
    ac0c:	0f c6 db d8          	shufps $0xd8,%xmm3,%xmm3
    ac10:	0f 58 cb             	addps  %xmm3,%xmm1
         Fout[m].r = Fout->r - HALF_OF(scratch[3].r);
    ac13:	0f 10 5f f0          	movups -0x10(%rdi),%xmm3
    ac17:	0f 28 f1             	movaps %xmm1,%xmm6
    ac1a:	0f 59 f5             	mulps  %xmm5,%xmm6
    ac1d:	0f 5c de             	subps  %xmm6,%xmm3
    ac20:	0f 11 5a f0          	movups %xmm3,-0x10(%rdx)
         C_ADDTO(*Fout,scratch[3]);
    ac24:	0f 10 7f f0          	movups -0x10(%rdi),%xmm7
    ac28:	0f 58 cf             	addps  %xmm7,%xmm1
    ac2b:	0f 11 4f f0          	movups %xmm1,-0x10(%rdi)
         Fout[m2].r = Fout[m].r + scratch[0].i;
    ac2f:	0f 10 4a f0          	movups -0x10(%rdx),%xmm1
         Fout[m2].i = Fout[m].i - scratch[0].r;
    ac33:	0f 10 5a f0          	movups -0x10(%rdx),%xmm3
         Fout[m2].r = Fout[m].r + scratch[0].i;
    ac37:	0f 58 c8             	addps  %xmm0,%xmm1
         Fout[m2].i = Fout[m].i - scratch[0].r;
    ac3a:	0f 5c d8             	subps  %xmm0,%xmm3
         Fout[m2].r = Fout[m].r + scratch[0].i;
    ac3d:	0f c6 cb d8          	shufps $0xd8,%xmm3,%xmm1
    ac41:	0f c6 c9 d8          	shufps $0xd8,%xmm1,%xmm1
    ac45:	0f 11 4e f0          	movups %xmm1,-0x10(%rsi)
         Fout[m].r -= scratch[0].i;
    ac49:	0f 10 4a f0          	movups -0x10(%rdx),%xmm1
         Fout[m].i += scratch[0].r;
    ac4d:	0f 10 5a f0          	movups -0x10(%rdx),%xmm3
         Fout[m].r -= scratch[0].i;
    ac51:	0f 5c c8             	subps  %xmm0,%xmm1
         Fout[m].i += scratch[0].r;
    ac54:	0f 58 d8             	addps  %xmm0,%xmm3
         Fout[m].r -= scratch[0].i;
    ac57:	0f c6 cb d8          	shufps $0xd8,%xmm3,%xmm1
    ac5b:	0f 28 c1             	movaps %xmm1,%xmm0
    ac5e:	0f c6 c1 d8          	shufps $0xd8,%xmm1,%xmm0
    ac62:	0f 11 42 f0          	movups %xmm0,-0x10(%rdx)
     }while(--k);
    ac66:	4d 39 da             	cmp    %r11,%r10
    ac69:	0f 82 c4 fe ff ff    	jb     ab33 <kf_work+0x243>
    ac6f:	4d 01 db             	add    %r11,%r11
    ac72:	4c 39 d9             	cmp    %r11,%rcx
    ac75:	0f 84 12 01 00 00    	je     ad8d <kf_work+0x49d>
    ac7b:	4a 8d 3c 19          	lea    (%rcx,%r11,1),%rdi
    ac7f:	4a 8d 34 dd 00 00 00 	lea    0x0(,%r11,8),%rsi
    ac86:	00 
         C_MUL(scratch[2],Fout[m2] , *tw2);
    ac87:	49 c1 e3 04          	shl    $0x4,%r11
    ac8b:	49 8d 44 fd 00       	lea    0x0(%r13,%rdi,8),%rax
    ac90:	48 01 f9             	add    %rdi,%rcx
         C_MUL(scratch[1],Fout[m] , *tw1);
    ac93:	f3 45 0f 7e 84 31 08 	movq   0x108(%r9,%rsi,1),%xmm8
    ac9a:	01 00 00 
         C_MUL(scratch[2],Fout[m2] , *tw2);
    ac9d:	f3 43 0f 7e bc 19 08 	movq   0x108(%r9,%r11,1),%xmm7
    aca4:	01 00 00 
         C_MUL(scratch[1],Fout[m] , *tw1);
    aca7:	f3 0f 7e 18          	movq   (%rax),%xmm3
    acab:	49 8d 4c cd 00       	lea    0x0(%r13,%rcx,8),%rcx
    acb0:	49 8d 54 35 00       	lea    0x0(%r13,%rsi,1),%rdx
         C_MUL(scratch[2],Fout[m2] , *tw2);
    acb5:	f3 0f 7e 21          	movq   (%rcx),%xmm4
         C_MUL(scratch[1],Fout[m] , *tw1);
    acb9:	41 0f 28 e8          	movaps %xmm8,%xmm5
         C_MUL(scratch[2],Fout[m2] , *tw2);
    acbd:	44 0f 28 cf          	movaps %xmm7,%xmm9
         C_MUL(scratch[1],Fout[m] , *tw1);
    acc1:	0f 28 c3             	movaps %xmm3,%xmm0
    acc4:	0f c6 ed e1          	shufps $0xe1,%xmm5,%xmm5
    acc8:	0f c6 db e5          	shufps $0xe5,%xmm3,%xmm3
         C_MUL(scratch[2],Fout[m2] , *tw2);
    accc:	45 0f c6 c9 e1       	shufps $0xe1,%xmm9,%xmm9
         C_MUL(scratch[1],Fout[m] , *tw1);
    acd1:	0f c6 c0 e0          	shufps $0xe0,%xmm0,%xmm0
    acd5:	0f 28 c8             	movaps %xmm0,%xmm1
    acd8:	41 0f 59 c8          	mulps  %xmm8,%xmm1
    acdc:	0f 59 c5             	mulps  %xmm5,%xmm0
    acdf:	44 0f 59 c3          	mulps  %xmm3,%xmm8
    ace3:	0f 59 eb             	mulps  %xmm3,%xmm5
         C_MUL(scratch[2],Fout[m2] , *tw2);
    ace6:	0f 28 dc             	movaps %xmm4,%xmm3
    ace9:	0f c6 e4 e5          	shufps $0xe5,%xmm4,%xmm4
    aced:	0f c6 db e0          	shufps $0xe0,%xmm3,%xmm3
    acf1:	0f 28 f3             	movaps %xmm3,%xmm6
    acf4:	41 0f 59 d9          	mulps  %xmm9,%xmm3
    acf8:	0f 59 f7             	mulps  %xmm7,%xmm6
         C_MUL(scratch[1],Fout[m] , *tw1);
    acfb:	44 0f 28 d0          	movaps %xmm0,%xmm10
         C_MUL(scratch[2],Fout[m2] , *tw2);
    acff:	0f 59 fc             	mulps  %xmm4,%xmm7
         C_MUL(scratch[1],Fout[m] , *tw1);
    ad02:	45 0f 58 d0          	addps  %xmm8,%xmm10
    ad06:	41 0f 5c c0          	subps  %xmm8,%xmm0
         C_MUL(scratch[2],Fout[m2] , *tw2);
    ad0a:	41 0f 59 e1          	mulps  %xmm9,%xmm4
    ad0e:	44 0f 28 c3          	movaps %xmm3,%xmm8
         C_SUB(scratch[0],scratch[1],scratch[2]);
    ad12:	f3 41 0f 10 c2       	movss  %xmm10,%xmm0
         C_MUL(scratch[2],Fout[m2] , *tw2);
    ad17:	44 0f 58 c7          	addps  %xmm7,%xmm8
    ad1b:	0f 5c df             	subps  %xmm7,%xmm3
         C_SUB(scratch[0],scratch[1],scratch[2]);
    ad1e:	f3 41 0f 10 d8       	movss  %xmm8,%xmm3
    ad23:	0f 5c c3             	subps  %xmm3,%xmm0
         Fout[m].r = Fout->r - HALF_OF(scratch[3].r);
    ad26:	f3 0f 7e 1d ba 6a 00 	movq   0x6aba(%rip),%xmm3        # 117e8 <g_pow43+0x3c8>
    ad2d:	00 
         C_MULBYSCALAR( scratch[0] , epi3.i );
    ad2e:	0f 59 c2             	mulps  %xmm2,%xmm0
         C_MUL(scratch[1],Fout[m] , *tw1);
    ad31:	0f 28 d1             	movaps %xmm1,%xmm2
    ad34:	0f 58 cd             	addps  %xmm5,%xmm1
    ad37:	0f 5c d5             	subps  %xmm5,%xmm2
         C_ADD(scratch[3],scratch[1],scratch[2]);
    ad3a:	f3 0f 10 ca          	movss  %xmm2,%xmm1
         C_MUL(scratch[2],Fout[m2] , *tw2);
    ad3e:	0f 28 d6             	movaps %xmm6,%xmm2
    ad41:	0f 58 f4             	addps  %xmm4,%xmm6
    ad44:	0f 5c d4             	subps  %xmm4,%xmm2
         C_ADD(scratch[3],scratch[1],scratch[2]);
    ad47:	f3 0f 10 f2          	movss  %xmm2,%xmm6
         Fout[m].r = Fout->r - HALF_OF(scratch[3].r);
    ad4b:	f3 0f 7e 12          	movq   (%rdx),%xmm2
         C_ADD(scratch[3],scratch[1],scratch[2]);
    ad4f:	0f 58 ce             	addps  %xmm6,%xmm1
         Fout[m].r = Fout->r - HALF_OF(scratch[3].r);
    ad52:	0f 59 d9             	mulps  %xmm1,%xmm3
    ad55:	0f 5c d3             	subps  %xmm3,%xmm2
    ad58:	0f 13 10             	movlps %xmm2,(%rax)
         C_ADDTO(*Fout,scratch[3]);
    ad5b:	f3 0f 7e 12          	movq   (%rdx),%xmm2
    ad5f:	0f 58 d1             	addps  %xmm1,%xmm2
    ad62:	0f 13 12             	movlps %xmm2,(%rdx)
         Fout[m2].r = Fout[m].r + scratch[0].i;
    ad65:	f3 0f 7e 08          	movq   (%rax),%xmm1
    ad69:	0f 28 d0             	movaps %xmm0,%xmm2
    ad6c:	0f 58 d1             	addps  %xmm1,%xmm2
         Fout[m2].i = Fout[m].i - scratch[0].r;
    ad6f:	0f 5c c8             	subps  %xmm0,%xmm1
         Fout[m2].r = Fout[m].r + scratch[0].i;
    ad72:	f3 0f 10 ca          	movss  %xmm2,%xmm1
    ad76:	0f 13 09             	movlps %xmm1,(%rcx)
         Fout[m].r -= scratch[0].i;
    ad79:	f3 0f 7e 08          	movq   (%rax),%xmm1
    ad7d:	0f 28 d1             	movaps %xmm1,%xmm2
         Fout[m].i += scratch[0].r;
    ad80:	0f 58 c8             	addps  %xmm0,%xmm1
         Fout[m].r -= scratch[0].i;
    ad83:	0f 5c d0             	subps  %xmm0,%xmm2
    ad86:	f3 0f 10 ca          	movss  %xmm2,%xmm1
    ad8a:	0f 13 08             	movlps %xmm1,(%rax)
        case 4: kf_bfly4(Fout,fstride,st,m); break;
        case 5: kf_bfly5(Fout,fstride,st,m); break;
        default: kf_bfly_generic(Fout,fstride,st,m,p); break;
    }
}
    ad8d:	48 83 c4 58          	add    $0x58,%rsp
    ad91:	5b                   	pop    %rbx
    ad92:	5d                   	pop    %rbp
    ad93:	41 5c                	pop    %r12
    ad95:	41 5d                	pop    %r13
    ad97:	41 5e                	pop    %r14
    ad99:	41 5f                	pop    %r15
    ad9b:	c3                   	ret
    ad9c:	4c 89 ea             	mov    %r13,%rdx
    ad9f:	90                   	nop
            *Fout = *f;
    ada0:	48 8b 08             	mov    (%rax),%rcx
        }while(++Fout != Fout_end );
    ada3:	48 83 c2 08          	add    $0x8,%rdx
            f += fstride*in_stride;
    ada7:	48 01 f0             	add    %rsi,%rax
            *Fout = *f;
    adaa:	48 89 4a f8          	mov    %rcx,-0x8(%rdx)
        }while(++Fout != Fout_end );
    adae:	49 39 d2             	cmp    %rdx,%r10
    adb1:	75 ed                	jne    ada0 <kf_work+0x4b0>
    switch (p) {
    adb3:	41 83 fc 04          	cmp    $0x4,%r12d
    adb7:	0f 85 00 fc ff ff    	jne    a9bd <kf_work+0xcd>
    tw3 = tw2 = tw1 = st->twiddles;
    adbd:	41 8b 71 04          	mov    0x4(%r9),%esi
        tw2 += fstride*2;
    adc1:	4d 89 f8             	mov    %r15,%r8
        tw3 += fstride*3;
    adc4:	4b 8d 0c 7f          	lea    (%r15,%r15,2),%rcx
        tw1 += fstride;
    adc8:	4a 8d 3c fd 00 00 00 	lea    0x0(,%r15,8),%rdi
    adcf:	00 
        tw2 += fstride*2;
    add0:	49 c1 e0 04          	shl    $0x4,%r8
        tw3 += fstride*3;
    add4:	48 c1 e1 03          	shl    $0x3,%rcx
    add8:	85 f6                	test   %esi,%esi
    adda:	0f 85 26 07 00 00    	jne    b506 <kf_work+0xc16>
    ade0:	49 83 ff 01          	cmp    $0x1,%r15
    ade4:	0f 85 b6 15 00 00    	jne    c3a0 <kf_work+0x1ab0>
    adea:	4c 63 44 24 04       	movslq 0x4(%rsp),%r8
    adef:	49 81 c1 08 01 00 00 	add    $0x108,%r9
        if(st->inverse) {
    adf6:	4d 89 ca             	mov    %r9,%r10
    adf9:	4c 89 ca             	mov    %r9,%rdx
    adfc:	4c 89 c1             	mov    %r8,%rcx
    adff:	4c 89 c0             	mov    %r8,%rax
    ae02:	48 c1 e1 04          	shl    $0x4,%rcx
    ae06:	48 f7 d8             	neg    %rax
    ae09:	49 8d 7c 0d 00       	lea    0x0(%r13,%rcx,1),%rdi
    ae0e:	48 8d 34 c7          	lea    (%rdi,%rax,8),%rsi
    ae12:	31 c0                	xor    %eax,%eax
    ae14:	48 01 f1             	add    %rsi,%rcx
        C_MUL(scratch[0],Fout[m] , *tw1 );
    ae17:	f3 0f 7e 32          	movq   (%rdx),%xmm6
    ae1b:	f3 0f 7e 14 c6       	movq   (%rsi,%rax,8),%xmm2
    ae20:	49 83 c1 10          	add    $0x10,%r9
    ae24:	48 83 c2 08          	add    $0x8,%rdx
        C_MUL(scratch[1],Fout[m2] , *tw2 );
    ae28:	f3 0f 7e 1c c7       	movq   (%rdi,%rax,8),%xmm3
    ae2d:	f3 41 0f 7e 61 f0    	movq   -0x10(%r9),%xmm4
    ae33:	49 83 c2 18          	add    $0x18,%r10
        C_MUL(scratch[0],Fout[m] , *tw1 );
    ae37:	0f 28 c2             	movaps %xmm2,%xmm0
    ae3a:	44 0f 28 ce          	movaps %xmm6,%xmm9
    ae3e:	0f c6 d2 e5          	shufps $0xe5,%xmm2,%xmm2
        C_MUL(scratch[2],Fout[m3] , *tw3 );
    ae42:	f3 41 0f 7e 6a e8    	movq   -0x18(%r10),%xmm5
        C_MUL(scratch[0],Fout[m] , *tw1 );
    ae48:	45 0f c6 c9 e1       	shufps $0xe1,%xmm9,%xmm9
    ae4d:	0f c6 c0 e0          	shufps $0xe0,%xmm0,%xmm0
    ae51:	0f 28 c8             	movaps %xmm0,%xmm1
        C_MUL(scratch[2],Fout[m3] , *tw3 );
    ae54:	f3 0f 7e 3c c1       	movq   (%rcx,%rax,8),%xmm7
        C_MUL(scratch[0],Fout[m] , *tw1 );
    ae59:	41 0f 59 c9          	mulps  %xmm9,%xmm1
        C_MUL(scratch[2],Fout[m3] , *tw3 );
    ae5d:	44 0f 28 c5          	movaps %xmm5,%xmm8
        C_MUL(scratch[0],Fout[m] , *tw1 );
    ae61:	44 0f 59 ca          	mulps  %xmm2,%xmm9
        C_MUL(scratch[2],Fout[m3] , *tw3 );
    ae65:	45 0f c6 c0 e1       	shufps $0xe1,%xmm8,%xmm8
        C_MUL(scratch[0],Fout[m] , *tw1 );
    ae6a:	0f 59 c6             	mulps  %xmm6,%xmm0
    ae6d:	0f 59 f2             	mulps  %xmm2,%xmm6
        C_MUL(scratch[1],Fout[m2] , *tw2 );
    ae70:	0f 28 d3             	movaps %xmm3,%xmm2
    ae73:	0f c6 db e5          	shufps $0xe5,%xmm3,%xmm3
    ae77:	0f c6 d2 e0          	shufps $0xe0,%xmm2,%xmm2
    ae7b:	0f 59 d4             	mulps  %xmm4,%xmm2
    ae7e:	0f c6 e4 e1          	shufps $0xe1,%xmm4,%xmm4
    ae82:	0f 59 dc             	mulps  %xmm4,%xmm3
        C_MUL(scratch[0],Fout[m] , *tw1 );
    ae85:	44 0f 28 d0          	movaps %xmm0,%xmm10
    ae89:	41 0f 58 c1          	addps  %xmm9,%xmm0
    ae8d:	45 0f 5c d1          	subps  %xmm9,%xmm10
        C_MUL(scratch[1],Fout[m2] , *tw2 );
    ae91:	0f 28 e2             	movaps %xmm2,%xmm4
    ae94:	0f 5c e3             	subps  %xmm3,%xmm4
    ae97:	0f 58 d3             	addps  %xmm3,%xmm2
        C_MUL(scratch[2],Fout[m3] , *tw3 );
    ae9a:	0f 28 df             	movaps %xmm7,%xmm3
    ae9d:	0f c6 ff e5          	shufps $0xe5,%xmm7,%xmm7
    aea1:	0f c6 db e0          	shufps $0xe0,%xmm3,%xmm3
        C_ADD( scratch[3] , scratch[0] , scratch[2] );
    aea5:	f3 41 0f 10 c2       	movss  %xmm10,%xmm0
    aeaa:	f3 0f 10 d4          	movss  %xmm4,%xmm2
        C_MUL(scratch[2],Fout[m3] , *tw3 );
    aeae:	0f 28 e3             	movaps %xmm3,%xmm4
    aeb1:	0f 59 dd             	mulps  %xmm5,%xmm3
    aeb4:	41 0f 59 e0          	mulps  %xmm8,%xmm4
    aeb8:	44 0f 59 c7          	mulps  %xmm7,%xmm8
    aebc:	0f 59 ef             	mulps  %xmm7,%xmm5
    aebf:	44 0f 28 cb          	movaps %xmm3,%xmm9
    aec3:	45 0f 5c c8          	subps  %xmm8,%xmm9
    aec7:	41 0f 58 d8          	addps  %xmm8,%xmm3
        C_ADD( scratch[3] , scratch[0] , scratch[2] );
    aecb:	f3 41 0f 10 d9       	movss  %xmm9,%xmm3
    aed0:	0f 58 c3             	addps  %xmm3,%xmm0
        C_MUL(scratch[0],Fout[m] , *tw1 );
    aed3:	0f 28 d9             	movaps %xmm1,%xmm3
    aed6:	0f 5c ce             	subps  %xmm6,%xmm1
    aed9:	0f 58 de             	addps  %xmm6,%xmm3
        C_SUB( scratch[4] , scratch[0] , scratch[2] );
    aedc:	f3 0f 10 cb          	movss  %xmm3,%xmm1
        C_MUL(scratch[2],Fout[m3] , *tw3 );
    aee0:	0f 28 dc             	movaps %xmm4,%xmm3
    aee3:	0f 5c e5             	subps  %xmm5,%xmm4
    aee6:	0f 58 dd             	addps  %xmm5,%xmm3
        C_SUB( scratch[4] , scratch[0] , scratch[2] );
    aee9:	f3 0f 10 e3          	movss  %xmm3,%xmm4
        C_SUB( scratch[5] , *Fout, scratch[1] );
    aeed:	f3 41 0f 7e 5c c5 00 	movq   0x0(%r13,%rax,8),%xmm3
        C_SUB( scratch[4] , scratch[0] , scratch[2] );
    aef4:	0f 5c cc             	subps  %xmm4,%xmm1
        C_ADDTO(*Fout, scratch[1]);
    aef7:	0f 28 e3             	movaps %xmm3,%xmm4
        C_SUB( scratch[5] , *Fout, scratch[1] );
    aefa:	0f 5c da             	subps  %xmm2,%xmm3
        C_ADDTO(*Fout, scratch[1]);
    aefd:	0f 58 e2             	addps  %xmm2,%xmm4
            Fout[m].i = scratch[5].i + scratch[4].r;
    af00:	0f 28 d3             	movaps %xmm3,%xmm2
            Fout[m].r = scratch[5].r - scratch[4].i;
    af03:	0f 5c d9             	subps  %xmm1,%xmm3
        C_ADDTO(*Fout, scratch[1]);
    af06:	41 0f 13 64 c5 00    	movlps %xmm4,0x0(%r13,%rax,8)
        C_SUB( Fout[m2], *Fout, scratch[3] );
    af0c:	0f 5c e0             	subps  %xmm0,%xmm4
            Fout[m].i = scratch[5].i + scratch[4].r;
    af0f:	0f 58 d1             	addps  %xmm1,%xmm2
        C_SUB( Fout[m2], *Fout, scratch[3] );
    af12:	0f 13 24 c7          	movlps %xmm4,(%rdi,%rax,8)
        C_ADDTO( *Fout , scratch[3] );
    af16:	f3 41 0f 7e 4c c5 00 	movq   0x0(%r13,%rax,8),%xmm1
    af1d:	0f 58 c8             	addps  %xmm0,%xmm1
            Fout[m].r = scratch[5].r - scratch[4].i;
    af20:	0f 28 c3             	movaps %xmm3,%xmm0
    af23:	f3 0f 10 c2          	movss  %xmm2,%xmm0
            Fout[m3].r = scratch[5].r + scratch[4].i;
    af27:	f3 0f 10 d3          	movss  %xmm3,%xmm2
        C_ADDTO( *Fout , scratch[3] );
    af2b:	41 0f 13 4c c5 00    	movlps %xmm1,0x0(%r13,%rax,8)
            Fout[m].r = scratch[5].r - scratch[4].i;
    af31:	0f 13 04 c6          	movlps %xmm0,(%rsi,%rax,8)
            Fout[m3].r = scratch[5].r + scratch[4].i;
    af35:	0f 13 14 c1          	movlps %xmm2,(%rcx,%rax,8)
    }while(--k);
    af39:	48 83 c0 01          	add    $0x1,%rax
    af3d:	4c 39 c0             	cmp    %r8,%rax
    af40:	0f 82 d1 fe ff ff    	jb     ae17 <kf_work+0x527>
    af46:	e9 42 fe ff ff       	jmp    ad8d <kf_work+0x49d>
    switch (p) {
    af4b:	41 83 fc 05          	cmp    $0x5,%r12d
    af4f:	0f 85 3d 03 00 00    	jne    b292 <kf_work+0x9a2>
    ya = twiddles[fstride*m];
    af55:	48 63 44 24 04       	movslq 0x4(%rsp),%rax
    af5a:	4c 89 f9             	mov    %r15,%rcx
    af5d:	48 0f af c8          	imul   %rax,%rcx
    Fout1=Fout0+m;
    af61:	4c 8d 04 c5 00 00 00 	lea    0x0(,%rax,8),%r8
    af68:	00 
    ya = twiddles[fstride*m];
    af69:	48 c1 e1 03          	shl    $0x3,%rcx
    af6d:	49 8d 94 09 08 01 00 	lea    0x108(%r9,%rcx,1),%rdx
    af74:	00 
    af75:	f3 0f 10 2a          	movss  (%rdx),%xmm5
    af79:	f3 0f 11 6c 24 04    	movss  %xmm5,0x4(%rsp)
    af7f:	f3 0f 10 6a 04       	movss  0x4(%rdx),%xmm5
    yb = twiddles[fstride*2*m];
    af84:	48 01 ca             	add    %rcx,%rdx
    af87:	f3 44 0f 10 62 04    	movss  0x4(%rdx),%xmm12
    ya = twiddles[fstride*m];
    af8d:	f3 0f 11 6c 24 08    	movss  %xmm5,0x8(%rsp)
    yb = twiddles[fstride*2*m];
    af93:	f3 0f 10 2a          	movss  (%rdx),%xmm5
    Fout1=Fout0+m;
    af97:	4b 8d 54 05 00       	lea    0x0(%r13,%r8,1),%rdx
    Fout2=Fout0+2*m;
    af9c:	4a 8d 0c 02          	lea    (%rdx,%r8,1),%rcx
    Fout3=Fout0+3*m;
    afa0:	4a 8d 34 01          	lea    (%rcx,%r8,1),%rsi
    yb = twiddles[fstride*2*m];
    afa4:	f3 0f 11 6c 24 20    	movss  %xmm5,0x20(%rsp)
    Fout4=Fout0+4*m;
    afaa:	4a 8d 3c 06          	lea    (%rsi,%r8,1),%rdi
    for ( u=0; u<m; ++u ) {
    afae:	85 c0                	test   %eax,%eax
    afb0:	0f 8e d7 fd ff ff    	jle    ad8d <kf_work+0x49d>
    afb6:	49 83 ff 01          	cmp    $0x1,%r15
    afba:	0f 85 04 0e 00 00    	jne    bdc4 <kf_work+0x14d4>
    afc0:	f3 0f 10 2d b8 66 00 	movss  0x66b8(%rip),%xmm5        # 11680 <g_pow43+0x260>
    afc7:	00 
    afc8:	4d 89 ca             	mov    %r9,%r10
    afcb:	31 c0                	xor    %eax,%eax
    afcd:	0f 29 6c 24 10       	movaps %xmm5,0x10(%rsp)
    afd2:	66 0f 1f 44 00 00    	nopw   0x0(%rax,%rax,1)
        C_MUL(scratch[1] ,*Fout1, tw[u*fstride]);
    afd8:	f3 0f 10 0c 02       	movss  (%rdx,%rax,1),%xmm1
    afdd:	f3 0f 10 64 02 04    	movss  0x4(%rdx,%rax,1),%xmm4
    for ( u=0; u<m; ++u ) {
    afe3:	49 83 c2 18          	add    $0x18,%r10
        C_MUL(scratch[1] ,*Fout1, tw[u*fstride]);
    afe7:	f3 41 0f 10 84 01 0c 	movss  0x10c(%r9,%rax,1),%xmm0
    afee:	01 00 00 
        C_MUL(scratch[4] ,*Fout4, tw[4*u*fstride]);
    aff1:	f3 44 0f 10 1c 07    	movss  (%rdi,%rax,1),%xmm11
        C_MUL(scratch[3] ,*Fout3, tw[3*u*fstride]);
    aff7:	f3 45 0f 10 82 f0 00 	movss  0xf0(%r10),%xmm8
    affe:	00 00 
        C_MUL(scratch[1] ,*Fout1, tw[u*fstride]);
    b000:	f3 41 0f 10 9c 01 08 	movss  0x108(%r9,%rax,1),%xmm3
    b007:	01 00 00 
    b00a:	0f 28 e8             	movaps %xmm0,%xmm5
        scratch[0] = *Fout0;
    b00d:	f3 45 0f 10 74 05 00 	movss  0x0(%r13,%rax,1),%xmm14
        C_MUL(scratch[2] ,*Fout2, tw[2*u*fstride]);
    b014:	f3 41 0f 10 b4 41 08 	movss  0x108(%r9,%rax,2),%xmm6
    b01b:	01 00 00 
        C_MUL(scratch[1] ,*Fout1, tw[u*fstride]);
    b01e:	f3 0f 59 ec          	mulss  %xmm4,%xmm5
    b022:	0f 28 d3             	movaps %xmm3,%xmm2
        C_MUL(scratch[4] ,*Fout4, tw[4*u*fstride]);
    b025:	f3 45 0f 10 94 81 0c 	movss  0x10c(%r9,%rax,4),%xmm10
    b02c:	01 00 00 
        scratch[0] = *Fout0;
    b02f:	f3 45 0f 10 6c 05 04 	movss  0x4(%r13,%rax,1),%xmm13
        C_MUL(scratch[1] ,*Fout1, tw[u*fstride]);
    b036:	f3 0f 59 c1          	mulss  %xmm1,%xmm0
        scratch[5].r = scratch[0].r + S_MUL(scratch[7].r,ya.r) + S_MUL(scratch[8].r,yb.r);
    b03a:	f3 44 0f 10 7c 24 20 	movss  0x20(%rsp),%xmm15
        C_MUL(scratch[1] ,*Fout1, tw[u*fstride]);
    b041:	f3 0f 59 e3          	mulss  %xmm3,%xmm4
        C_MUL(scratch[2] ,*Fout2, tw[2*u*fstride]);
    b045:	f3 0f 10 1c 01       	movss  (%rcx,%rax,1),%xmm3
        C_MUL(scratch[1] ,*Fout1, tw[u*fstride]);
    b04a:	f3 0f 59 d1          	mulss  %xmm1,%xmm2
        C_MUL(scratch[2] ,*Fout2, tw[2*u*fstride]);
    b04e:	f3 41 0f 10 8c 41 0c 	movss  0x10c(%r9,%rax,2),%xmm1
    b055:	01 00 00 
    b058:	0f 28 f9             	movaps %xmm1,%xmm7
    b05b:	f3 0f 59 cb          	mulss  %xmm3,%xmm1
        C_MUL(scratch[1] ,*Fout1, tw[u*fstride]);
    b05f:	f3 0f 58 e0          	addss  %xmm0,%xmm4
        C_MUL(scratch[2] ,*Fout2, tw[2*u*fstride]);
    b063:	f3 0f 10 44 01 04    	movss  0x4(%rcx,%rax,1),%xmm0
        C_MUL(scratch[1] ,*Fout1, tw[u*fstride]);
    b069:	f3 0f 5c d5          	subss  %xmm5,%xmm2
        C_MUL(scratch[2] ,*Fout2, tw[2*u*fstride]);
    b06d:	0f 28 ee             	movaps %xmm6,%xmm5
    b070:	f3 0f 59 f8          	mulss  %xmm0,%xmm7
    b074:	f3 0f 59 c6          	mulss  %xmm6,%xmm0
        C_MUL(scratch[3] ,*Fout3, tw[3*u*fstride]);
    b078:	f3 0f 10 74 06 04    	movss  0x4(%rsi,%rax,1),%xmm6
        C_MUL(scratch[2] ,*Fout2, tw[2*u*fstride]);
    b07e:	f3 0f 59 eb          	mulss  %xmm3,%xmm5
        C_MUL(scratch[3] ,*Fout3, tw[3*u*fstride]);
    b082:	f3 0f 10 1c 06       	movss  (%rsi,%rax,1),%xmm3
        C_MUL(scratch[2] ,*Fout2, tw[2*u*fstride]);
    b087:	f3 0f 58 c1          	addss  %xmm1,%xmm0
        C_MUL(scratch[3] ,*Fout3, tw[3*u*fstride]);
    b08b:	f3 41 0f 10 8a f4 00 	movss  0xf4(%r10),%xmm1
    b092:	00 00 
        C_MUL(scratch[2] ,*Fout2, tw[2*u*fstride]);
    b094:	f3 0f 5c ef          	subss  %xmm7,%xmm5
        C_MUL(scratch[3] ,*Fout3, tw[3*u*fstride]);
    b098:	41 0f 28 f8          	movaps %xmm8,%xmm7
    b09c:	f3 0f 59 fb          	mulss  %xmm3,%xmm7
    b0a0:	44 0f 28 c9          	movaps %xmm1,%xmm9
    b0a4:	f3 44 0f 59 ce       	mulss  %xmm6,%xmm9
    b0a9:	f3 0f 59 cb          	mulss  %xmm3,%xmm1
        C_MUL(scratch[4] ,*Fout4, tw[4*u*fstride]);
    b0ad:	41 0f 28 da          	movaps %xmm10,%xmm3
        C_MUL(scratch[3] ,*Fout3, tw[3*u*fstride]);
    b0b1:	f3 41 0f 59 f0       	mulss  %xmm8,%xmm6
        C_MUL(scratch[4] ,*Fout4, tw[4*u*fstride]);
    b0b6:	f3 44 0f 10 44 07 04 	movss  0x4(%rdi,%rax,1),%xmm8
    b0bd:	f3 45 0f 59 d3       	mulss  %xmm11,%xmm10
    b0c2:	f3 41 0f 59 d8       	mulss  %xmm8,%xmm3
        C_MUL(scratch[3] ,*Fout3, tw[3*u*fstride]);
    b0c7:	f3 41 0f 5c f9       	subss  %xmm9,%xmm7
    b0cc:	f3 0f 58 f1          	addss  %xmm1,%xmm6
        C_MUL(scratch[4] ,*Fout4, tw[4*u*fstride]);
    b0d0:	f3 41 0f 10 8c 81 08 	movss  0x108(%r9,%rax,4),%xmm1
    b0d7:	01 00 00 
    b0da:	f3 44 0f 59 c1       	mulss  %xmm1,%xmm8
    b0df:	44 0f 28 c9          	movaps %xmm1,%xmm9
    b0e3:	f3 45 0f 59 cb       	mulss  %xmm11,%xmm9
        C_ADD( scratch[8],scratch[2],scratch[3]);
    b0e8:	44 0f 28 df          	movaps %xmm7,%xmm11
    b0ec:	f3 44 0f 58 dd       	addss  %xmm5,%xmm11
        C_SUB( scratch[9],scratch[2],scratch[3]);
    b0f1:	f3 0f 5c ef          	subss  %xmm7,%xmm5
        scratch[5].r = scratch[0].r + S_MUL(scratch[7].r,ya.r) + S_MUL(scratch[8].r,yb.r);
    b0f5:	f3 0f 10 7c 24 04    	movss  0x4(%rsp),%xmm7
        C_MUL(scratch[4] ,*Fout4, tw[4*u*fstride]);
    b0fb:	f3 45 0f 58 c2       	addss  %xmm10,%xmm8
        C_ADD( scratch[8],scratch[2],scratch[3]);
    b100:	44 0f 28 d6          	movaps %xmm6,%xmm10
        C_MUL(scratch[4] ,*Fout4, tw[4*u*fstride]);
    b104:	f3 44 0f 5c cb       	subss  %xmm3,%xmm9
        C_ADD( scratch[8],scratch[2],scratch[3]);
    b109:	f3 44 0f 58 d0       	addss  %xmm0,%xmm10
        C_SUB( scratch[9],scratch[2],scratch[3]);
    b10e:	f3 0f 5c c6          	subss  %xmm6,%xmm0
        Fout0->r += scratch[7].r + scratch[8].r;
    b112:	41 0f 28 f3          	movaps %xmm11,%xmm6
        C_ADD( scratch[7],scratch[1],scratch[4]);
    b116:	41 0f 28 c8          	movaps %xmm8,%xmm1
    b11a:	41 0f 28 d9          	movaps %xmm9,%xmm3
    b11e:	f3 0f 58 cc          	addss  %xmm4,%xmm1
        C_SUB( scratch[10],scratch[1],scratch[4]);
    b122:	f3 41 0f 5c e0       	subss  %xmm8,%xmm4
        C_ADD( scratch[7],scratch[1],scratch[4]);
    b127:	f3 0f 58 da          	addss  %xmm2,%xmm3
        C_SUB( scratch[10],scratch[1],scratch[4]);
    b12b:	f3 41 0f 5c d1       	subss  %xmm9,%xmm2
        scratch[5].r = scratch[0].r + S_MUL(scratch[7].r,ya.r) + S_MUL(scratch[8].r,yb.r);
    b130:	44 0f 28 cf          	movaps %xmm7,%xmm9
        scratch[6].r =  S_MUL(scratch[10].i,ya.i) + S_MUL(scratch[9].i,yb.i);
    b134:	45 0f 28 c4          	movaps %xmm12,%xmm8
        scratch[5].i = scratch[0].i + S_MUL(scratch[7].i,ya.r) + S_MUL(scratch[8].i,yb.r);
    b138:	f3 0f 59 f9          	mulss  %xmm1,%xmm7
        Fout0->r += scratch[7].r + scratch[8].r;
    b13c:	f3 0f 58 f3          	addss  %xmm3,%xmm6
        scratch[5].r = scratch[0].r + S_MUL(scratch[7].r,ya.r) + S_MUL(scratch[8].r,yb.r);
    b140:	f3 44 0f 59 cb       	mulss  %xmm3,%xmm9
        scratch[6].r =  S_MUL(scratch[10].i,ya.i) + S_MUL(scratch[9].i,yb.i);
    b145:	f3 44 0f 59 c0       	mulss  %xmm0,%xmm8
        Fout0->r += scratch[7].r + scratch[8].r;
    b14a:	f3 41 0f 58 f6       	addss  %xmm14,%xmm6
        scratch[5].i = scratch[0].i + S_MUL(scratch[7].i,ya.r) + S_MUL(scratch[8].i,yb.r);
    b14f:	f3 41 0f 58 fd       	addss  %xmm13,%xmm7
        scratch[5].r = scratch[0].r + S_MUL(scratch[7].r,ya.r) + S_MUL(scratch[8].r,yb.r);
    b154:	f3 45 0f 58 ce       	addss  %xmm14,%xmm9
        Fout0->r += scratch[7].r + scratch[8].r;
    b159:	f3 41 0f 11 74 05 00 	movss  %xmm6,0x0(%r13,%rax,1)
        Fout0->i += scratch[7].i + scratch[8].i;
    b160:	41 0f 28 f2          	movaps %xmm10,%xmm6
    b164:	f3 0f 58 f1          	addss  %xmm1,%xmm6
    b168:	f3 41 0f 58 f5       	addss  %xmm13,%xmm6
    b16d:	f3 41 0f 11 74 05 04 	movss  %xmm6,0x4(%r13,%rax,1)
        scratch[5].r = scratch[0].r + S_MUL(scratch[7].r,ya.r) + S_MUL(scratch[8].r,yb.r);
    b174:	41 0f 28 f7          	movaps %xmm15,%xmm6
    b178:	f3 41 0f 59 f3       	mulss  %xmm11,%xmm6
    b17d:	f3 44 0f 58 ce       	addss  %xmm6,%xmm9
        scratch[5].i = scratch[0].i + S_MUL(scratch[7].i,ya.r) + S_MUL(scratch[8].i,yb.r);
    b182:	41 0f 28 f7          	movaps %xmm15,%xmm6
        scratch[6].r =  S_MUL(scratch[10].i,ya.i) + S_MUL(scratch[9].i,yb.i);
    b186:	f3 44 0f 10 7c 24 08 	movss  0x8(%rsp),%xmm15
        scratch[5].i = scratch[0].i + S_MUL(scratch[7].i,ya.r) + S_MUL(scratch[8].i,yb.r);
    b18d:	f3 41 0f 59 f2       	mulss  %xmm10,%xmm6
    b192:	f3 0f 58 fe          	addss  %xmm6,%xmm7
        scratch[6].r =  S_MUL(scratch[10].i,ya.i) + S_MUL(scratch[9].i,yb.i);
    b196:	41 0f 28 f7          	movaps %xmm15,%xmm6
    b19a:	f3 0f 59 f4          	mulss  %xmm4,%xmm6
        scratch[12].r = - S_MUL(scratch[10].i,yb.i) + S_MUL(scratch[9].i,ya.i);
    b19e:	f3 41 0f 59 e4       	mulss  %xmm12,%xmm4
        scratch[6].r =  S_MUL(scratch[10].i,ya.i) + S_MUL(scratch[9].i,yb.i);
    b1a3:	f3 44 0f 58 c6       	addss  %xmm6,%xmm8
        scratch[6].i = -S_MUL(scratch[10].r,ya.i) - S_MUL(scratch[9].r,yb.i);
    b1a8:	41 0f 28 f7          	movaps %xmm15,%xmm6
    b1ac:	45 0f 28 fc          	movaps %xmm12,%xmm15
    b1b0:	f3 44 0f 59 fd       	mulss  %xmm5,%xmm15
    b1b5:	f3 0f 59 f2          	mulss  %xmm2,%xmm6
        scratch[12].i = S_MUL(scratch[10].r,yb.i) - S_MUL(scratch[9].r,ya.i);
    b1b9:	f3 41 0f 59 d4       	mulss  %xmm12,%xmm2
        scratch[6].i = -S_MUL(scratch[10].r,ya.i) - S_MUL(scratch[9].r,yb.i);
    b1be:	0f 57 74 24 10       	xorps  0x10(%rsp),%xmm6
    b1c3:	f3 41 0f 5c f7       	subss  %xmm15,%xmm6
        C_SUB(*Fout1,scratch[5],scratch[6]);
    b1c8:	45 0f 28 f9          	movaps %xmm9,%xmm15
    b1cc:	f3 45 0f 5c f8       	subss  %xmm8,%xmm15
        C_ADD(*Fout4,scratch[5],scratch[6]);
    b1d1:	f3 45 0f 58 c1       	addss  %xmm9,%xmm8
        C_SUB(*Fout1,scratch[5],scratch[6]);
    b1d6:	f3 44 0f 11 3c 02    	movss  %xmm15,(%rdx,%rax,1)
    b1dc:	44 0f 28 ff          	movaps %xmm7,%xmm15
    b1e0:	f3 44 0f 5c fe       	subss  %xmm6,%xmm15
        C_ADD(*Fout4,scratch[5],scratch[6]);
    b1e5:	f3 0f 58 f7          	addss  %xmm7,%xmm6
        scratch[11].r = scratch[0].r + S_MUL(scratch[7].r,yb.r) + S_MUL(scratch[8].r,ya.r);
    b1e9:	f3 0f 10 7c 24 04    	movss  0x4(%rsp),%xmm7
    b1ef:	f3 44 0f 59 df       	mulss  %xmm7,%xmm11
        C_SUB(*Fout1,scratch[5],scratch[6]);
    b1f4:	f3 44 0f 11 7c 02 04 	movss  %xmm15,0x4(%rdx,%rax,1)
        scratch[11].i = scratch[0].i + S_MUL(scratch[7].i,yb.r) + S_MUL(scratch[8].i,ya.r);
    b1fb:	f3 44 0f 59 d7       	mulss  %xmm7,%xmm10
        scratch[12].r = - S_MUL(scratch[10].i,yb.i) + S_MUL(scratch[9].i,ya.i);
    b200:	f3 0f 10 7c 24 08    	movss  0x8(%rsp),%xmm7
        C_ADD(*Fout4,scratch[5],scratch[6]);
    b206:	f3 0f 11 74 07 04    	movss  %xmm6,0x4(%rdi,%rax,1)
        scratch[11].r = scratch[0].r + S_MUL(scratch[7].r,yb.r) + S_MUL(scratch[8].r,ya.r);
    b20c:	f3 0f 10 74 24 20    	movss  0x20(%rsp),%xmm6
        scratch[12].r = - S_MUL(scratch[10].i,yb.i) + S_MUL(scratch[9].i,ya.i);
    b212:	f3 0f 59 c7          	mulss  %xmm7,%xmm0
        C_ADD(*Fout4,scratch[5],scratch[6]);
    b216:	f3 44 0f 11 04 07    	movss  %xmm8,(%rdi,%rax,1)
        scratch[11].r = scratch[0].r + S_MUL(scratch[7].r,yb.r) + S_MUL(scratch[8].r,ya.r);
    b21c:	f3 0f 59 de          	mulss  %xmm6,%xmm3
        scratch[11].i = scratch[0].i + S_MUL(scratch[7].i,yb.r) + S_MUL(scratch[8].i,ya.r);
    b220:	f3 0f 59 ce          	mulss  %xmm6,%xmm1
        scratch[12].i = S_MUL(scratch[10].r,yb.i) - S_MUL(scratch[9].r,ya.i);
    b224:	f3 0f 59 ef          	mulss  %xmm7,%xmm5
        scratch[12].r = - S_MUL(scratch[10].i,yb.i) + S_MUL(scratch[9].i,ya.i);
    b228:	f3 0f 5c c4          	subss  %xmm4,%xmm0
        scratch[11].r = scratch[0].r + S_MUL(scratch[7].r,yb.r) + S_MUL(scratch[8].r,ya.r);
    b22c:	f3 41 0f 58 de       	addss  %xmm14,%xmm3
        scratch[11].i = scratch[0].i + S_MUL(scratch[7].i,yb.r) + S_MUL(scratch[8].i,ya.r);
    b231:	f3 41 0f 58 cd       	addss  %xmm13,%xmm1
        scratch[12].i = S_MUL(scratch[10].r,yb.i) - S_MUL(scratch[9].r,ya.i);
    b236:	f3 0f 5c d5          	subss  %xmm5,%xmm2
        scratch[11].r = scratch[0].r + S_MUL(scratch[7].r,yb.r) + S_MUL(scratch[8].r,ya.r);
    b23a:	f3 44 0f 58 db       	addss  %xmm3,%xmm11
        scratch[11].i = scratch[0].i + S_MUL(scratch[7].i,yb.r) + S_MUL(scratch[8].i,ya.r);
    b23f:	f3 44 0f 58 d1       	addss  %xmm1,%xmm10
        C_ADD(*Fout2,scratch[11],scratch[12]);
    b244:	0f 28 c8             	movaps %xmm0,%xmm1
    b247:	f3 41 0f 58 cb       	addss  %xmm11,%xmm1
        C_SUB(*Fout3,scratch[11],scratch[12]);
    b24c:	f3 44 0f 5c d8       	subss  %xmm0,%xmm11
        C_ADD(*Fout2,scratch[11],scratch[12]);
    b251:	f3 0f 11 0c 01       	movss  %xmm1,(%rcx,%rax,1)
    b256:	0f 28 ca             	movaps %xmm2,%xmm1
    b259:	f3 41 0f 58 ca       	addss  %xmm10,%xmm1
        C_SUB(*Fout3,scratch[11],scratch[12]);
    b25e:	f3 44 0f 5c d2       	subss  %xmm2,%xmm10
        C_ADD(*Fout2,scratch[11],scratch[12]);
    b263:	f3 0f 11 4c 01 04    	movss  %xmm1,0x4(%rcx,%rax,1)
        C_SUB(*Fout3,scratch[11],scratch[12]);
    b269:	f3 44 0f 11 1c 06    	movss  %xmm11,(%rsi,%rax,1)
    b26f:	f3 44 0f 11 54 06 04 	movss  %xmm10,0x4(%rsi,%rax,1)
    for ( u=0; u<m; ++u ) {
    b276:	48 83 c0 08          	add    $0x8,%rax
    b27a:	4c 39 c0             	cmp    %r8,%rax
    b27d:	0f 85 55 fd ff ff    	jne    afd8 <kf_work+0x6e8>
}
    b283:	48 83 c4 58          	add    $0x58,%rsp
    b287:	5b                   	pop    %rbx
    b288:	5d                   	pop    %rbp
    b289:	41 5c                	pop    %r12
    b28b:	41 5d                	pop    %r13
    b28d:	41 5e                	pop    %r14
    b28f:	41 5f                	pop    %r15
    b291:	c3                   	ret
    kiss_fft_cpx * scratch = (kiss_fft_cpx*)KISS_FFT_TMP_ALLOC(sizeof(kiss_fft_cpx)*p);
    b292:	4d 63 f4             	movslq %r12d,%r14
    int Norig = st->nfft;
    b295:	41 8b 19             	mov    (%r9),%ebx
    kiss_fft_cpx * twiddles = st->twiddles;
    b298:	49 8d a9 08 01 00 00 	lea    0x108(%r9),%rbp
    kiss_fft_cpx * scratch = (kiss_fft_cpx*)KISS_FFT_TMP_ALLOC(sizeof(kiss_fft_cpx)*p);
    b29f:	49 c1 e6 03          	shl    $0x3,%r14
    b2a3:	4c 89 f7             	mov    %r14,%rdi
    b2a6:	e8 15 73 ff ff       	call   25c0 <malloc@plt>
    b2ab:	48 89 44 24 08       	mov    %rax,0x8(%rsp)
    if (scratch == NULL){
    b2b0:	48 85 c0             	test   %rax,%rax
    b2b3:	0f 84 d4 fa ff ff    	je     ad8d <kf_work+0x49d>
    for ( u=0; u<m; ++u ) {
    b2b9:	8b 54 24 04          	mov    0x4(%rsp),%edx
    b2bd:	85 d2                	test   %edx,%edx
    b2bf:	0f 8e d0 03 00 00    	jle    b695 <kf_work+0xda5>
    b2c5:	83 7c 24 04 01       	cmpl   $0x1,0x4(%rsp)
    b2ca:	0f 85 e9 0d 00 00    	jne    c0b9 <kf_work+0x17c9>
        for ( q1=0 ; q1<p ; ++q1 ) {
    b2d0:	45 85 e4             	test   %r12d,%r12d
    b2d3:	0f 8e bc 03 00 00    	jle    b695 <kf_work+0xda5>
            scratch[q1] = Fout[ k  ];
    b2d9:	44 89 e2             	mov    %r12d,%edx
    b2dc:	48 89 c7             	mov    %rax,%rdi
    b2df:	4c 89 ee             	mov    %r13,%rsi
    b2e2:	48 c1 e2 03          	shl    $0x3,%rdx
    b2e6:	e8 a5 70 ff ff       	call   2390 <memcpy@plt>
            Fout[ k ] = scratch[0];
    b2eb:	48 8b 54 24 08       	mov    0x8(%rsp),%rdx
    b2f0:	4c 8b 0a             	mov    (%rdx),%r9
    b2f3:	4d 89 4d 00          	mov    %r9,0x0(%r13)
            for (q=1;q<p;++q ) {
    b2f7:	41 83 fc 01          	cmp    $0x1,%r12d
    b2fb:	0f 84 94 03 00 00    	je     b695 <kf_work+0xda5>
    b301:	41 8d 44 24 fe       	lea    -0x2(%r12),%eax
    b306:	4c 89 ef             	mov    %r13,%rdi
    b309:	45 89 f8             	mov    %r15d,%r8d
    b30c:	4d 01 ee             	add    %r13,%r14
    b30f:	48 8d 74 c2 10       	lea    0x10(%rdx,%rax,8),%rsi
    b314:	31 c9                	xor    %ecx,%ecx
    b316:	4c 8d 5a 08          	lea    0x8(%rdx),%r11
    b31a:	66 0f 1f 44 00 00    	nopw   0x0(%rax,%rax,1)
                C_ADDTO( Fout[ k ] ,t);
    b320:	f3 41 0f 7e 5d 00    	movq   0x0(%r13),%xmm3
    b326:	4c 89 da             	mov    %r11,%rdx
            int twidx=0;
    b329:	31 c0                	xor    %eax,%eax
    b32b:	0f 1f 44 00 00       	nopl   0x0(%rax,%rax,1)
                twidx += fstride * k;
    b330:	01 c8                	add    %ecx,%eax
                C_MUL(t,scratch[q] , twiddles[twidx] );
    b332:	f3 0f 7e 0a          	movq   (%rdx),%xmm1
                if (twidx>=Norig) twidx-=Norig;
    b336:	41 89 c2             	mov    %eax,%r10d
    b339:	41 29 da             	sub    %ebx,%r10d
    b33c:	39 c3                	cmp    %eax,%ebx
                C_MUL(t,scratch[q] , twiddles[twidx] );
    b33e:	0f 28 c1             	movaps %xmm1,%xmm0
    b341:	0f c6 c9 e5          	shufps $0xe5,%xmm1,%xmm1
                if (twidx>=Norig) twidx-=Norig;
    b345:	41 0f 4e c2          	cmovle %r10d,%eax
                C_MUL(t,scratch[q] , twiddles[twidx] );
    b349:	0f c6 c0 e0          	shufps $0xe0,%xmm0,%xmm0
            for (q=1;q<p;++q ) {
    b34d:	48 83 c2 08          	add    $0x8,%rdx
                C_MUL(t,scratch[q] , twiddles[twidx] );
    b351:	4c 63 d0             	movslq %eax,%r10
    b354:	f3 42 0f 7e 54 d5 00 	movq   0x0(%rbp,%r10,8),%xmm2
    b35b:	0f 59 c2             	mulps  %xmm2,%xmm0
    b35e:	0f c6 d2 e1          	shufps $0xe1,%xmm2,%xmm2
    b362:	0f 59 ca             	mulps  %xmm2,%xmm1
    b365:	0f 28 d0             	movaps %xmm0,%xmm2
    b368:	0f 5c d1             	subps  %xmm1,%xmm2
    b36b:	0f 58 c1             	addps  %xmm1,%xmm0
                C_ADDTO( Fout[ k ] ,t);
    b36e:	f3 0f 10 c2          	movss  %xmm2,%xmm0
    b372:	0f 58 d8             	addps  %xmm0,%xmm3
    b375:	41 0f 13 5d 00       	movlps %xmm3,0x0(%r13)
            for (q=1;q<p;++q ) {
    b37a:	48 39 d6             	cmp    %rdx,%rsi
    b37d:	75 b1                	jne    b330 <kf_work+0xa40>
        for ( q1=0 ; q1<p ; ++q1 ) {
    b37f:	48 83 c7 08          	add    $0x8,%rdi
    b383:	44 01 c1             	add    %r8d,%ecx
    b386:	49 39 fe             	cmp    %rdi,%r14
    b389:	0f 84 06 03 00 00    	je     b695 <kf_work+0xda5>
            Fout[ k ] = scratch[0];
    b38f:	4c 89 0f             	mov    %r9,(%rdi)
            for (q=1;q<p;++q ) {
    b392:	49 89 fd             	mov    %rdi,%r13
    b395:	eb 89                	jmp    b320 <kf_work+0xa30>
    Fout2 = Fout + m;
    b397:	48 63 7c 24 04       	movslq 0x4(%rsp),%rdi
    kiss_fft_cpx * tw1 = st->twiddles;
    b39c:	49 8d 91 08 01 00 00 	lea    0x108(%r9),%rdx
    Fout2 = Fout + m;
    b3a3:	4c 8d 04 fd 00 00 00 	lea    0x0(,%rdi,8),%r8
    b3aa:	00 
    b3ab:	4b 8d 4c 05 00       	lea    0x0(%r13,%r8,1),%rcx
    b3b0:	49 83 ff 01          	cmp    $0x1,%r15
    b3b4:	0f 85 f3 02 00 00    	jne    b6ad <kf_work+0xdbd>
    b3ba:	8b 44 24 04          	mov    0x4(%rsp),%eax
    b3be:	4c 8d 1c c5 00 00 00 	lea    0x0(,%rax,8),%r11
    b3c5:	00 
    b3c6:	48 89 c3             	mov    %rax,%rbx
    b3c9:	48 01 f8             	add    %rdi,%rax
    b3cc:	49 8d 44 c5 fc       	lea    -0x4(%r13,%rax,8),%rax
    b3d1:	4f 8d 94 19 04 01 00 	lea    0x104(%r9,%r11,1),%r10
    b3d8:	00 
    b3d9:	48 39 d0             	cmp    %rdx,%rax
    b3dc:	40 0f 92 c6          	setb   %sil
    b3e0:	49 39 ca             	cmp    %rcx,%r10
    b3e3:	0f 92 c0             	setb   %al
    b3e6:	09 c6                	or     %eax,%esi
    b3e8:	4b 8d 44 1d fc       	lea    -0x4(%r13,%r11,1),%rax
    b3ed:	48 39 d0             	cmp    %rdx,%rax
    b3f0:	0f 92 c0             	setb   %al
    b3f3:	4d 39 ea             	cmp    %r13,%r10
    b3f6:	41 0f 92 c2          	setb   %r10b
    b3fa:	44 09 d0             	or     %r10d,%eax
    b3fd:	40 84 c6             	test   %al,%sil
    b400:	0f 84 cf 0d 00 00    	je     c1d5 <kf_work+0x18e5>
    b406:	49 8d 40 10          	lea    0x10(%r8),%rax
    b40a:	49 8d 75 10          	lea    0x10(%r13),%rsi
    b40e:	48 85 c0             	test   %rax,%rax
    b411:	0f 9e c0             	setle  %al
    b414:	48 39 f1             	cmp    %rsi,%rcx
    b417:	40 0f 93 c6          	setae  %sil
    b41b:	40 08 f0             	or     %sil,%al
    b41e:	0f 84 b1 0d 00 00    	je     c1d5 <kf_work+0x18e5>
    b424:	83 fb 01             	cmp    $0x1,%ebx
    b427:	0f 84 de 10 00 00    	je     c50b <kf_work+0x1c1b>
    b42d:	d1 eb                	shr    $1,%ebx
    b42f:	4c 89 e8             	mov    %r13,%rax
    b432:	89 de                	mov    %ebx,%esi
    b434:	48 c1 e6 04          	shl    $0x4,%rsi
    b438:	4c 01 ee             	add    %r13,%rsi
        C_MUL (t,  *Fout2 , *tw1);
    b43b:	0f 10 01             	movups (%rcx),%xmm0
    b43e:	f3 0f 7e 0a          	movq   (%rdx),%xmm1
    b442:	48 83 c0 10          	add    $0x10,%rax
    b446:	48 83 c1 10          	add    $0x10,%rcx
    b44a:	48 83 c2 10          	add    $0x10,%rdx
    b44e:	0f 16 4a f8          	movhps -0x8(%rdx),%xmm1
    b452:	0f 28 d0             	movaps %xmm0,%xmm2
    b455:	0f c6 d0 a0          	shufps $0xa0,%xmm0,%xmm2
    b459:	0f 59 d1             	mulps  %xmm1,%xmm2
    b45c:	0f c6 c0 f5          	shufps $0xf5,%xmm0,%xmm0
    b460:	0f c6 c9 b1          	shufps $0xb1,%xmm1,%xmm1
    b464:	0f 59 c1             	mulps  %xmm1,%xmm0
    b467:	0f 28 ca             	movaps %xmm2,%xmm1
    b46a:	0f 5c c8             	subps  %xmm0,%xmm1
    b46d:	0f 58 d0             	addps  %xmm0,%xmm2
    b470:	0f c6 ca d8          	shufps $0xd8,%xmm2,%xmm1
    b474:	0f 28 c1             	movaps %xmm1,%xmm0
    b477:	0f c6 c1 d8          	shufps $0xd8,%xmm1,%xmm0
        C_SUB( *Fout2 ,  *Fout , t );
    b47b:	0f 10 48 f0          	movups -0x10(%rax),%xmm1
    b47f:	0f 5c c8             	subps  %xmm0,%xmm1
    b482:	0f 11 49 f0          	movups %xmm1,-0x10(%rcx)
        C_ADDTO( *Fout ,  t );
    b486:	0f 10 68 f0          	movups -0x10(%rax),%xmm5
    b48a:	0f 58 c5             	addps  %xmm5,%xmm0
    b48d:	0f 11 40 f0          	movups %xmm0,-0x10(%rax)
    }while (--m);
    b491:	48 39 f0             	cmp    %rsi,%rax
    b494:	75 a5                	jne    b43b <kf_work+0xb4b>
    b496:	8b 74 24 04          	mov    0x4(%rsp),%esi
    b49a:	89 f0                	mov    %esi,%eax
    b49c:	83 e0 fe             	and    $0xfffffffe,%eax
    b49f:	83 e6 01             	and    $0x1,%esi
    b4a2:	0f 84 e5 f8 ff ff    	je     ad8d <kf_work+0x49d>
    b4a8:	48 01 c7             	add    %rax,%rdi
    b4ab:	48 8d 0c c5 00 00 00 	lea    0x0(,%rax,8),%rcx
    b4b2:	00 
    b4b3:	49 8d 44 fd 00       	lea    0x0(%r13,%rdi,8),%rax
        C_MUL (t,  *Fout2 , *tw1);
    b4b8:	49 8d 54 0d 00       	lea    0x0(%r13,%rcx,1),%rdx
    b4bd:	f3 41 0f 7e 94 09 08 	movq   0x108(%r9,%rcx,1),%xmm2
    b4c4:	01 00 00 
    b4c7:	f3 0f 7e 08          	movq   (%rax),%xmm1
    b4cb:	0f 28 c1             	movaps %xmm1,%xmm0
    b4ce:	0f c6 c9 e5          	shufps $0xe5,%xmm1,%xmm1
    b4d2:	0f c6 c0 e0          	shufps $0xe0,%xmm0,%xmm0
    b4d6:	0f 59 c2             	mulps  %xmm2,%xmm0
    b4d9:	0f c6 d2 e1          	shufps $0xe1,%xmm2,%xmm2
    b4dd:	0f 59 ca             	mulps  %xmm2,%xmm1
    b4e0:	0f 28 d0             	movaps %xmm0,%xmm2
    b4e3:	0f 5c d1             	subps  %xmm1,%xmm2
    b4e6:	0f 58 c1             	addps  %xmm1,%xmm0
        C_SUB( *Fout2 ,  *Fout , t );
    b4e9:	f3 0f 7e 0a          	movq   (%rdx),%xmm1
    b4ed:	f3 0f 10 c2          	movss  %xmm2,%xmm0
    b4f1:	0f 5c c8             	subps  %xmm0,%xmm1
    b4f4:	0f 13 08             	movlps %xmm1,(%rax)
        C_ADDTO( *Fout ,  t );
    b4f7:	f3 0f 7e 0a          	movq   (%rdx),%xmm1
    b4fb:	0f 58 c8             	addps  %xmm0,%xmm1
    b4fe:	0f 13 0a             	movlps %xmm1,(%rdx)
    }while (--m);
    b501:	e9 87 f8 ff ff       	jmp    ad8d <kf_work+0x49d>
    b506:	49 83 ff 01          	cmp    $0x1,%r15
    b50a:	0f 85 2d 0d 00 00    	jne    c23d <kf_work+0x194d>
    b510:	4c 63 44 24 04       	movslq 0x4(%rsp),%r8
    b515:	49 81 c1 08 01 00 00 	add    $0x108,%r9
        if(st->inverse) {
    b51c:	4d 89 ca             	mov    %r9,%r10
    b51f:	4c 89 ca             	mov    %r9,%rdx
    b522:	4c 89 c1             	mov    %r8,%rcx
    b525:	4c 89 c0             	mov    %r8,%rax
    b528:	48 c1 e1 04          	shl    $0x4,%rcx
    b52c:	48 f7 d8             	neg    %rax
    b52f:	49 8d 7c 0d 00       	lea    0x0(%r13,%rcx,1),%rdi
    b534:	48 8d 34 c7          	lea    (%rdi,%rax,8),%rsi
    b538:	31 c0                	xor    %eax,%eax
    b53a:	48 01 f1             	add    %rsi,%rcx
        C_MUL(scratch[0],Fout[m] , *tw1 );
    b53d:	f3 0f 7e 32          	movq   (%rdx),%xmm6
    b541:	f3 0f 7e 14 c6       	movq   (%rsi,%rax,8),%xmm2
    b546:	49 83 c1 10          	add    $0x10,%r9
    b54a:	48 83 c2 08          	add    $0x8,%rdx
        C_MUL(scratch[1],Fout[m2] , *tw2 );
    b54e:	f3 0f 7e 1c c7       	movq   (%rdi,%rax,8),%xmm3
    b553:	f3 41 0f 7e 61 f0    	movq   -0x10(%r9),%xmm4
    b559:	49 83 c2 18          	add    $0x18,%r10
        C_MUL(scratch[0],Fout[m] , *tw1 );
    b55d:	0f 28 c2             	movaps %xmm2,%xmm0
    b560:	44 0f 28 ce          	movaps %xmm6,%xmm9
    b564:	0f c6 d2 e5          	shufps $0xe5,%xmm2,%xmm2
        C_MUL(scratch[2],Fout[m3] , *tw3 );
    b568:	f3 41 0f 7e 6a e8    	movq   -0x18(%r10),%xmm5
        C_MUL(scratch[0],Fout[m] , *tw1 );
    b56e:	45 0f c6 c9 e1       	shufps $0xe1,%xmm9,%xmm9
    b573:	0f c6 c0 e0          	shufps $0xe0,%xmm0,%xmm0
    b577:	0f 28 c8             	movaps %xmm0,%xmm1
        C_MUL(scratch[2],Fout[m3] , *tw3 );
    b57a:	f3 0f 7e 3c c1       	movq   (%rcx,%rax,8),%xmm7
        C_MUL(scratch[0],Fout[m] , *tw1 );
    b57f:	41 0f 59 c9          	mulps  %xmm9,%xmm1
        C_MUL(scratch[2],Fout[m3] , *tw3 );
    b583:	44 0f 28 c5          	movaps %xmm5,%xmm8
        C_MUL(scratch[0],Fout[m] , *tw1 );
    b587:	44 0f 59 ca          	mulps  %xmm2,%xmm9
        C_MUL(scratch[2],Fout[m3] , *tw3 );
    b58b:	45 0f c6 c0 e1       	shufps $0xe1,%xmm8,%xmm8
        C_MUL(scratch[0],Fout[m] , *tw1 );
    b590:	0f 59 c6             	mulps  %xmm6,%xmm0
    b593:	0f 59 f2             	mulps  %xmm2,%xmm6
        C_MUL(scratch[1],Fout[m2] , *tw2 );
    b596:	0f 28 d3             	movaps %xmm3,%xmm2
    b599:	0f c6 db e5          	shufps $0xe5,%xmm3,%xmm3
    b59d:	0f c6 d2 e0          	shufps $0xe0,%xmm2,%xmm2
    b5a1:	0f 59 d4             	mulps  %xmm4,%xmm2
    b5a4:	0f c6 e4 e1          	shufps $0xe1,%xmm4,%xmm4
    b5a8:	0f 59 dc             	mulps  %xmm4,%xmm3
        C_MUL(scratch[0],Fout[m] , *tw1 );
    b5ab:	44 0f 28 d0          	movaps %xmm0,%xmm10
    b5af:	41 0f 58 c1          	addps  %xmm9,%xmm0
    b5b3:	45 0f 5c d1          	subps  %xmm9,%xmm10
        C_MUL(scratch[1],Fout[m2] , *tw2 );
    b5b7:	0f 28 e2             	movaps %xmm2,%xmm4
    b5ba:	0f 5c e3             	subps  %xmm3,%xmm4
    b5bd:	0f 58 d3             	addps  %xmm3,%xmm2
        C_MUL(scratch[2],Fout[m3] , *tw3 );
    b5c0:	0f 28 df             	movaps %xmm7,%xmm3
    b5c3:	0f c6 ff e5          	shufps $0xe5,%xmm7,%xmm7
    b5c7:	0f c6 db e0          	shufps $0xe0,%xmm3,%xmm3
        C_ADD( scratch[3] , scratch[0] , scratch[2] );
    b5cb:	f3 41 0f 10 c2       	movss  %xmm10,%xmm0
    b5d0:	f3 0f 10 d4          	movss  %xmm4,%xmm2
        C_MUL(scratch[2],Fout[m3] , *tw3 );
    b5d4:	0f 28 e3             	movaps %xmm3,%xmm4
    b5d7:	0f 59 dd             	mulps  %xmm5,%xmm3
    b5da:	41 0f 59 e0          	mulps  %xmm8,%xmm4
    b5de:	44 0f 59 c7          	mulps  %xmm7,%xmm8
    b5e2:	0f 59 ef             	mulps  %xmm7,%xmm5
    b5e5:	44 0f 28 cb          	movaps %xmm3,%xmm9
    b5e9:	45 0f 5c c8          	subps  %xmm8,%xmm9
    b5ed:	41 0f 58 d8          	addps  %xmm8,%xmm3
        C_ADD( scratch[3] , scratch[0] , scratch[2] );
    b5f1:	f3 41 0f 10 d9       	movss  %xmm9,%xmm3
    b5f6:	0f 58 c3             	addps  %xmm3,%xmm0
        C_MUL(scratch[0],Fout[m] , *tw1 );
    b5f9:	0f 28 d9             	movaps %xmm1,%xmm3
    b5fc:	0f 5c ce             	subps  %xmm6,%xmm1
    b5ff:	0f 58 de             	addps  %xmm6,%xmm3
        C_SUB( scratch[4] , scratch[0] , scratch[2] );
    b602:	f3 0f 10 cb          	movss  %xmm3,%xmm1
        C_MUL(scratch[2],Fout[m3] , *tw3 );
    b606:	0f 28 dc             	movaps %xmm4,%xmm3
    b609:	0f 5c e5             	subps  %xmm5,%xmm4
    b60c:	0f 58 dd             	addps  %xmm5,%xmm3
        C_SUB( scratch[4] , scratch[0] , scratch[2] );
    b60f:	f3 0f 10 e3          	movss  %xmm3,%xmm4
        C_SUB( scratch[5] , *Fout, scratch[1] );
    b613:	f3 41 0f 7e 5c c5 00 	movq   0x0(%r13,%rax,8),%xmm3
        C_SUB( scratch[4] , scratch[0] , scratch[2] );
    b61a:	0f 5c cc             	subps  %xmm4,%xmm1
        C_ADDTO(*Fout, scratch[1]);
    b61d:	0f 28 e3             	movaps %xmm3,%xmm4
        C_SUB( scratch[5] , *Fout, scratch[1] );
    b620:	0f 5c da             	subps  %xmm2,%xmm3
        C_ADDTO(*Fout, scratch[1]);
    b623:	0f 58 e2             	addps  %xmm2,%xmm4
            Fout[m3].i = scratch[5].i - scratch[4].r;
    b626:	0f 28 d3             	movaps %xmm3,%xmm2
            Fout[m3].r = scratch[5].r + scratch[4].i;
    b629:	0f 58 d9             	addps  %xmm1,%xmm3
        C_ADDTO(*Fout, scratch[1]);
    b62c:	41 0f 13 64 c5 00    	movlps %xmm4,0x0(%r13,%rax,8)
        C_SUB( Fout[m2], *Fout, scratch[3] );
    b632:	0f 5c e0             	subps  %xmm0,%xmm4
            Fout[m3].i = scratch[5].i - scratch[4].r;
    b635:	0f 5c d1             	subps  %xmm1,%xmm2
        C_SUB( Fout[m2], *Fout, scratch[3] );
    b638:	0f 13 24 c7          	movlps %xmm4,(%rdi,%rax,8)
        C_ADDTO( *Fout , scratch[3] );
    b63c:	f3 41 0f 7e 4c c5 00 	movq   0x0(%r13,%rax,8),%xmm1
    b643:	0f 58 c8             	addps  %xmm0,%xmm1
            Fout[m].r = scratch[5].r - scratch[4].i;
    b646:	0f 28 c3             	movaps %xmm3,%xmm0
    b649:	f3 0f 10 c2          	movss  %xmm2,%xmm0
            Fout[m3].r = scratch[5].r + scratch[4].i;
    b64d:	f3 0f 10 d3          	movss  %xmm3,%xmm2
        C_ADDTO( *Fout , scratch[3] );
    b651:	41 0f 13 4c c5 00    	movlps %xmm1,0x0(%r13,%rax,8)
            Fout[m].r = scratch[5].r - scratch[4].i;
    b657:	0f 13 04 c6          	movlps %xmm0,(%rsi,%rax,8)
            Fout[m3].r = scratch[5].r + scratch[4].i;
    b65b:	0f 13 14 c1          	movlps %xmm2,(%rcx,%rax,8)
    }while(--k);
    b65f:	48 83 c0 01          	add    $0x1,%rax
    b663:	4c 39 c0             	cmp    %r8,%rax
    b666:	0f 82 d1 fe ff ff    	jb     b53d <kf_work+0xc4d>
    b66c:	e9 1c f7 ff ff       	jmp    ad8d <kf_work+0x49d>
    b671:	8b 54 24 28          	mov    0x28(%rsp),%edx
    b675:	8b 44 24 30          	mov    0x30(%rsp),%eax
    b679:	48 8b 4c 24 38       	mov    0x38(%rsp),%rcx
    for ( u=0; u<m; ++u ) {
    b67e:	8b 74 24 20          	mov    0x20(%rsp),%esi
    b682:	83 c2 01             	add    $0x1,%edx
    b685:	48 83 c1 08          	add    $0x8,%rcx
    b689:	01 f0                	add    %esi,%eax
    b68b:	39 54 24 04          	cmp    %edx,0x4(%rsp)
    b68f:	0f 85 68 0a 00 00    	jne    c0fd <kf_work+0x180d>
    KISS_FFT_TMP_FREE(scratch);
    b695:	48 8b 7c 24 08       	mov    0x8(%rsp),%rdi
}
    b69a:	48 83 c4 58          	add    $0x58,%rsp
    b69e:	5b                   	pop    %rbx
    b69f:	5d                   	pop    %rbp
    b6a0:	41 5c                	pop    %r12
    b6a2:	41 5d                	pop    %r13
    b6a4:	41 5e                	pop    %r14
    b6a6:	41 5f                	pop    %r15
    KISS_FFT_TMP_FREE(scratch);
    b6a8:	e9 13 6d ff ff       	jmp    23c0 <free@plt>
    b6ad:	44 8b 5c 24 04       	mov    0x4(%rsp),%r11d
        tw1 += fstride;
    b6b2:	4a 8d 34 fd 00 00 00 	lea    0x0(,%r15,8),%rsi
    b6b9:	00 
    b6ba:	bb 0c 01 00 00       	mov    $0x10c,%ebx
    b6bf:	49 8d 43 ff          	lea    -0x1(%r11),%rax
    b6c3:	4d 89 de             	mov    %r11,%r14
    b6c6:	48 0f af c6          	imul   %rsi,%rax
    b6ca:	48 85 f6             	test   %rsi,%rsi
    b6cd:	4c 8d 90 0c 01 00 00 	lea    0x10c(%rax),%r10
    b6d4:	4c 0f 48 d3          	cmovs  %rbx,%r10
    b6d8:	48 05 08 01 00 00    	add    $0x108,%rax
    b6de:	bb 08 01 00 00       	mov    $0x108,%ebx
    b6e3:	4d 01 ca             	add    %r9,%r10
    b6e6:	48 85 f6             	test   %rsi,%rsi
    b6e9:	48 0f 49 c3          	cmovns %rbx,%rax
    b6ed:	4a 8d 1c 1f          	lea    (%rdi,%r11,1),%rbx
    b6f1:	4f 8d 5c dd fc       	lea    -0x4(%r13,%r11,8),%r11
    b6f6:	49 8d 5c dd fc       	lea    -0x4(%r13,%rbx,8),%rbx
    b6fb:	4c 01 c8             	add    %r9,%rax
    b6fe:	48 39 c3             	cmp    %rax,%rbx
    b701:	0f 92 c3             	setb   %bl
    b704:	49 39 ca             	cmp    %rcx,%r10
    b707:	40 0f 92 c5          	setb   %bpl
    b70b:	09 eb                	or     %ebp,%ebx
    b70d:	49 39 c3             	cmp    %rax,%r11
    b710:	0f 92 c0             	setb   %al
    b713:	4d 39 ea             	cmp    %r13,%r10
    b716:	41 0f 92 c2          	setb   %r10b
    b71a:	44 09 d0             	or     %r10d,%eax
    b71d:	84 c3                	test   %al,%bl
    b71f:	0f 84 17 0f 00 00    	je     c63c <kf_work+0x1d4c>
    b725:	49 8d 40 10          	lea    0x10(%r8),%rax
    b729:	4d 8d 45 10          	lea    0x10(%r13),%r8
    b72d:	48 85 c0             	test   %rax,%rax
    b730:	0f 9e c0             	setle  %al
    b733:	4c 39 c1             	cmp    %r8,%rcx
    b736:	41 0f 93 c0          	setae  %r8b
    b73a:	44 08 c0             	or     %r8b,%al
    b73d:	0f 84 f9 0e 00 00    	je     c63c <kf_work+0x1d4c>
    b743:	41 83 fe 01          	cmp    $0x1,%r14d
    b747:	0f 84 5c 0f 00 00    	je     c6a9 <kf_work+0x1db9>
    b74d:	41 d1 ee             	shr    $1,%r14d
    b750:	4d 89 fa             	mov    %r15,%r10
    b753:	4d 89 e8             	mov    %r13,%r8
    b756:	44 89 f0             	mov    %r14d,%eax
    b759:	49 c1 e2 04          	shl    $0x4,%r10
    b75d:	48 c1 e0 04          	shl    $0x4,%rax
    b761:	4c 01 e8             	add    %r13,%rax
        C_MUL (t,  *Fout2 , *tw1);
    b764:	0f 10 01             	movups (%rcx),%xmm0
    b767:	f3 0f 7e 0a          	movq   (%rdx),%xmm1
    b76b:	49 83 c0 10          	add    $0x10,%r8
    b76f:	48 83 c1 10          	add    $0x10,%rcx
    b773:	42 0f 16 0c fa       	movhps (%rdx,%r15,8),%xmm1
    b778:	0f 28 d0             	movaps %xmm0,%xmm2
    b77b:	4c 01 d2             	add    %r10,%rdx
    b77e:	0f c6 d0 a0          	shufps $0xa0,%xmm0,%xmm2
    b782:	0f 59 d1             	mulps  %xmm1,%xmm2
    b785:	0f c6 c0 f5          	shufps $0xf5,%xmm0,%xmm0
    b789:	0f c6 c9 b1          	shufps $0xb1,%xmm1,%xmm1
    b78d:	0f 59 c1             	mulps  %xmm1,%xmm0
    b790:	0f 28 ca             	movaps %xmm2,%xmm1
    b793:	0f 5c c8             	subps  %xmm0,%xmm1
    b796:	0f 58 d0             	addps  %xmm0,%xmm2
    b799:	0f c6 ca d8          	shufps $0xd8,%xmm2,%xmm1
    b79d:	0f 28 c1             	movaps %xmm1,%xmm0
    b7a0:	0f c6 c1 d8          	shufps $0xd8,%xmm1,%xmm0
        C_SUB( *Fout2 ,  *Fout , t );
    b7a4:	41 0f 10 48 f0       	movups -0x10(%r8),%xmm1
    b7a9:	0f 5c c8             	subps  %xmm0,%xmm1
    b7ac:	0f 11 49 f0          	movups %xmm1,-0x10(%rcx)
        C_ADDTO( *Fout ,  t );
    b7b0:	41 0f 10 68 f0       	movups -0x10(%r8),%xmm5
    b7b5:	0f 58 c5             	addps  %xmm5,%xmm0
    b7b8:	41 0f 11 40 f0       	movups %xmm0,-0x10(%r8)
    }while (--m);
    b7bd:	49 39 c0             	cmp    %rax,%r8
    b7c0:	75 a2                	jne    b764 <kf_work+0xe74>
    b7c2:	8b 5c 24 04          	mov    0x4(%rsp),%ebx
    b7c6:	89 d8                	mov    %ebx,%eax
    b7c8:	83 e0 fe             	and    $0xfffffffe,%eax
    b7cb:	83 e3 01             	and    $0x1,%ebx
    b7ce:	0f 84 b9 f5 ff ff    	je     ad8d <kf_work+0x49d>
    b7d4:	49 8d 54 c5 00       	lea    0x0(%r13,%rax,8),%rdx
    b7d9:	48 01 c7             	add    %rax,%rdi
        C_MUL (t,  *Fout2 , *tw1);
    b7dc:	48 0f af c6          	imul   %rsi,%rax
    b7e0:	49 8d 4c fd 00       	lea    0x0(%r13,%rdi,8),%rcx
    b7e5:	f3 0f 7e 09          	movq   (%rcx),%xmm1
    b7e9:	f3 41 0f 7e 94 01 08 	movq   0x108(%r9,%rax,1),%xmm2
    b7f0:	01 00 00 
    b7f3:	0f 28 c1             	movaps %xmm1,%xmm0
    b7f6:	0f c6 c9 e5          	shufps $0xe5,%xmm1,%xmm1
    b7fa:	0f c6 c0 e0          	shufps $0xe0,%xmm0,%xmm0
    b7fe:	0f 59 c2             	mulps  %xmm2,%xmm0
    b801:	0f c6 d2 e1          	shufps $0xe1,%xmm2,%xmm2
    b805:	0f 59 ca             	mulps  %xmm2,%xmm1
    b808:	0f 28 d0             	movaps %xmm0,%xmm2
    b80b:	0f 5c d1             	subps  %xmm1,%xmm2
    b80e:	0f 58 c1             	addps  %xmm1,%xmm0
        C_SUB( *Fout2 ,  *Fout , t );
    b811:	f3 0f 7e 0a          	movq   (%rdx),%xmm1
    b815:	f3 0f 10 c2          	movss  %xmm2,%xmm0
    b819:	0f 5c c8             	subps  %xmm0,%xmm1
    b81c:	0f 13 09             	movlps %xmm1,(%rcx)
        C_ADDTO( *Fout ,  t );
    b81f:	f3 0f 7e 0a          	movq   (%rdx),%xmm1
    b823:	0f 58 c8             	addps  %xmm0,%xmm1
    b826:	0f 13 0a             	movlps %xmm1,(%rdx)
    }while (--m);
    b829:	e9 5f f5 ff ff       	jmp    ad8d <kf_work+0x49d>
         tw1 += fstride;
    b82e:	4e 8d 1c fd 00 00 00 	lea    0x0(,%r15,8),%r11
    b835:	00 
    b836:	4c 8d 61 ff          	lea    -0x1(%rcx),%r12
         tw2 += fstride*2;
    b83a:	4c 89 fb             	mov    %r15,%rbx
    b83d:	41 be 0c 01 00 00    	mov    $0x10c,%r14d
    b843:	4d 89 da             	mov    %r11,%r10
    b846:	48 8d 75 10          	lea    0x10(%rbp),%rsi
    b84a:	48 c1 e3 04          	shl    $0x4,%rbx
    b84e:	4c 89 64 24 08       	mov    %r12,0x8(%rsp)
    b853:	4d 0f af d4          	imul   %r12,%r10
    b857:	48 89 74 24 28       	mov    %rsi,0x28(%rsp)
    b85c:	4d 85 db             	test   %r11,%r11
    b85f:	49 8d 78 10          	lea    0x10(%r8),%rdi
    b863:	4d 8d 64 2d fc       	lea    -0x4(%r13,%rbp,1),%r12
    b868:	48 89 7c 24 38       	mov    %rdi,0x38(%rsp)
    b86d:	49 8d 55 10          	lea    0x10(%r13),%rdx
    b871:	4c 89 64 24 40       	mov    %r12,0x40(%rsp)
    b876:	41 bc 08 01 00 00    	mov    $0x108,%r12d
    b87c:	49 8d b2 0c 01 00 00 	lea    0x10c(%r10),%rsi
    b883:	4c 89 e7             	mov    %r12,%rdi
    b886:	48 89 54 24 30       	mov    %rdx,0x30(%rsp)
    b88b:	4b 8d 54 05 00       	lea    0x0(%r13,%r8,1),%rdx
    b890:	49 0f 48 f6          	cmovs  %r14,%rsi
    b894:	49 81 c2 08 01 00 00 	add    $0x108,%r10
    b89b:	4c 01 ce             	add    %r9,%rsi
    b89e:	4d 85 db             	test   %r11,%r11
    b8a1:	4d 0f 49 d4          	cmovns %r12,%r10
    b8a5:	4c 8b 64 24 08       	mov    0x8(%rsp),%r12
    b8aa:	48 89 74 24 20       	mov    %rsi,0x20(%rsp)
    b8af:	48 89 de             	mov    %rbx,%rsi
    b8b2:	49 0f af f4          	imul   %r12,%rsi
    b8b6:	4d 01 ca             	add    %r9,%r10
    b8b9:	48 85 db             	test   %rbx,%rbx
    b8bc:	4c 8d a6 0c 01 00 00 	lea    0x10c(%rsi),%r12
    b8c3:	4d 0f 48 e6          	cmovs  %r14,%r12
    b8c7:	48 81 c6 08 01 00 00 	add    $0x108,%rsi
    b8ce:	48 85 db             	test   %rbx,%rbx
    b8d1:	48 0f 49 f7          	cmovns %rdi,%rsi
    b8d5:	4b 8d 7c 05 fc       	lea    -0x4(%r13,%r8,1),%rdi
    b8da:	48 89 7c 24 48       	mov    %rdi,0x48(%rsp)
    b8df:	48 8b 7c 24 38       	mov    0x38(%rsp),%rdi
    b8e4:	4f 8d 34 21          	lea    (%r9,%r12,1),%r14
    b8e8:	4c 8d 24 49          	lea    (%rcx,%rcx,2),%r12
    b8ec:	4c 89 74 24 10       	mov    %r14,0x10(%rsp)
    b8f1:	4d 8d 34 31          	lea    (%r9,%rsi,1),%r14
    b8f5:	4a 8d 34 02          	lea    (%rdx,%r8,1),%rsi
    b8f9:	48 39 ef             	cmp    %rbp,%rdi
    b8fc:	4f 8d 64 e5 fc       	lea    -0x4(%r13,%r12,8),%r12
    b901:	40 0f 9e c5          	setle  %bpl
    b905:	4c 39 44 24 28       	cmp    %r8,0x28(%rsp)
    b90a:	41 0f 9e c0          	setle  %r8b
    b90e:	44 09 c5             	or     %r8d,%ebp
    b911:	48 85 ff             	test   %rdi,%rdi
    b914:	48 8b 7c 24 30       	mov    0x30(%rsp),%rdi
    b919:	41 0f 9e c0          	setle  %r8b
    b91d:	48 39 fa             	cmp    %rdi,%rdx
    b920:	0f 93 44 24 38       	setae  0x38(%rsp)
    b925:	0f b6 7c 24 38       	movzbl 0x38(%rsp),%edi
    b92a:	41 09 f8             	or     %edi,%r8d
    b92d:	48 8b 7c 24 30       	mov    0x30(%rsp),%rdi
    b932:	44 21 c5             	and    %r8d,%ebp
    b935:	48 83 7c 24 28 00    	cmpq   $0x0,0x28(%rsp)
    b93b:	41 0f 9e c0          	setle  %r8b
    b93f:	48 39 fe             	cmp    %rdi,%rsi
    b942:	0f 93 44 24 28       	setae  0x28(%rsp)
    b947:	0f b6 7c 24 28       	movzbl 0x28(%rsp),%edi
    b94c:	41 09 f8             	or     %edi,%r8d
    b94f:	48 8b 7c 24 40       	mov    0x40(%rsp),%rdi
    b954:	44 21 c5             	and    %r8d,%ebp
    b957:	48 39 54 24 20       	cmp    %rdx,0x20(%rsp)
    b95c:	41 0f 92 c0          	setb   %r8b
    b960:	4c 39 d7             	cmp    %r10,%rdi
    b963:	0f 92 44 24 28       	setb   0x28(%rsp)
    b968:	44 0a 44 24 28       	or     0x28(%rsp),%r8b
    b96d:	44 21 c5             	and    %r8d,%ebp
    b970:	48 39 54 24 10       	cmp    %rdx,0x10(%rsp)
    b975:	41 0f 92 c0          	setb   %r8b
    b979:	4c 39 f7             	cmp    %r14,%rdi
    b97c:	0f 92 44 24 28       	setb   0x28(%rsp)
    b981:	0f b6 7c 24 28       	movzbl 0x28(%rsp),%edi
    b986:	41 09 f8             	or     %edi,%r8d
    b989:	44 21 c5             	and    %r8d,%ebp
    b98c:	48 39 74 24 20       	cmp    %rsi,0x20(%rsp)
    b991:	41 0f 92 c0          	setb   %r8b
    b995:	4d 39 d4             	cmp    %r10,%r12
    b998:	0f 92 44 24 28       	setb   0x28(%rsp)
    b99d:	0f b6 7c 24 28       	movzbl 0x28(%rsp),%edi
    b9a2:	41 09 f8             	or     %edi,%r8d
    b9a5:	48 8b 7c 24 48       	mov    0x48(%rsp),%rdi
    b9aa:	44 21 c5             	and    %r8d,%ebp
    b9ad:	48 39 74 24 10       	cmp    %rsi,0x10(%rsp)
    b9b2:	41 0f 92 c0          	setb   %r8b
    b9b6:	4d 39 f4             	cmp    %r14,%r12
    b9b9:	41 0f 92 c4          	setb   %r12b
    b9bd:	45 09 e0             	or     %r12d,%r8d
    b9c0:	44 21 c5             	and    %r8d,%ebp
    b9c3:	4c 39 6c 24 20       	cmp    %r13,0x20(%rsp)
    b9c8:	41 0f 92 c0          	setb   %r8b
    b9cc:	4c 39 d7             	cmp    %r10,%rdi
    b9cf:	41 0f 92 c2          	setb   %r10b
    b9d3:	45 09 d0             	or     %r10d,%r8d
    b9d6:	44 84 c5             	test   %r8b,%bpl
    b9d9:	0f 84 33 0b 00 00    	je     c512 <kf_work+0x1c22>
    b9df:	4c 39 6c 24 10       	cmp    %r13,0x10(%rsp)
    b9e4:	41 0f 92 c0          	setb   %r8b
    b9e8:	4c 39 f7             	cmp    %r14,%rdi
    b9eb:	41 0f 92 c2          	setb   %r10b
    b9ef:	45 08 c2             	or     %r8b,%r10b
    b9f2:	0f 84 1a 0b 00 00    	je     c512 <kf_work+0x1c22>
    b9f8:	83 7c 24 04 01       	cmpl   $0x1,0x4(%rsp)
    b9fd:	0f 84 9f 0c 00 00    	je     c6a2 <kf_work+0x1db2>
    ba03:	48 8d 79 fe          	lea    -0x2(%rcx),%rdi
    ba07:	4d 89 f8             	mov    %r15,%r8
    ba0a:	4d 89 ea             	mov    %r13,%r10
    ba0d:	48 89 c5             	mov    %rax,%rbp
    ba10:	48 d1 ef             	shr    $1,%rdi
    ba13:	49 c1 e0 05          	shl    $0x5,%r8
    ba17:	45 31 e4             	xor    %r12d,%r12d
    ba1a:	0f c6 e4 00          	shufps $0x0,%xmm4,%xmm4
    ba1e:	f3 0f 10 2d c2 5d 00 	movss  0x5dc2(%rip),%xmm5        # 117e8 <g_pow43+0x3c8>
    ba25:	00 
    ba26:	48 83 c7 01          	add    $0x1,%rdi
    ba2a:	0f c6 ed 00          	shufps $0x0,%xmm5,%xmm5
         C_MUL(scratch[1],Fout[m] , *tw1);
    ba2e:	0f 10 02             	movups (%rdx),%xmm0
    ba31:	f3 0f 7e 08          	movq   (%rax),%xmm1
    ba35:	49 83 c4 01          	add    $0x1,%r12
    ba39:	49 83 c2 10          	add    $0x10,%r10
    ba3d:	48 83 c2 10          	add    $0x10,%rdx
    ba41:	48 83 c6 10          	add    $0x10,%rsi
    ba45:	42 0f 16 0c f8       	movhps (%rax,%r15,8),%xmm1
    ba4a:	44 0f 28 d8          	movaps %xmm0,%xmm11
    ba4e:	48 01 d8             	add    %rbx,%rax
    ba51:	44 0f c6 d8 a0       	shufps $0xa0,%xmm0,%xmm11
    ba56:	0f 28 f1             	movaps %xmm1,%xmm6
    ba59:	45 0f 28 c3          	movaps %xmm11,%xmm8
    ba5d:	0f 28 d9             	movaps %xmm1,%xmm3
    ba60:	44 0f 59 c1          	mulps  %xmm1,%xmm8
    ba64:	0f c6 f1 b1          	shufps $0xb1,%xmm1,%xmm6
    ba68:	0f c6 c0 f5          	shufps $0xf5,%xmm0,%xmm0
         C_MUL(scratch[2],Fout[m2] , *tw2);
    ba6c:	0f 10 4e f0          	movups -0x10(%rsi),%xmm1
         C_MUL(scratch[1],Fout[m] , *tw1);
    ba70:	0f 59 d8             	mulps  %xmm0,%xmm3
    ba73:	44 0f 59 de          	mulps  %xmm6,%xmm11
         C_MUL(scratch[2],Fout[m2] , *tw2);
    ba77:	44 0f 28 e1          	movaps %xmm1,%xmm12
         C_MUL(scratch[1],Fout[m] , *tw1);
    ba7b:	0f 59 f0             	mulps  %xmm0,%xmm6
         C_MUL(scratch[2],Fout[m2] , *tw2);
    ba7e:	f3 0f 7e 45 00       	movq   0x0(%rbp),%xmm0
    ba83:	44 0f c6 e1 a0       	shufps $0xa0,%xmm1,%xmm12
    ba88:	41 0f 28 fc          	movaps %xmm12,%xmm7
    ba8c:	0f c6 c9 f5          	shufps $0xf5,%xmm1,%xmm1
    ba90:	0f 16 44 1d 00       	movhps 0x0(%rbp,%rbx,1),%xmm0
    ba95:	4c 01 c5             	add    %r8,%rbp
    ba98:	0f 59 f8             	mulps  %xmm0,%xmm7
    ba9b:	44 0f 28 c8          	movaps %xmm0,%xmm9
    ba9f:	44 0f c6 c8 b1       	shufps $0xb1,%xmm0,%xmm9
    baa4:	0f 59 c1             	mulps  %xmm1,%xmm0
    baa7:	45 0f 59 e1          	mulps  %xmm9,%xmm12
    baab:	44 0f 59 c9          	mulps  %xmm1,%xmm9
    baaf:	0f 28 cf             	movaps %xmm7,%xmm1
    bab2:	44 0f 28 d0          	movaps %xmm0,%xmm10
         C_MUL(scratch[1],Fout[m] , *tw1);
    bab6:	41 0f 28 c3          	movaps %xmm11,%xmm0
    baba:	44 0f 5c db          	subps  %xmm3,%xmm11
    babe:	0f 58 c3             	addps  %xmm3,%xmm0
         C_MUL(scratch[2],Fout[m2] , *tw2);
    bac1:	41 0f 28 dc          	movaps %xmm12,%xmm3
    bac5:	45 0f 5c e2          	subps  %xmm10,%xmm12
    bac9:	41 0f 58 da          	addps  %xmm10,%xmm3
    bacd:	41 0f 58 f9          	addps  %xmm9,%xmm7
    bad1:	41 0f 5c c9          	subps  %xmm9,%xmm1
         C_SUB(scratch[0],scratch[1],scratch[2]);
    bad5:	41 0f c6 c3 d8       	shufps $0xd8,%xmm11,%xmm0
    bada:	0f c6 c0 d8          	shufps $0xd8,%xmm0,%xmm0
    bade:	41 0f c6 dc d8       	shufps $0xd8,%xmm12,%xmm3
    bae3:	0f c6 db d8          	shufps $0xd8,%xmm3,%xmm3
    bae7:	0f 5c c3             	subps  %xmm3,%xmm0
         C_MUL(scratch[1],Fout[m] , *tw1);
    baea:	41 0f 28 d8          	movaps %xmm8,%xmm3
    baee:	0f 5c de             	subps  %xmm6,%xmm3
    baf1:	44 0f 58 c6          	addps  %xmm6,%xmm8
         C_ADD(scratch[3],scratch[1],scratch[2]);
    baf5:	0f c6 cf d8          	shufps $0xd8,%xmm7,%xmm1
    baf9:	0f c6 c9 d8          	shufps $0xd8,%xmm1,%xmm1
         C_MULBYSCALAR( scratch[0] , epi3.i );
    bafd:	0f 59 c4             	mulps  %xmm4,%xmm0
         C_ADD(scratch[3],scratch[1],scratch[2]);
    bb00:	41 0f c6 d8 d8       	shufps $0xd8,%xmm8,%xmm3
    bb05:	0f c6 db d8          	shufps $0xd8,%xmm3,%xmm3
    bb09:	0f 58 cb             	addps  %xmm3,%xmm1
         Fout[m].r = Fout->r - HALF_OF(scratch[3].r);
    bb0c:	41 0f 10 5a f0       	movups -0x10(%r10),%xmm3
    bb11:	0f 28 f1             	movaps %xmm1,%xmm6
    bb14:	0f 59 f5             	mulps  %xmm5,%xmm6
    bb17:	0f 5c de             	subps  %xmm6,%xmm3
    bb1a:	0f 11 5a f0          	movups %xmm3,-0x10(%rdx)
         C_ADDTO(*Fout,scratch[3]);
    bb1e:	41 0f 10 7a f0       	movups -0x10(%r10),%xmm7
    bb23:	0f 58 cf             	addps  %xmm7,%xmm1
    bb26:	41 0f 11 4a f0       	movups %xmm1,-0x10(%r10)
         Fout[m2].r = Fout[m].r + scratch[0].i;
    bb2b:	0f 10 4a f0          	movups -0x10(%rdx),%xmm1
         Fout[m2].i = Fout[m].i - scratch[0].r;
    bb2f:	0f 10 5a f0          	movups -0x10(%rdx),%xmm3
         Fout[m2].r = Fout[m].r + scratch[0].i;
    bb33:	0f 58 c8             	addps  %xmm0,%xmm1
         Fout[m2].i = Fout[m].i - scratch[0].r;
    bb36:	0f 5c d8             	subps  %xmm0,%xmm3
         Fout[m2].r = Fout[m].r + scratch[0].i;
    bb39:	0f c6 cb d8          	shufps $0xd8,%xmm3,%xmm1
    bb3d:	0f c6 c9 d8          	shufps $0xd8,%xmm1,%xmm1
    bb41:	0f 11 4e f0          	movups %xmm1,-0x10(%rsi)
         Fout[m].r -= scratch[0].i;
    bb45:	0f 10 4a f0          	movups -0x10(%rdx),%xmm1
         Fout[m].i += scratch[0].r;
    bb49:	0f 10 5a f0          	movups -0x10(%rdx),%xmm3
         Fout[m].r -= scratch[0].i;
    bb4d:	0f 5c c8             	subps  %xmm0,%xmm1
         Fout[m].i += scratch[0].r;
    bb50:	0f 58 d8             	addps  %xmm0,%xmm3
         Fout[m].r -= scratch[0].i;
    bb53:	0f c6 cb d8          	shufps $0xd8,%xmm3,%xmm1
    bb57:	0f 28 c1             	movaps %xmm1,%xmm0
    bb5a:	0f c6 c1 d8          	shufps $0xd8,%xmm1,%xmm0
    bb5e:	0f 11 42 f0          	movups %xmm0,-0x10(%rdx)
     }while(--k);
    bb62:	49 39 fc             	cmp    %rdi,%r12
    bb65:	0f 82 c3 fe ff ff    	jb     ba2e <kf_work+0x113e>
    bb6b:	48 8d 04 3f          	lea    (%rdi,%rdi,1),%rax
    bb6f:	48 39 c1             	cmp    %rax,%rcx
    bb72:	0f 84 15 f2 ff ff    	je     ad8d <kf_work+0x49d>
         C_MUL(scratch[1],Fout[m] , *tw1);
    bb78:	4c 0f af d8          	imul   %rax,%r11
    bb7c:	49 8d 74 c5 00       	lea    0x0(%r13,%rax,8),%rsi
    bb81:	48 8d 3c 01          	lea    (%rcx,%rax,1),%rdi
         C_MUL(scratch[2],Fout[m2] , *tw2);
    bb85:	48 0f af c3          	imul   %rbx,%rax
    bb89:	49 8d 54 fd 00       	lea    0x0(%r13,%rdi,8),%rdx
    bb8e:	48 01 cf             	add    %rcx,%rdi
         C_MUL(scratch[1],Fout[m] , *tw1);
    bb91:	f3 47 0f 7e 84 19 08 	movq   0x108(%r9,%r11,1),%xmm8
    bb98:	01 00 00 
    bb9b:	f3 0f 7e 1a          	movq   (%rdx),%xmm3
    bb9f:	49 8d 4c fd 00       	lea    0x0(%r13,%rdi,8),%rcx
         C_MUL(scratch[2],Fout[m2] , *tw2);
    bba4:	f3 0f 7e 21          	movq   (%rcx),%xmm4
    bba8:	f3 41 0f 7e bc 01 08 	movq   0x108(%r9,%rax,1),%xmm7
    bbaf:	01 00 00 
         C_MUL(scratch[1],Fout[m] , *tw1);
    bbb2:	0f 28 c3             	movaps %xmm3,%xmm0
    bbb5:	41 0f 28 e8          	movaps %xmm8,%xmm5
    bbb9:	0f c6 db e5          	shufps $0xe5,%xmm3,%xmm3
    bbbd:	0f c6 ed e1          	shufps $0xe1,%xmm5,%xmm5
    bbc1:	0f c6 c0 e0          	shufps $0xe0,%xmm0,%xmm0
    bbc5:	0f 28 c8             	movaps %xmm0,%xmm1
    bbc8:	41 0f 59 c8          	mulps  %xmm8,%xmm1
         C_MUL(scratch[2],Fout[m2] , *tw2);
    bbcc:	44 0f 28 cf          	movaps %xmm7,%xmm9
         C_MUL(scratch[1],Fout[m] , *tw1);
    bbd0:	44 0f 59 c3          	mulps  %xmm3,%xmm8
         C_MUL(scratch[2],Fout[m2] , *tw2);
    bbd4:	45 0f c6 c9 e1       	shufps $0xe1,%xmm9,%xmm9
         C_MUL(scratch[1],Fout[m] , *tw1);
    bbd9:	0f 59 c5             	mulps  %xmm5,%xmm0
    bbdc:	0f 59 eb             	mulps  %xmm3,%xmm5
         C_MUL(scratch[2],Fout[m2] , *tw2);
    bbdf:	0f 28 dc             	movaps %xmm4,%xmm3
    bbe2:	0f c6 e4 e5          	shufps $0xe5,%xmm4,%xmm4
    bbe6:	0f c6 db e0          	shufps $0xe0,%xmm3,%xmm3
    bbea:	0f 28 f3             	movaps %xmm3,%xmm6
    bbed:	41 0f 59 d9          	mulps  %xmm9,%xmm3
    bbf1:	0f 59 f7             	mulps  %xmm7,%xmm6
    bbf4:	0f 59 fc             	mulps  %xmm4,%xmm7
         C_MUL(scratch[1],Fout[m] , *tw1);
    bbf7:	44 0f 28 d0          	movaps %xmm0,%xmm10
    bbfb:	41 0f 5c c0          	subps  %xmm8,%xmm0
    bbff:	45 0f 58 d0          	addps  %xmm8,%xmm10
         C_MUL(scratch[2],Fout[m2] , *tw2);
    bc03:	41 0f 59 e1          	mulps  %xmm9,%xmm4
    bc07:	44 0f 28 c3          	movaps %xmm3,%xmm8
         C_SUB(scratch[0],scratch[1],scratch[2]);
    bc0b:	f3 41 0f 10 c2       	movss  %xmm10,%xmm0
         C_MUL(scratch[2],Fout[m2] , *tw2);
    bc10:	44 0f 58 c7          	addps  %xmm7,%xmm8
    bc14:	0f 5c df             	subps  %xmm7,%xmm3
         C_SUB(scratch[0],scratch[1],scratch[2]);
    bc17:	f3 41 0f 10 d8       	movss  %xmm8,%xmm3
    bc1c:	0f 5c c3             	subps  %xmm3,%xmm0
         Fout[m].r = Fout->r - HALF_OF(scratch[3].r);
    bc1f:	f3 0f 7e 1d c1 5b 00 	movq   0x5bc1(%rip),%xmm3        # 117e8 <g_pow43+0x3c8>
    bc26:	00 
         C_MULBYSCALAR( scratch[0] , epi3.i );
    bc27:	0f 59 c2             	mulps  %xmm2,%xmm0
         C_MUL(scratch[1],Fout[m] , *tw1);
    bc2a:	0f 28 d1             	movaps %xmm1,%xmm2
    bc2d:	0f 58 cd             	addps  %xmm5,%xmm1
    bc30:	0f 5c d5             	subps  %xmm5,%xmm2
         C_ADD(scratch[3],scratch[1],scratch[2]);
    bc33:	f3 0f 10 ca          	movss  %xmm2,%xmm1
         C_MUL(scratch[2],Fout[m2] , *tw2);
    bc37:	0f 28 d6             	movaps %xmm6,%xmm2
    bc3a:	0f 58 f4             	addps  %xmm4,%xmm6
    bc3d:	0f 5c d4             	subps  %xmm4,%xmm2
         C_ADD(scratch[3],scratch[1],scratch[2]);
    bc40:	f3 0f 10 f2          	movss  %xmm2,%xmm6
         Fout[m].r = Fout->r - HALF_OF(scratch[3].r);
    bc44:	f3 0f 7e 16          	movq   (%rsi),%xmm2
         C_ADD(scratch[3],scratch[1],scratch[2]);
    bc48:	0f 58 ce             	addps  %xmm6,%xmm1
         Fout[m].r = Fout->r - HALF_OF(scratch[3].r);
    bc4b:	0f 59 d9             	mulps  %xmm1,%xmm3
    bc4e:	0f 5c d3             	subps  %xmm3,%xmm2
    bc51:	0f 13 12             	movlps %xmm2,(%rdx)
         C_ADDTO(*Fout,scratch[3]);
    bc54:	f3 0f 7e 16          	movq   (%rsi),%xmm2
    bc58:	0f 58 d1             	addps  %xmm1,%xmm2
    bc5b:	0f 13 16             	movlps %xmm2,(%rsi)
         Fout[m2].r = Fout[m].r + scratch[0].i;
    bc5e:	f3 0f 7e 0a          	movq   (%rdx),%xmm1
    bc62:	0f 28 d0             	movaps %xmm0,%xmm2
    bc65:	0f 58 d1             	addps  %xmm1,%xmm2
         Fout[m2].i = Fout[m].i - scratch[0].r;
    bc68:	0f 5c c8             	subps  %xmm0,%xmm1
         Fout[m2].r = Fout[m].r + scratch[0].i;
    bc6b:	f3 0f 10 ca          	movss  %xmm2,%xmm1
    bc6f:	0f 13 09             	movlps %xmm1,(%rcx)
         Fout[m].r -= scratch[0].i;
    bc72:	f3 0f 7e 0a          	movq   (%rdx),%xmm1
    bc76:	0f 28 d1             	movaps %xmm1,%xmm2
         Fout[m].i += scratch[0].r;
    bc79:	0f 58 c8             	addps  %xmm0,%xmm1
         Fout[m].r -= scratch[0].i;
    bc7c:	0f 5c d0             	subps  %xmm0,%xmm2
    bc7f:	f3 0f 10 ca          	movss  %xmm2,%xmm1
    bc83:	0f 13 0a             	movlps %xmm1,(%rdx)
     }while(--k);
    bc86:	e9 02 f1 ff ff       	jmp    ad8d <kf_work+0x49d>
    bc8b:	f3 0f 7e 2d 55 5b 00 	movq   0x5b55(%rip),%xmm5        # 117e8 <g_pow43+0x3c8>
    bc92:	00 
    bc93:	48 8b 7c 24 08       	mov    0x8(%rsp),%rdi
     tw1=tw2=st->twiddles;
    bc98:	48 89 c1             	mov    %rax,%rcx
    bc9b:	eb 04                	jmp    bca1 <kf_work+0x13b1>
    bc9d:	48 83 ef 01          	sub    $0x1,%rdi
         tw1 += fstride;
    bca1:	48 83 c0 08          	add    $0x8,%rax
         tw2 += fstride*2;
    bca5:	48 83 c1 10          	add    $0x10,%rcx
         ++Fout;
    bca9:	49 83 c5 08          	add    $0x8,%r13
     }while(--k);
    bcad:	48 83 c2 08          	add    $0x8,%rdx
         C_MUL(scratch[1],Fout[m] , *tw1);
    bcb1:	f3 0f 7e 40 f8       	movq   -0x8(%rax),%xmm0
    bcb6:	f3 0f 7e 4a f8       	movq   -0x8(%rdx),%xmm1
     }while(--k);
    bcbb:	48 83 c6 08          	add    $0x8,%rsi
         C_MUL(scratch[2],Fout[m2] , *tw2);
    bcbf:	f3 0f 7e 71 f0       	movq   -0x10(%rcx),%xmm6
         C_MUL(scratch[1],Fout[m] , *tw1);
    bcc4:	0f 28 d9             	movaps %xmm1,%xmm3
    bcc7:	44 0f 28 c0          	movaps %xmm0,%xmm8
    bccb:	0f 28 f8             	movaps %xmm0,%xmm7
    bcce:	0f c6 c9 e5          	shufps $0xe5,%xmm1,%xmm1
    bcd2:	0f c6 db e0          	shufps $0xe0,%xmm3,%xmm3
    bcd6:	45 0f c6 c0 e1       	shufps $0xe1,%xmm8,%xmm8
    bcdb:	44 0f 28 cb          	movaps %xmm3,%xmm9
         C_MUL(scratch[2],Fout[m2] , *tw2);
    bcdf:	44 0f 28 de          	movaps %xmm6,%xmm11
         C_MUL(scratch[1],Fout[m] , *tw1);
    bce3:	44 0f 59 c8          	mulps  %xmm0,%xmm9
         C_MUL(scratch[2],Fout[m2] , *tw2);
    bce7:	f3 0f 7e 46 f8       	movq   -0x8(%rsi),%xmm0
    bcec:	45 0f c6 db e1       	shufps $0xe1,%xmm11,%xmm11
         C_MUL(scratch[1],Fout[m] , *tw1);
    bcf1:	41 0f 59 d8          	mulps  %xmm8,%xmm3
    bcf5:	0f 59 f9             	mulps  %xmm1,%xmm7
         C_MUL(scratch[2],Fout[m2] , *tw2);
    bcf8:	0f 28 e0             	movaps %xmm0,%xmm4
         C_MUL(scratch[1],Fout[m] , *tw1);
    bcfb:	44 0f 59 c1          	mulps  %xmm1,%xmm8
         C_MUL(scratch[2],Fout[m2] , *tw2);
    bcff:	0f c6 e4 e0          	shufps $0xe0,%xmm4,%xmm4
    bd03:	0f 28 c8             	movaps %xmm0,%xmm1
    bd06:	44 0f 28 d4          	movaps %xmm4,%xmm10
    bd0a:	41 0f 59 e3          	mulps  %xmm11,%xmm4
    bd0e:	0f c6 c9 e5          	shufps $0xe5,%xmm1,%xmm1
    bd12:	44 0f 59 d6          	mulps  %xmm6,%xmm10
    bd16:	0f 59 f1             	mulps  %xmm1,%xmm6
         C_MUL(scratch[1],Fout[m] , *tw1);
    bd19:	44 0f 28 e3          	movaps %xmm3,%xmm12
    bd1d:	0f 5c df             	subps  %xmm7,%xmm3
         C_MUL(scratch[2],Fout[m2] , *tw2);
    bd20:	41 0f 59 cb          	mulps  %xmm11,%xmm1
         C_MUL(scratch[1],Fout[m] , *tw1);
    bd24:	44 0f 58 e7          	addps  %xmm7,%xmm12
    bd28:	0f 28 c3             	movaps %xmm3,%xmm0
         C_MUL(scratch[2],Fout[m2] , *tw2);
    bd2b:	0f 28 dc             	movaps %xmm4,%xmm3
    bd2e:	0f 58 de             	addps  %xmm6,%xmm3
    bd31:	0f 5c e6             	subps  %xmm6,%xmm4
         C_SUB(scratch[0],scratch[1],scratch[2]);
    bd34:	f3 41 0f 10 c4       	movss  %xmm12,%xmm0
    bd39:	f3 0f 10 e3          	movss  %xmm3,%xmm4
         C_MUL(scratch[2],Fout[m2] , *tw2);
    bd3d:	41 0f 28 da          	movaps %xmm10,%xmm3
    bd41:	0f 5c d9             	subps  %xmm1,%xmm3
    bd44:	41 0f 58 ca          	addps  %xmm10,%xmm1
         C_SUB(scratch[0],scratch[1],scratch[2]);
    bd48:	0f 5c c4             	subps  %xmm4,%xmm0
         C_MUL(scratch[1],Fout[m] , *tw1);
    bd4b:	41 0f 28 e1          	movaps %xmm9,%xmm4
    bd4f:	41 0f 5c e0          	subps  %xmm8,%xmm4
         C_ADD(scratch[3],scratch[1],scratch[2]);
    bd53:	f3 0f 10 cb          	movss  %xmm3,%xmm1
         C_MUL(scratch[1],Fout[m] , *tw1);
    bd57:	41 0f 28 d9          	movaps %xmm9,%xmm3
    bd5b:	41 0f 58 d8          	addps  %xmm8,%xmm3
         C_MULBYSCALAR( scratch[0] , epi3.i );
    bd5f:	0f 59 c2             	mulps  %xmm2,%xmm0
         C_ADD(scratch[3],scratch[1],scratch[2]);
    bd62:	f3 0f 10 dc          	movss  %xmm4,%xmm3
    bd66:	0f 58 cb             	addps  %xmm3,%xmm1
         Fout[m].r = Fout->r - HALF_OF(scratch[3].r);
    bd69:	f3 41 0f 7e 5d f8    	movq   -0x8(%r13),%xmm3
    bd6f:	0f 28 e1             	movaps %xmm1,%xmm4
    bd72:	0f 59 e5             	mulps  %xmm5,%xmm4
    bd75:	0f 5c dc             	subps  %xmm4,%xmm3
    bd78:	0f 13 5a f8          	movlps %xmm3,-0x8(%rdx)
         C_ADDTO(*Fout,scratch[3]);
    bd7c:	f3 41 0f 7e 5d f8    	movq   -0x8(%r13),%xmm3
    bd82:	0f 58 d9             	addps  %xmm1,%xmm3
    bd85:	41 0f 13 5d f8       	movlps %xmm3,-0x8(%r13)
         Fout[m2].r = Fout[m].r + scratch[0].i;
    bd8a:	f3 0f 7e 4a f8       	movq   -0x8(%rdx),%xmm1
    bd8f:	0f 28 d8             	movaps %xmm0,%xmm3
    bd92:	0f 58 d9             	addps  %xmm1,%xmm3
         Fout[m2].i = Fout[m].i - scratch[0].r;
    bd95:	0f 5c c8             	subps  %xmm0,%xmm1
         Fout[m2].r = Fout[m].r + scratch[0].i;
    bd98:	f3 0f 10 cb          	movss  %xmm3,%xmm1
    bd9c:	0f 13 4e f8          	movlps %xmm1,-0x8(%rsi)
         Fout[m].r -= scratch[0].i;
    bda0:	f3 0f 7e 4a f8       	movq   -0x8(%rdx),%xmm1
    bda5:	0f 28 d9             	movaps %xmm1,%xmm3
         Fout[m].i += scratch[0].r;
    bda8:	0f 58 c8             	addps  %xmm0,%xmm1
         Fout[m].r -= scratch[0].i;
    bdab:	0f 5c d8             	subps  %xmm0,%xmm3
    bdae:	f3 0f 10 cb          	movss  %xmm3,%xmm1
    bdb2:	0f 13 4a f8          	movlps %xmm1,-0x8(%rdx)
     }while(--k);
    bdb6:	48 85 ff             	test   %rdi,%rdi
    bdb9:	0f 85 de fe ff ff    	jne    bc9d <kf_work+0x13ad>
    bdbf:	e9 c9 ef ff ff       	jmp    ad8d <kf_work+0x49d>
    bdc4:	4c 8d 14 85 00 00 00 	lea    0x0(,%rax,4),%r10
    bdcb:	00 
    bdcc:	4d 89 fe             	mov    %r15,%r14
    bdcf:	4b 8d 1c 7f          	lea    (%r15,%r15,2),%rbx
    for ( u=0; u<m; ++u ) {
    bdd3:	4d 89 cb             	mov    %r9,%r11
    bdd6:	4c 29 d0             	sub    %r10,%rax
    bdd9:	4e 8d 24 fd 00 00 00 	lea    0x0(,%r15,8),%r12
    bde0:	00 
    bde1:	49 c1 e7 05          	shl    $0x5,%r15
    bde5:	4d 89 ca             	mov    %r9,%r10
    bde8:	48 8d 2c c7          	lea    (%rdi,%rax,8),%rbp
    bdec:	49 c1 e6 04          	shl    $0x4,%r14
    bdf0:	48 c1 e3 03          	shl    $0x3,%rbx
    bdf4:	4d 89 f8             	mov    %r15,%r8
    bdf7:	f3 0f 10 2d 81 58 00 	movss  0x5881(%rip),%xmm5        # 11680 <g_pow43+0x260>
    bdfe:	00 
    bdff:	4c 89 c8             	mov    %r9,%rax
    be02:	0f 29 6c 24 10       	movaps %xmm5,0x10(%rsp)
        C_MUL(scratch[1] ,*Fout1, tw[u*fstride]);
    be07:	f3 0f 10 22          	movss  (%rdx),%xmm4
    be0b:	f3 0f 10 4a 04       	movss  0x4(%rdx),%xmm1
        ++Fout0;++Fout1;++Fout2;++Fout3;++Fout4;
    be10:	49 83 c5 08          	add    $0x8,%r13
    be14:	48 83 c2 08          	add    $0x8,%rdx
        C_MUL(scratch[1] ,*Fout1, tw[u*fstride]);
    be18:	f3 41 0f 10 99 0c 01 	movss  0x10c(%r9),%xmm3
    be1f:	00 00 
        C_MUL(scratch[4] ,*Fout4, tw[4*u*fstride]);
    be21:	f3 44 0f 10 5f 04    	movss  0x4(%rdi),%xmm11
        ++Fout0;++Fout1;++Fout2;++Fout3;++Fout4;
    be27:	48 83 c1 08          	add    $0x8,%rcx
    be2b:	48 83 c6 08          	add    $0x8,%rsi
        C_MUL(scratch[1] ,*Fout1, tw[u*fstride]);
    be2f:	0f 28 d4             	movaps %xmm4,%xmm2
    be32:	0f 28 e9             	movaps %xmm1,%xmm5
        scratch[0] = *Fout0;
    be35:	f3 45 0f 10 75 f8    	movss  -0x8(%r13),%xmm14
        ++Fout0;++Fout1;++Fout2;++Fout3;++Fout4;
    be3b:	48 83 c7 08          	add    $0x8,%rdi
        C_MUL(scratch[1] ,*Fout1, tw[u*fstride]);
    be3f:	f3 41 0f 10 81 08 01 	movss  0x108(%r9),%xmm0
    be46:	00 00 
    be48:	f3 0f 59 e3          	mulss  %xmm3,%xmm4
        C_MUL(scratch[2] ,*Fout2, tw[2*u*fstride]);
    be4c:	f3 0f 10 b0 0c 01 00 	movss  0x10c(%rax),%xmm6
    be53:	00 
    for ( u=0; u<m; ++u ) {
    be54:	4d 01 e1             	add    %r12,%r9
        C_MUL(scratch[1] ,*Fout1, tw[u*fstride]);
    be57:	f3 0f 59 eb          	mulss  %xmm3,%xmm5
        C_MUL(scratch[2] ,*Fout2, tw[2*u*fstride]);
    be5b:	f3 0f 10 59 fc       	movss  -0x4(%rcx),%xmm3
        C_MUL(scratch[3] ,*Fout3, tw[3*u*fstride]);
    be60:	f3 45 0f 10 82 0c 01 	movss  0x10c(%r10),%xmm8
    be67:	00 00 
        C_MUL(scratch[1] ,*Fout1, tw[u*fstride]);
    be69:	f3 0f 59 d0          	mulss  %xmm0,%xmm2
        scratch[0] = *Fout0;
    be6d:	f3 45 0f 10 6d fc    	movss  -0x4(%r13),%xmm13
        C_MUL(scratch[4] ,*Fout4, tw[4*u*fstride]);
    be73:	f3 45 0f 10 93 08 01 	movss  0x108(%r11),%xmm10
    be7a:	00 00 
        C_MUL(scratch[1] ,*Fout1, tw[u*fstride]);
    be7c:	f3 0f 59 c1          	mulss  %xmm1,%xmm0
        C_MUL(scratch[2] ,*Fout2, tw[2*u*fstride]);
    be80:	f3 0f 10 88 08 01 00 	movss  0x108(%rax),%xmm1
    be87:	00 
    be88:	0f 28 fb             	movaps %xmm3,%xmm7
        scratch[5].r = scratch[0].r + S_MUL(scratch[7].r,ya.r) + S_MUL(scratch[8].r,yb.r);
    be8b:	f3 44 0f 10 7c 24 04 	movss  0x4(%rsp),%xmm15
        C_MUL(scratch[2] ,*Fout2, tw[2*u*fstride]);
    be92:	f3 0f 59 fe          	mulss  %xmm6,%xmm7
    for ( u=0; u<m; ++u ) {
    be96:	4c 01 f0             	add    %r14,%rax
        C_MUL(scratch[1] ,*Fout1, tw[u*fstride]);
    be99:	f3 0f 5c d5          	subss  %xmm5,%xmm2
    be9d:	f3 0f 58 e0          	addss  %xmm0,%xmm4
        C_MUL(scratch[2] ,*Fout2, tw[2*u*fstride]);
    bea1:	f3 0f 10 41 f8       	movss  -0x8(%rcx),%xmm0
    bea6:	0f 28 e8             	movaps %xmm0,%xmm5
    bea9:	f3 0f 59 e9          	mulss  %xmm1,%xmm5
    bead:	f3 0f 59 c6          	mulss  %xmm6,%xmm0
        C_MUL(scratch[3] ,*Fout3, tw[3*u*fstride]);
    beb1:	f3 0f 10 76 f8       	movss  -0x8(%rsi),%xmm6
        C_MUL(scratch[2] ,*Fout2, tw[2*u*fstride]);
    beb6:	f3 0f 59 cb          	mulss  %xmm3,%xmm1
        C_MUL(scratch[3] ,*Fout3, tw[3*u*fstride]);
    beba:	f3 0f 10 5e fc       	movss  -0x4(%rsi),%xmm3
    bebf:	44 0f 28 cb          	movaps %xmm3,%xmm9
        C_MUL(scratch[2] ,*Fout2, tw[2*u*fstride]);
    bec3:	f3 0f 5c ef          	subss  %xmm7,%xmm5
        C_MUL(scratch[3] ,*Fout3, tw[3*u*fstride]);
    bec7:	f3 45 0f 59 c8       	mulss  %xmm8,%xmm9
    becc:	0f 28 fe             	movaps %xmm6,%xmm7
    becf:	f3 41 0f 59 f0       	mulss  %xmm8,%xmm6
        C_MUL(scratch[4] ,*Fout4, tw[4*u*fstride]);
    bed4:	f3 45 0f 10 83 0c 01 	movss  0x10c(%r11),%xmm8
    bedb:	00 00 
    for ( u=0; u<m; ++u ) {
    bedd:	4d 01 c3             	add    %r8,%r11
        C_MUL(scratch[2] ,*Fout2, tw[2*u*fstride]);
    bee0:	f3 0f 58 c1          	addss  %xmm1,%xmm0
        C_MUL(scratch[3] ,*Fout3, tw[3*u*fstride]);
    bee4:	f3 41 0f 10 8a 08 01 	movss  0x108(%r10),%xmm1
    beeb:	00 00 
    for ( u=0; u<m; ++u ) {
    beed:	49 01 da             	add    %rbx,%r10
        C_MUL(scratch[3] ,*Fout3, tw[3*u*fstride]);
    bef0:	f3 0f 59 f9          	mulss  %xmm1,%xmm7
    bef4:	f3 0f 59 cb          	mulss  %xmm3,%xmm1
        C_MUL(scratch[4] ,*Fout4, tw[4*u*fstride]);
    bef8:	41 0f 28 db          	movaps %xmm11,%xmm3
    befc:	f3 41 0f 59 d8       	mulss  %xmm8,%xmm3
        C_MUL(scratch[3] ,*Fout3, tw[3*u*fstride]);
    bf01:	f3 41 0f 5c f9       	subss  %xmm9,%xmm7
    bf06:	f3 0f 58 f1          	addss  %xmm1,%xmm6
        C_MUL(scratch[4] ,*Fout4, tw[4*u*fstride]);
    bf0a:	f3 0f 10 4f f8       	movss  -0x8(%rdi),%xmm1
    bf0f:	f3 44 0f 59 c1       	mulss  %xmm1,%xmm8
    bf14:	44 0f 28 c9          	movaps %xmm1,%xmm9
        C_ADD( scratch[7],scratch[1],scratch[4]);
    bf18:	0f 28 cc             	movaps %xmm4,%xmm1
        C_MUL(scratch[4] ,*Fout4, tw[4*u*fstride]);
    bf1b:	f3 45 0f 59 ca       	mulss  %xmm10,%xmm9
    bf20:	f3 45 0f 59 d3       	mulss  %xmm11,%xmm10
        scratch[5].r = scratch[0].r + S_MUL(scratch[7].r,ya.r) + S_MUL(scratch[8].r,yb.r);
    bf25:	f3 44 0f 10 5c 24 20 	movss  0x20(%rsp),%xmm11
        C_MUL(scratch[4] ,*Fout4, tw[4*u*fstride]);
    bf2c:	f3 44 0f 5c cb       	subss  %xmm3,%xmm9
        C_ADD( scratch[7],scratch[1],scratch[4]);
    bf31:	0f 28 da             	movaps %xmm2,%xmm3
        C_MUL(scratch[4] ,*Fout4, tw[4*u*fstride]);
    bf34:	f3 45 0f 58 c2       	addss  %xmm10,%xmm8
        C_ADD( scratch[8],scratch[2],scratch[3]);
    bf39:	44 0f 28 d5          	movaps %xmm5,%xmm10
        C_SUB( scratch[9],scratch[2],scratch[3]);
    bf3d:	f3 0f 5c ef          	subss  %xmm7,%xmm5
        C_ADD( scratch[8],scratch[2],scratch[3]);
    bf41:	f3 44 0f 58 d7       	addss  %xmm7,%xmm10
        scratch[5].r = scratch[0].r + S_MUL(scratch[7].r,ya.r) + S_MUL(scratch[8].r,yb.r);
    bf46:	41 0f 28 ff          	movaps %xmm15,%xmm7
        C_ADD( scratch[7],scratch[1],scratch[4]);
    bf4a:	f3 41 0f 58 d9       	addss  %xmm9,%xmm3
        C_SUB( scratch[10],scratch[1],scratch[4]);
    bf4f:	f3 41 0f 5c d1       	subss  %xmm9,%xmm2
        C_ADD( scratch[8],scratch[2],scratch[3]);
    bf54:	44 0f 28 c8          	movaps %xmm0,%xmm9
    bf58:	f3 44 0f 58 ce       	addss  %xmm6,%xmm9
        C_SUB( scratch[9],scratch[2],scratch[3]);
    bf5d:	f3 0f 5c c6          	subss  %xmm6,%xmm0
        C_ADD( scratch[7],scratch[1],scratch[4]);
    bf61:	f3 41 0f 58 c8       	addss  %xmm8,%xmm1
        C_SUB( scratch[10],scratch[1],scratch[4]);
    bf66:	f3 41 0f 5c e0       	subss  %xmm8,%xmm4
        scratch[5].i = scratch[0].i + S_MUL(scratch[7].i,ya.r) + S_MUL(scratch[8].i,yb.r);
    bf6b:	45 0f 28 c3          	movaps %xmm11,%xmm8
        scratch[5].r = scratch[0].r + S_MUL(scratch[7].r,ya.r) + S_MUL(scratch[8].r,yb.r);
    bf6f:	f3 0f 59 fb          	mulss  %xmm3,%xmm7
        Fout0->r += scratch[7].r + scratch[8].r;
    bf73:	0f 28 f3             	movaps %xmm3,%xmm6
    bf76:	f3 41 0f 58 f2       	addss  %xmm10,%xmm6
        scratch[5].i = scratch[0].i + S_MUL(scratch[7].i,ya.r) + S_MUL(scratch[8].i,yb.r);
    bf7b:	f3 45 0f 59 c1       	mulss  %xmm9,%xmm8
        Fout0->r += scratch[7].r + scratch[8].r;
    bf80:	f3 41 0f 58 f6       	addss  %xmm14,%xmm6
        scratch[5].r = scratch[0].r + S_MUL(scratch[7].r,ya.r) + S_MUL(scratch[8].r,yb.r);
    bf85:	f3 41 0f 58 fe       	addss  %xmm14,%xmm7
        Fout0->r += scratch[7].r + scratch[8].r;
    bf8a:	f3 41 0f 11 75 f8    	movss  %xmm6,-0x8(%r13)
        Fout0->i += scratch[7].i + scratch[8].i;
    bf90:	0f 28 f1             	movaps %xmm1,%xmm6
    bf93:	f3 41 0f 58 f1       	addss  %xmm9,%xmm6
    bf98:	f3 41 0f 58 f5       	addss  %xmm13,%xmm6
    bf9d:	f3 41 0f 11 75 fc    	movss  %xmm6,-0x4(%r13)
        scratch[5].r = scratch[0].r + S_MUL(scratch[7].r,ya.r) + S_MUL(scratch[8].r,yb.r);
    bfa3:	41 0f 28 f3          	movaps %xmm11,%xmm6
    bfa7:	f3 41 0f 59 f2       	mulss  %xmm10,%xmm6
    bfac:	f3 0f 58 fe          	addss  %xmm6,%xmm7
        scratch[5].i = scratch[0].i + S_MUL(scratch[7].i,ya.r) + S_MUL(scratch[8].i,yb.r);
    bfb0:	41 0f 28 f7          	movaps %xmm15,%xmm6
        scratch[6].r =  S_MUL(scratch[10].i,ya.i) + S_MUL(scratch[9].i,yb.i);
    bfb4:	f3 44 0f 10 7c 24 08 	movss  0x8(%rsp),%xmm15
        scratch[5].i = scratch[0].i + S_MUL(scratch[7].i,ya.r) + S_MUL(scratch[8].i,yb.r);
    bfbb:	f3 0f 59 f1          	mulss  %xmm1,%xmm6
        scratch[6].r =  S_MUL(scratch[10].i,ya.i) + S_MUL(scratch[9].i,yb.i);
    bfbf:	45 0f 28 df          	movaps %xmm15,%xmm11
    bfc3:	f3 44 0f 59 dc       	mulss  %xmm4,%xmm11
        scratch[12].r = - S_MUL(scratch[10].i,yb.i) + S_MUL(scratch[9].i,ya.i);
    bfc8:	f3 41 0f 59 e4       	mulss  %xmm12,%xmm4
        scratch[5].i = scratch[0].i + S_MUL(scratch[7].i,ya.r) + S_MUL(scratch[8].i,yb.r);
    bfcd:	f3 41 0f 58 f5       	addss  %xmm13,%xmm6
    bfd2:	f3 41 0f 58 f0       	addss  %xmm8,%xmm6
        scratch[6].r =  S_MUL(scratch[10].i,ya.i) + S_MUL(scratch[9].i,yb.i);
    bfd7:	45 0f 28 c4          	movaps %xmm12,%xmm8
    bfdb:	f3 44 0f 59 c0       	mulss  %xmm0,%xmm8
    bfe0:	f3 45 0f 58 d8       	addss  %xmm8,%xmm11
        scratch[6].i = -S_MUL(scratch[10].r,ya.i) - S_MUL(scratch[9].r,yb.i);
    bfe5:	45 0f 28 c7          	movaps %xmm15,%xmm8
    bfe9:	45 0f 28 fc          	movaps %xmm12,%xmm15
    bfed:	f3 44 0f 59 fd       	mulss  %xmm5,%xmm15
    bff2:	f3 44 0f 59 c2       	mulss  %xmm2,%xmm8
        scratch[12].i = S_MUL(scratch[10].r,yb.i) - S_MUL(scratch[9].r,ya.i);
    bff7:	f3 41 0f 59 d4       	mulss  %xmm12,%xmm2
        scratch[6].i = -S_MUL(scratch[10].r,ya.i) - S_MUL(scratch[9].r,yb.i);
    bffc:	44 0f 57 44 24 10    	xorps  0x10(%rsp),%xmm8
    c002:	f3 45 0f 5c c7       	subss  %xmm15,%xmm8
        C_SUB(*Fout1,scratch[5],scratch[6]);
    c007:	44 0f 28 ff          	movaps %xmm7,%xmm15
        C_ADD(*Fout4,scratch[5],scratch[6]);
    c00b:	f3 41 0f 58 fb       	addss  %xmm11,%xmm7
        C_SUB(*Fout1,scratch[5],scratch[6]);
    c010:	f3 45 0f 5c fb       	subss  %xmm11,%xmm15
    c015:	f3 44 0f 11 7a f8    	movss  %xmm15,-0x8(%rdx)
    c01b:	44 0f 28 fe          	movaps %xmm6,%xmm15
        C_ADD(*Fout4,scratch[5],scratch[6]);
    c01f:	f3 41 0f 58 f0       	addss  %xmm8,%xmm6
        C_SUB(*Fout1,scratch[5],scratch[6]);
    c024:	f3 45 0f 5c f8       	subss  %xmm8,%xmm15
    c029:	f3 44 0f 11 7a fc    	movss  %xmm15,-0x4(%rdx)
        C_ADD(*Fout4,scratch[5],scratch[6]);
    c02f:	f3 0f 11 77 fc       	movss  %xmm6,-0x4(%rdi)
        scratch[11].r = scratch[0].r + S_MUL(scratch[7].r,yb.r) + S_MUL(scratch[8].r,ya.r);
    c034:	f3 0f 10 74 24 20    	movss  0x20(%rsp),%xmm6
        C_ADD(*Fout4,scratch[5],scratch[6]);
    c03a:	f3 0f 11 7f f8       	movss  %xmm7,-0x8(%rdi)
        scratch[11].r = scratch[0].r + S_MUL(scratch[7].r,yb.r) + S_MUL(scratch[8].r,ya.r);
    c03f:	f3 0f 10 7c 24 04    	movss  0x4(%rsp),%xmm7
    c045:	f3 0f 59 de          	mulss  %xmm6,%xmm3
    c049:	f3 44 0f 59 d7       	mulss  %xmm7,%xmm10
        scratch[11].i = scratch[0].i + S_MUL(scratch[7].i,yb.r) + S_MUL(scratch[8].i,ya.r);
    c04e:	f3 44 0f 59 cf       	mulss  %xmm7,%xmm9
        scratch[12].r = - S_MUL(scratch[10].i,yb.i) + S_MUL(scratch[9].i,ya.i);
    c053:	f3 0f 10 7c 24 08    	movss  0x8(%rsp),%xmm7
        scratch[11].i = scratch[0].i + S_MUL(scratch[7].i,yb.r) + S_MUL(scratch[8].i,ya.r);
    c059:	f3 0f 59 ce          	mulss  %xmm6,%xmm1
        scratch[12].r = - S_MUL(scratch[10].i,yb.i) + S_MUL(scratch[9].i,ya.i);
    c05d:	f3 0f 59 c7          	mulss  %xmm7,%xmm0
        scratch[11].r = scratch[0].r + S_MUL(scratch[7].r,yb.r) + S_MUL(scratch[8].r,ya.r);
    c061:	f3 41 0f 58 de       	addss  %xmm14,%xmm3
        scratch[12].i = S_MUL(scratch[10].r,yb.i) - S_MUL(scratch[9].r,ya.i);
    c066:	f3 0f 59 ef          	mulss  %xmm7,%xmm5
        scratch[11].r = scratch[0].r + S_MUL(scratch[7].r,yb.r) + S_MUL(scratch[8].r,ya.r);
    c06a:	f3 41 0f 58 da       	addss  %xmm10,%xmm3
        scratch[11].i = scratch[0].i + S_MUL(scratch[7].i,yb.r) + S_MUL(scratch[8].i,ya.r);
    c06f:	f3 41 0f 58 cd       	addss  %xmm13,%xmm1
        scratch[12].r = - S_MUL(scratch[10].i,yb.i) + S_MUL(scratch[9].i,ya.i);
    c074:	f3 0f 5c c4          	subss  %xmm4,%xmm0
        scratch[12].i = S_MUL(scratch[10].r,yb.i) - S_MUL(scratch[9].r,ya.i);
    c078:	f3 0f 5c d5          	subss  %xmm5,%xmm2
        C_ADD(*Fout2,scratch[11],scratch[12]);
    c07c:	0f 28 e3             	movaps %xmm3,%xmm4
        scratch[11].i = scratch[0].i + S_MUL(scratch[7].i,yb.r) + S_MUL(scratch[8].i,ya.r);
    c07f:	f3 41 0f 58 c9       	addss  %xmm9,%xmm1
        C_ADD(*Fout2,scratch[11],scratch[12]);
    c084:	f3 0f 58 e0          	addss  %xmm0,%xmm4
        C_SUB(*Fout3,scratch[11],scratch[12]);
    c088:	f3 0f 5c d8          	subss  %xmm0,%xmm3
        C_ADD(*Fout2,scratch[11],scratch[12]);
    c08c:	f3 0f 11 61 f8       	movss  %xmm4,-0x8(%rcx)
    c091:	0f 28 e1             	movaps %xmm1,%xmm4
        C_SUB(*Fout3,scratch[11],scratch[12]);
    c094:	f3 0f 5c ca          	subss  %xmm2,%xmm1
        C_ADD(*Fout2,scratch[11],scratch[12]);
    c098:	f3 0f 58 e2          	addss  %xmm2,%xmm4
    c09c:	f3 0f 11 61 fc       	movss  %xmm4,-0x4(%rcx)
        C_SUB(*Fout3,scratch[11],scratch[12]);
    c0a1:	f3 0f 11 5e f8       	movss  %xmm3,-0x8(%rsi)
    c0a6:	f3 0f 11 4e fc       	movss  %xmm1,-0x4(%rsi)
    for ( u=0; u<m; ++u ) {
    c0ab:	4c 39 ed             	cmp    %r13,%rbp
    c0ae:	0f 85 53 fd ff ff    	jne    be07 <kf_work+0x1517>
    c0b4:	e9 d4 ec ff ff       	jmp    ad8d <kf_work+0x49d>
    c0b9:	48 89 c6             	mov    %rax,%rsi
    c0bc:	4c 89 e8             	mov    %r13,%rax
    c0bf:	4c 63 6c 24 04       	movslq 0x4(%rsp),%r13
    c0c4:	41 8d 4c 24 fe       	lea    -0x2(%r12),%ecx
    c0c9:	49 8d 14 36          	lea    (%r14,%rsi,1),%rdx
    for ( u=0; u<m; ++u ) {
    c0cd:	45 31 d2             	xor    %r10d,%r10d
    c0d0:	45 31 f6             	xor    %r14d,%r14d
    c0d3:	44 89 7c 24 20       	mov    %r15d,0x20(%rsp)
    c0d8:	4c 89 ef             	mov    %r13,%rdi
    c0db:	48 89 54 24 10       	mov    %rdx,0x10(%rsp)
    c0e0:	49 c1 e5 03          	shl    $0x3,%r13
    c0e4:	44 89 d2             	mov    %r10d,%edx
    c0e7:	41 0f af ff          	imul   %r15d,%edi
    c0eb:	4c 8d 7e 08          	lea    0x8(%rsi),%r15
    c0ef:	41 89 f8             	mov    %edi,%r8d
    c0f2:	48 8d 7c ce 10       	lea    0x10(%rsi,%rcx,8),%rdi
    c0f7:	48 89 c1             	mov    %rax,%rcx
    c0fa:	44 89 f0             	mov    %r14d,%eax
        for ( q1=0 ; q1<p ; ++q1 ) {
    c0fd:	48 8b 74 24 08       	mov    0x8(%rsp),%rsi
    c102:	4c 8b 5c 24 10       	mov    0x10(%rsp),%r11
    c107:	49 89 c9             	mov    %rcx,%r9
    c10a:	45 85 e4             	test   %r12d,%r12d
    c10d:	0f 8e 6b f5 ff ff    	jle    b67e <kf_work+0xd8e>
    c113:	0f 1f 44 00 00       	nopl   0x0(%rax,%rax,1)
            scratch[q1] = Fout[ k  ];
    c118:	4d 8b 11             	mov    (%r9),%r10
        for ( q1=0 ; q1<p ; ++q1 ) {
    c11b:	48 83 c6 08          	add    $0x8,%rsi
    c11f:	4d 01 e9             	add    %r13,%r9
            scratch[q1] = Fout[ k  ];
    c122:	4c 89 56 f8          	mov    %r10,-0x8(%rsi)
        for ( q1=0 ; q1<p ; ++q1 ) {
    c126:	49 39 f3             	cmp    %rsi,%r11
    c129:	75 ed                	jne    c118 <kf_work+0x1828>
            Fout[ k ] = scratch[0];
    c12b:	4c 8b 74 24 08       	mov    0x8(%rsp),%r14
    c130:	48 89 ce             	mov    %rcx,%rsi
    c133:	4d 8b 36             	mov    (%r14),%r14
    c136:	4c 89 31             	mov    %r14,(%rcx)
            for (q=1;q<p;++q ) {
    c139:	41 83 fc 01          	cmp    $0x1,%r12d
    c13d:	0f 84 3b f5 ff ff    	je     b67e <kf_work+0xd8e>
    c143:	89 54 24 28          	mov    %edx,0x28(%rsp)
    c147:	41 89 c1             	mov    %eax,%r9d
    c14a:	49 89 ca             	mov    %rcx,%r10
    c14d:	45 31 db             	xor    %r11d,%r11d
    c150:	89 44 24 30          	mov    %eax,0x30(%rsp)
    c154:	48 89 4c 24 38       	mov    %rcx,0x38(%rsp)
    c159:	0f 1f 80 00 00 00 00 	nopl   0x0(%rax)
                C_ADDTO( Fout[ k ] ,t);
    c160:	f3 0f 7e 1e          	movq   (%rsi),%xmm3
    c164:	4c 89 fa             	mov    %r15,%rdx
            int twidx=0;
    c167:	31 c0                	xor    %eax,%eax
    c169:	0f 1f 80 00 00 00 00 	nopl   0x0(%rax)
                twidx += fstride * k;
    c170:	44 01 c8             	add    %r9d,%eax
                C_MUL(t,scratch[q] , twiddles[twidx] );
    c173:	f3 0f 7e 0a          	movq   (%rdx),%xmm1
                if (twidx>=Norig) twidx-=Norig;
    c177:	89 c1                	mov    %eax,%ecx
    c179:	29 d9                	sub    %ebx,%ecx
    c17b:	39 c3                	cmp    %eax,%ebx
                C_MUL(t,scratch[q] , twiddles[twidx] );
    c17d:	0f 28 c1             	movaps %xmm1,%xmm0
    c180:	0f c6 c9 e5          	shufps $0xe5,%xmm1,%xmm1
                if (twidx>=Norig) twidx-=Norig;
    c184:	0f 4e c1             	cmovle %ecx,%eax
                C_MUL(t,scratch[q] , twiddles[twidx] );
    c187:	0f c6 c0 e0          	shufps $0xe0,%xmm0,%xmm0
            for (q=1;q<p;++q ) {
    c18b:	48 83 c2 08          	add    $0x8,%rdx
                C_MUL(t,scratch[q] , twiddles[twidx] );
    c18f:	48 63 c8             	movslq %eax,%rcx
    c192:	f3 0f 7e 54 cd 00    	movq   0x0(%rbp,%rcx,8),%xmm2
    c198:	0f 59 c2             	mulps  %xmm2,%xmm0
    c19b:	0f c6 d2 e1          	shufps $0xe1,%xmm2,%xmm2
    c19f:	0f 59 ca             	mulps  %xmm2,%xmm1
    c1a2:	0f 28 d0             	movaps %xmm0,%xmm2
    c1a5:	0f 5c d1             	subps  %xmm1,%xmm2
    c1a8:	0f 58 c1             	addps  %xmm1,%xmm0
                C_ADDTO( Fout[ k ] ,t);
    c1ab:	f3 0f 10 c2          	movss  %xmm2,%xmm0
    c1af:	0f 58 d8             	addps  %xmm0,%xmm3
    c1b2:	0f 13 1e             	movlps %xmm3,(%rsi)
            for (q=1;q<p;++q ) {
    c1b5:	48 39 d7             	cmp    %rdx,%rdi
    c1b8:	75 b6                	jne    c170 <kf_work+0x1880>
        for ( q1=0 ; q1<p ; ++q1 ) {
    c1ba:	41 83 c3 01          	add    $0x1,%r11d
    c1be:	4d 01 ea             	add    %r13,%r10
    c1c1:	45 01 c1             	add    %r8d,%r9d
    c1c4:	45 39 dc             	cmp    %r11d,%r12d
    c1c7:	0f 84 a4 f4 ff ff    	je     b671 <kf_work+0xd81>
            Fout[ k ] = scratch[0];
    c1cd:	4d 89 32             	mov    %r14,(%r10)
            for (q=1;q<p;++q ) {
    c1d0:	4c 89 d6             	mov    %r10,%rsi
    c1d3:	eb 8b                	jmp    c160 <kf_work+0x1870>
    c1d5:	8b 44 24 04          	mov    0x4(%rsp),%eax
    c1d9:	83 e8 01             	sub    $0x1,%eax
    c1dc:	49 8d 44 c5 08       	lea    0x8(%r13,%rax,8),%rax
        C_MUL (t,  *Fout2 , *tw1);
    c1e1:	f3 0f 7e 09          	movq   (%rcx),%xmm1
        ++Fout;
    c1e5:	49 83 c5 08          	add    $0x8,%r13
        tw1 += fstride;
    c1e9:	48 83 c2 08          	add    $0x8,%rdx
        ++Fout2;
    c1ed:	48 83 c1 08          	add    $0x8,%rcx
        C_MUL (t,  *Fout2 , *tw1);
    c1f1:	f3 0f 7e 52 f8       	movq   -0x8(%rdx),%xmm2
    c1f6:	0f 28 c1             	movaps %xmm1,%xmm0
    c1f9:	0f c6 c9 e5          	shufps $0xe5,%xmm1,%xmm1
    c1fd:	0f c6 c0 e0          	shufps $0xe0,%xmm0,%xmm0
    c201:	0f 59 c2             	mulps  %xmm2,%xmm0
    c204:	0f c6 d2 e1          	shufps $0xe1,%xmm2,%xmm2
    c208:	0f 59 ca             	mulps  %xmm2,%xmm1
    c20b:	0f 28 d0             	movaps %xmm0,%xmm2
    c20e:	0f 5c d1             	subps  %xmm1,%xmm2
    c211:	0f 58 c1             	addps  %xmm1,%xmm0
        C_SUB( *Fout2 ,  *Fout , t );
    c214:	f3 41 0f 7e 4d f8    	movq   -0x8(%r13),%xmm1
    c21a:	f3 0f 10 c2          	movss  %xmm2,%xmm0
    c21e:	0f 5c c8             	subps  %xmm0,%xmm1
    c221:	0f 13 49 f8          	movlps %xmm1,-0x8(%rcx)
        C_ADDTO( *Fout ,  t );
    c225:	f3 41 0f 7e 4d f8    	movq   -0x8(%r13),%xmm1
    c22b:	0f 58 c8             	addps  %xmm0,%xmm1
    c22e:	41 0f 13 4d f8       	movlps %xmm1,-0x8(%r13)
    }while (--m);
    c233:	4c 39 e8             	cmp    %r13,%rax
    c236:	75 a9                	jne    c1e1 <kf_work+0x18f1>
    c238:	e9 50 eb ff ff       	jmp    ad8d <kf_work+0x49d>
    c23d:	48 63 5c 24 04       	movslq 0x4(%rsp),%rbx
    c242:	49 81 c1 08 01 00 00 	add    $0x108,%r9
        if(st->inverse) {
    c249:	4c 89 cd             	mov    %r9,%rbp
    c24c:	4c 89 ce             	mov    %r9,%rsi
    c24f:	48 89 da             	mov    %rbx,%rdx
    c252:	48 89 d8             	mov    %rbx,%rax
    c255:	48 c1 e2 04          	shl    $0x4,%rdx
    c259:	48 f7 d8             	neg    %rax
    c25c:	4d 8d 5c 15 00       	lea    0x0(%r13,%rdx,1),%r11
    c261:	4d 8d 14 c3          	lea    (%r11,%rax,8),%r10
    c265:	31 c0                	xor    %eax,%eax
    c267:	4c 01 d2             	add    %r10,%rdx
        C_MUL(scratch[0],Fout[m] , *tw1 );
    c26a:	f3 0f 7e 36          	movq   (%rsi),%xmm6
    c26e:	f3 41 0f 7e 14 c2    	movq   (%r10,%rax,8),%xmm2
    c274:	48 01 fe             	add    %rdi,%rsi
        C_MUL(scratch[1],Fout[m2] , *tw2 );
    c277:	f3 41 0f 7e 19       	movq   (%r9),%xmm3
        C_MUL(scratch[2],Fout[m3] , *tw3 );
    c27c:	f3 0f 7e 3c c2       	movq   (%rdx,%rax,8),%xmm7
    c281:	4d 01 c1             	add    %r8,%r9
        C_MUL(scratch[0],Fout[m] , *tw1 );
    c284:	0f 28 c2             	movaps %xmm2,%xmm0
    c287:	44 0f 28 ce          	movaps %xmm6,%xmm9
    c28b:	0f c6 d2 e5          	shufps $0xe5,%xmm2,%xmm2
    c28f:	45 0f c6 c9 e1       	shufps $0xe1,%xmm9,%xmm9
    c294:	0f c6 c0 e0          	shufps $0xe0,%xmm0,%xmm0
    c298:	0f 28 c8             	movaps %xmm0,%xmm1
    c29b:	41 0f 59 c9          	mulps  %xmm9,%xmm1
    c29f:	0f 59 c6             	mulps  %xmm6,%xmm0
    c2a2:	44 0f 59 ca          	mulps  %xmm2,%xmm9
    c2a6:	0f 59 f2             	mulps  %xmm2,%xmm6
        C_MUL(scratch[1],Fout[m2] , *tw2 );
    c2a9:	f3 41 0f 7e 14 c3    	movq   (%r11,%rax,8),%xmm2
    c2af:	0f 28 e2             	movaps %xmm2,%xmm4
    c2b2:	0f c6 d2 e5          	shufps $0xe5,%xmm2,%xmm2
    c2b6:	0f c6 e4 e0          	shufps $0xe0,%xmm4,%xmm4
    c2ba:	0f 59 e3             	mulps  %xmm3,%xmm4
    c2bd:	0f c6 db e1          	shufps $0xe1,%xmm3,%xmm3
        C_MUL(scratch[0],Fout[m] , *tw1 );
    c2c1:	44 0f 28 d0          	movaps %xmm0,%xmm10
        C_MUL(scratch[1],Fout[m2] , *tw2 );
    c2c5:	0f 59 d3             	mulps  %xmm3,%xmm2
        C_MUL(scratch[0],Fout[m] , *tw1 );
    c2c8:	45 0f 5c d1          	subps  %xmm9,%xmm10
    c2cc:	41 0f 58 c1          	addps  %xmm9,%xmm0
        C_ADD( scratch[3] , scratch[0] , scratch[2] );
    c2d0:	f3 41 0f 10 c2       	movss  %xmm10,%xmm0
        C_MUL(scratch[1],Fout[m2] , *tw2 );
    c2d5:	0f 28 dc             	movaps %xmm4,%xmm3
    c2d8:	0f 5c da             	subps  %xmm2,%xmm3
    c2db:	0f 58 e2             	addps  %xmm2,%xmm4
        C_MUL(scratch[2],Fout[m3] , *tw3 );
    c2de:	0f 28 d7             	movaps %xmm7,%xmm2
    c2e1:	0f c6 ff e5          	shufps $0xe5,%xmm7,%xmm7
    c2e5:	0f c6 d2 e0          	shufps $0xe0,%xmm2,%xmm2
    c2e9:	0f 28 ea             	movaps %xmm2,%xmm5
    c2ec:	f3 0f 10 e3          	movss  %xmm3,%xmm4
    c2f0:	f3 0f 7e 5d 00       	movq   0x0(%rbp),%xmm3
    c2f5:	48 01 cd             	add    %rcx,%rbp
    c2f8:	0f 59 d3             	mulps  %xmm3,%xmm2
    c2fb:	44 0f 28 c3          	movaps %xmm3,%xmm8
    c2ff:	0f 59 df             	mulps  %xmm7,%xmm3
    c302:	45 0f c6 c0 e1       	shufps $0xe1,%xmm8,%xmm8
    c307:	41 0f 59 e8          	mulps  %xmm8,%xmm5
    c30b:	44 0f 59 c7          	mulps  %xmm7,%xmm8
    c30f:	44 0f 28 ca          	movaps %xmm2,%xmm9
    c313:	45 0f 5c c8          	subps  %xmm8,%xmm9
    c317:	41 0f 58 d0          	addps  %xmm8,%xmm2
        C_ADD( scratch[3] , scratch[0] , scratch[2] );
    c31b:	f3 41 0f 10 d1       	movss  %xmm9,%xmm2
    c320:	0f 58 c2             	addps  %xmm2,%xmm0
        C_MUL(scratch[0],Fout[m] , *tw1 );
    c323:	0f 28 d1             	movaps %xmm1,%xmm2
    c326:	0f 5c ce             	subps  %xmm6,%xmm1
    c329:	0f 58 d6             	addps  %xmm6,%xmm2
        C_MUL(scratch[2],Fout[m3] , *tw3 );
    c32c:	0f 28 f5             	movaps %xmm5,%xmm6
    c32f:	0f 5c eb             	subps  %xmm3,%xmm5
    c332:	0f 58 f3             	addps  %xmm3,%xmm6
        C_SUB( scratch[4] , scratch[0] , scratch[2] );
    c335:	f3 0f 10 ca          	movss  %xmm2,%xmm1
        C_MUL(scratch[2],Fout[m3] , *tw3 );
    c339:	0f 28 d5             	movaps %xmm5,%xmm2
        C_SUB( scratch[4] , scratch[0] , scratch[2] );
    c33c:	f3 0f 10 d6          	movss  %xmm6,%xmm2
    c340:	0f 5c ca             	subps  %xmm2,%xmm1
        C_SUB( scratch[5] , *Fout, scratch[1] );
    c343:	f3 41 0f 7e 54 c5 00 	movq   0x0(%r13,%rax,8),%xmm2
        C_ADDTO(*Fout, scratch[1]);
    c34a:	0f 28 ea             	movaps %xmm2,%xmm5
        C_SUB( scratch[5] , *Fout, scratch[1] );
    c34d:	0f 5c d4             	subps  %xmm4,%xmm2
        C_ADDTO(*Fout, scratch[1]);
    c350:	0f 58 ec             	addps  %xmm4,%xmm5
            Fout[m3].i = scratch[5].i - scratch[4].r;
    c353:	0f 28 da             	movaps %xmm2,%xmm3
            Fout[m3].r = scratch[5].r + scratch[4].i;
    c356:	0f 58 d1             	addps  %xmm1,%xmm2
        C_ADDTO(*Fout, scratch[1]);
    c359:	41 0f 13 6c c5 00    	movlps %xmm5,0x0(%r13,%rax,8)
        C_SUB( Fout[m2], *Fout, scratch[3] );
    c35f:	0f 5c e8             	subps  %xmm0,%xmm5
            Fout[m3].i = scratch[5].i - scratch[4].r;
    c362:	0f 5c d9             	subps  %xmm1,%xmm3
        C_SUB( Fout[m2], *Fout, scratch[3] );
    c365:	41 0f 13 2c c3       	movlps %xmm5,(%r11,%rax,8)
        C_ADDTO( *Fout , scratch[3] );
    c36a:	f3 41 0f 7e 4c c5 00 	movq   0x0(%r13,%rax,8),%xmm1
    c371:	0f 58 c8             	addps  %xmm0,%xmm1
            Fout[m].r = scratch[5].r - scratch[4].i;
    c374:	0f 28 c2             	movaps %xmm2,%xmm0
    c377:	f3 0f 10 c3          	movss  %xmm3,%xmm0
            Fout[m3].r = scratch[5].r + scratch[4].i;
    c37b:	f3 0f 10 da          	movss  %xmm2,%xmm3
        C_ADDTO( *Fout , scratch[3] );
    c37f:	41 0f 13 4c c5 00    	movlps %xmm1,0x0(%r13,%rax,8)
            Fout[m].r = scratch[5].r - scratch[4].i;
    c385:	41 0f 13 04 c2       	movlps %xmm0,(%r10,%rax,8)
            Fout[m3].r = scratch[5].r + scratch[4].i;
    c38a:	0f 13 1c c2          	movlps %xmm3,(%rdx,%rax,8)
    }while(--k);
    c38e:	48 83 c0 01          	add    $0x1,%rax
    c392:	48 39 d8             	cmp    %rbx,%rax
    c395:	0f 82 cf fe ff ff    	jb     c26a <kf_work+0x197a>
    c39b:	e9 ed e9 ff ff       	jmp    ad8d <kf_work+0x49d>
    c3a0:	48 63 5c 24 04       	movslq 0x4(%rsp),%rbx
    c3a5:	49 81 c1 08 01 00 00 	add    $0x108,%r9
        if(st->inverse) {
    c3ac:	4c 89 cd             	mov    %r9,%rbp
    c3af:	4c 89 ce             	mov    %r9,%rsi
    c3b2:	48 89 da             	mov    %rbx,%rdx
    c3b5:	48 89 d8             	mov    %rbx,%rax
    c3b8:	48 c1 e2 04          	shl    $0x4,%rdx
    c3bc:	48 f7 d8             	neg    %rax
    c3bf:	4d 8d 5c 15 00       	lea    0x0(%r13,%rdx,1),%r11
    c3c4:	4d 8d 14 c3          	lea    (%r11,%rax,8),%r10
    c3c8:	31 c0                	xor    %eax,%eax
    c3ca:	4c 01 d2             	add    %r10,%rdx
        C_MUL(scratch[0],Fout[m] , *tw1 );
    c3cd:	f3 0f 7e 36          	movq   (%rsi),%xmm6
    c3d1:	f3 41 0f 7e 14 c2    	movq   (%r10,%rax,8),%xmm2
    c3d7:	48 01 fe             	add    %rdi,%rsi
        C_MUL(scratch[1],Fout[m2] , *tw2 );
    c3da:	f3 41 0f 7e 19       	movq   (%r9),%xmm3
        C_MUL(scratch[2],Fout[m3] , *tw3 );
    c3df:	f3 0f 7e 3c c2       	movq   (%rdx,%rax,8),%xmm7
    c3e4:	4d 01 c1             	add    %r8,%r9
        C_MUL(scratch[0],Fout[m] , *tw1 );
    c3e7:	0f 28 c2             	movaps %xmm2,%xmm0
    c3ea:	44 0f 28 ce          	movaps %xmm6,%xmm9
    c3ee:	0f c6 d2 e5          	shufps $0xe5,%xmm2,%xmm2
    c3f2:	45 0f c6 c9 e1       	shufps $0xe1,%xmm9,%xmm9
    c3f7:	0f c6 c0 e0          	shufps $0xe0,%xmm0,%xmm0
    c3fb:	0f 28 c8             	movaps %xmm0,%xmm1
    c3fe:	41 0f 59 c9          	mulps  %xmm9,%xmm1
    c402:	0f 59 c6             	mulps  %xmm6,%xmm0
    c405:	44 0f 59 ca          	mulps  %xmm2,%xmm9
    c409:	0f 59 f2             	mulps  %xmm2,%xmm6
        C_MUL(scratch[1],Fout[m2] , *tw2 );
    c40c:	f3 41 0f 7e 14 c3    	movq   (%r11,%rax,8),%xmm2
    c412:	0f 28 e2             	movaps %xmm2,%xmm4
    c415:	0f c6 d2 e5          	shufps $0xe5,%xmm2,%xmm2
    c419:	0f c6 e4 e0          	shufps $0xe0,%xmm4,%xmm4
    c41d:	0f 59 e3             	mulps  %xmm3,%xmm4
    c420:	0f c6 db e1          	shufps $0xe1,%xmm3,%xmm3
        C_MUL(scratch[0],Fout[m] , *tw1 );
    c424:	44 0f 28 d0          	movaps %xmm0,%xmm10
        C_MUL(scratch[1],Fout[m2] , *tw2 );
    c428:	0f 59 d3             	mulps  %xmm3,%xmm2
        C_MUL(scratch[0],Fout[m] , *tw1 );
    c42b:	45 0f 5c d1          	subps  %xmm9,%xmm10
    c42f:	41 0f 58 c1          	addps  %xmm9,%xmm0
        C_ADD( scratch[3] , scratch[0] , scratch[2] );
    c433:	f3 41 0f 10 c2       	movss  %xmm10,%xmm0
        C_MUL(scratch[1],Fout[m2] , *tw2 );
    c438:	0f 28 dc             	movaps %xmm4,%xmm3
    c43b:	0f 5c da             	subps  %xmm2,%xmm3
    c43e:	0f 58 e2             	addps  %xmm2,%xmm4
        C_MUL(scratch[2],Fout[m3] , *tw3 );
    c441:	0f 28 d7             	movaps %xmm7,%xmm2
    c444:	0f c6 ff e5          	shufps $0xe5,%xmm7,%xmm7
    c448:	0f c6 d2 e0          	shufps $0xe0,%xmm2,%xmm2
    c44c:	0f 28 ea             	movaps %xmm2,%xmm5
    c44f:	f3 0f 10 e3          	movss  %xmm3,%xmm4
    c453:	f3 0f 7e 5d 00       	movq   0x0(%rbp),%xmm3
    c458:	48 01 cd             	add    %rcx,%rbp
    c45b:	0f 59 d3             	mulps  %xmm3,%xmm2
    c45e:	44 0f 28 c3          	movaps %xmm3,%xmm8
    c462:	0f 59 df             	mulps  %xmm7,%xmm3
    c465:	45 0f c6 c0 e1       	shufps $0xe1,%xmm8,%xmm8
    c46a:	41 0f 59 e8          	mulps  %xmm8,%xmm5
    c46e:	44 0f 59 c7          	mulps  %xmm7,%xmm8
    c472:	44 0f 28 ca          	movaps %xmm2,%xmm9
    c476:	45 0f 5c c8          	subps  %xmm8,%xmm9
    c47a:	41 0f 58 d0          	addps  %xmm8,%xmm2
        C_ADD( scratch[3] , scratch[0] , scratch[2] );
    c47e:	f3 41 0f 10 d1       	movss  %xmm9,%xmm2
    c483:	0f 58 c2             	addps  %xmm2,%xmm0
        C_MUL(scratch[0],Fout[m] , *tw1 );
    c486:	0f 28 d1             	movaps %xmm1,%xmm2
    c489:	0f 5c ce             	subps  %xmm6,%xmm1
    c48c:	0f 58 d6             	addps  %xmm6,%xmm2
        C_MUL(scratch[2],Fout[m3] , *tw3 );
    c48f:	0f 28 f5             	movaps %xmm5,%xmm6
    c492:	0f 5c eb             	subps  %xmm3,%xmm5
    c495:	0f 58 f3             	addps  %xmm3,%xmm6
        C_SUB( scratch[4] , scratch[0] , scratch[2] );
    c498:	f3 0f 10 ca          	movss  %xmm2,%xmm1
        C_MUL(scratch[2],Fout[m3] , *tw3 );
    c49c:	0f 28 d5             	movaps %xmm5,%xmm2
        C_SUB( scratch[4] , scratch[0] , scratch[2] );
    c49f:	f3 0f 10 d6          	movss  %xmm6,%xmm2
    c4a3:	0f 5c ca             	subps  %xmm2,%xmm1
        C_SUB( scratch[5] , *Fout, scratch[1] );
    c4a6:	f3 41 0f 7e 54 c5 00 	movq   0x0(%r13,%rax,8),%xmm2
        C_ADDTO(*Fout, scratch[1]);
    c4ad:	0f 28 ea             	movaps %xmm2,%xmm5
        C_SUB( scratch[5] , *Fout, scratch[1] );
    c4b0:	0f 5c d4             	subps  %xmm4,%xmm2
        C_ADDTO(*Fout, scratch[1]);
    c4b3:	0f 58 ec             	addps  %xmm4,%xmm5
            Fout[m].i = scratch[5].i + scratch[4].r;
    c4b6:	0f 28 da             	movaps %xmm2,%xmm3
            Fout[m].r = scratch[5].r - scratch[4].i;
    c4b9:	0f 5c d1             	subps  %xmm1,%xmm2
        C_ADDTO(*Fout, scratch[1]);
    c4bc:	41 0f 13 6c c5 00    	movlps %xmm5,0x0(%r13,%rax,8)
        C_SUB( Fout[m2], *Fout, scratch[3] );
    c4c2:	0f 5c e8             	subps  %xmm0,%xmm5
            Fout[m].i = scratch[5].i + scratch[4].r;
    c4c5:	0f 58 d9             	addps  %xmm1,%xmm3
        C_SUB( Fout[m2], *Fout, scratch[3] );
    c4c8:	41 0f 13 2c c3       	movlps %xmm5,(%r11,%rax,8)
        C_ADDTO( *Fout , scratch[3] );
    c4cd:	f3 41 0f 7e 4c c5 00 	movq   0x0(%r13,%rax,8),%xmm1
    c4d4:	0f 58 c8             	addps  %xmm0,%xmm1
            Fout[m].r = scratch[5].r - scratch[4].i;
    c4d7:	0f 28 c2             	movaps %xmm2,%xmm0
    c4da:	f3 0f 10 c3          	movss  %xmm3,%xmm0
            Fout[m3].r = scratch[5].r + scratch[4].i;
    c4de:	f3 0f 10 da          	movss  %xmm2,%xmm3
        C_ADDTO( *Fout , scratch[3] );
    c4e2:	41 0f 13 4c c5 00    	movlps %xmm1,0x0(%r13,%rax,8)
            Fout[m].r = scratch[5].r - scratch[4].i;
    c4e8:	41 0f 13 04 c2       	movlps %xmm0,(%r10,%rax,8)
            Fout[m3].r = scratch[5].r + scratch[4].i;
    c4ed:	0f 13 1c c2          	movlps %xmm3,(%rdx,%rax,8)
    }while(--k);
    c4f1:	48 83 c0 01          	add    $0x1,%rax
    c4f5:	48 39 d8             	cmp    %rbx,%rax
    c4f8:	0f 82 cf fe ff ff    	jb     c3cd <kf_work+0x1add>
    c4fe:	e9 8a e8 ff ff       	jmp    ad8d <kf_work+0x49d>
         C_MUL(scratch[2],Fout[m2] , *tw2);
    c503:	45 31 db             	xor    %r11d,%r11d
    c506:	e9 70 e7 ff ff       	jmp    ac7b <kf_work+0x38b>
    Fout2 = Fout + m;
    c50b:	31 c0                	xor    %eax,%eax
    c50d:	e9 96 ef ff ff       	jmp    b4a8 <kf_work+0xbb8>
    c512:	f3 0f 7e 2d ce 52 00 	movq   0x52ce(%rip),%xmm5        # 117e8 <g_pow43+0x3c8>
    c519:	00 
    c51a:	48 8b 7c 24 08       	mov    0x8(%rsp),%rdi
     tw1=tw2=st->twiddles;
    c51f:	48 89 c1             	mov    %rax,%rcx
    c522:	eb 04                	jmp    c528 <kf_work+0x1c38>
    c524:	48 83 ef 01          	sub    $0x1,%rdi
         C_MUL(scratch[1],Fout[m] , *tw1);
    c528:	f3 0f 7e 18          	movq   (%rax),%xmm3
    c52c:	f3 0f 7e 22          	movq   (%rdx),%xmm4
         tw1 += fstride;
    c530:	4c 01 d8             	add    %r11,%rax
         ++Fout;
    c533:	49 83 c5 08          	add    $0x8,%r13
         C_MUL(scratch[2],Fout[m2] , *tw2);
    c537:	f3 0f 7e 31          	movq   (%rcx),%xmm6
     }while(--k);
    c53b:	48 83 c2 08          	add    $0x8,%rdx
         tw2 += fstride*2;
    c53f:	48 01 d9             	add    %rbx,%rcx
     }while(--k);
    c542:	48 83 c6 08          	add    $0x8,%rsi
         C_MUL(scratch[1],Fout[m] , *tw1);
    c546:	44 0f 28 c3          	movaps %xmm3,%xmm8
    c54a:	0f 28 c4             	movaps %xmm4,%xmm0
    c54d:	0f 28 fb             	movaps %xmm3,%xmm7
    c550:	0f c6 e4 e5          	shufps $0xe5,%xmm4,%xmm4
    c554:	0f c6 c0 e0          	shufps $0xe0,%xmm0,%xmm0
    c558:	45 0f c6 c0 e1       	shufps $0xe1,%xmm8,%xmm8
    c55d:	0f 28 c8             	movaps %xmm0,%xmm1
         C_MUL(scratch[2],Fout[m2] , *tw2);
    c560:	44 0f 28 d6          	movaps %xmm6,%xmm10
         C_MUL(scratch[1],Fout[m] , *tw1);
    c564:	0f 59 fc             	mulps  %xmm4,%xmm7
         C_MUL(scratch[2],Fout[m2] , *tw2);
    c567:	45 0f c6 d2 e1       	shufps $0xe1,%xmm10,%xmm10
         C_MUL(scratch[1],Fout[m] , *tw1);
    c56c:	41 0f 59 c0          	mulps  %xmm8,%xmm0
    c570:	44 0f 59 c4          	mulps  %xmm4,%xmm8
         C_MUL(scratch[2],Fout[m2] , *tw2);
    c574:	f3 0f 7e 66 f8       	movq   -0x8(%rsi),%xmm4
         C_MUL(scratch[1],Fout[m] , *tw1);
    c579:	0f 59 cb             	mulps  %xmm3,%xmm1
         C_MUL(scratch[2],Fout[m2] , *tw2);
    c57c:	0f 28 dc             	movaps %xmm4,%xmm3
    c57f:	0f c6 e4 e5          	shufps $0xe5,%xmm4,%xmm4
    c583:	0f c6 db e0          	shufps $0xe0,%xmm3,%xmm3
    c587:	44 0f 28 cb          	movaps %xmm3,%xmm9
    c58b:	41 0f 59 da          	mulps  %xmm10,%xmm3
         C_MUL(scratch[1],Fout[m] , *tw1);
    c58f:	44 0f 28 d8          	movaps %xmm0,%xmm11
    c593:	0f 5c c7             	subps  %xmm7,%xmm0
         C_MUL(scratch[2],Fout[m2] , *tw2);
    c596:	44 0f 59 ce          	mulps  %xmm6,%xmm9
         C_MUL(scratch[1],Fout[m] , *tw1);
    c59a:	44 0f 58 df          	addps  %xmm7,%xmm11
         C_MUL(scratch[2],Fout[m2] , *tw2);
    c59e:	0f 59 f4             	mulps  %xmm4,%xmm6
    c5a1:	41 0f 59 e2          	mulps  %xmm10,%xmm4
         C_SUB(scratch[0],scratch[1],scratch[2]);
    c5a5:	f3 41 0f 10 c3       	movss  %xmm11,%xmm0
         C_MUL(scratch[2],Fout[m2] , *tw2);
    c5aa:	0f 28 fb             	movaps %xmm3,%xmm7
    c5ad:	0f 58 fe             	addps  %xmm6,%xmm7
    c5b0:	0f 5c de             	subps  %xmm6,%xmm3
    c5b3:	41 0f 28 f1          	movaps %xmm9,%xmm6
    c5b7:	0f 5c f4             	subps  %xmm4,%xmm6
         C_SUB(scratch[0],scratch[1],scratch[2]);
    c5ba:	f3 0f 10 df          	movss  %xmm7,%xmm3
    c5be:	0f 5c c3             	subps  %xmm3,%xmm0
         C_MUL(scratch[1],Fout[m] , *tw1);
    c5c1:	0f 28 d9             	movaps %xmm1,%xmm3
    c5c4:	41 0f 58 c8          	addps  %xmm8,%xmm1
    c5c8:	41 0f 5c d8          	subps  %xmm8,%xmm3
         C_MULBYSCALAR( scratch[0] , epi3.i );
    c5cc:	0f 59 c2             	mulps  %xmm2,%xmm0
         C_ADD(scratch[3],scratch[1],scratch[2]);
    c5cf:	f3 0f 10 cb          	movss  %xmm3,%xmm1
         C_MUL(scratch[2],Fout[m2] , *tw2);
    c5d3:	41 0f 28 d9          	movaps %xmm9,%xmm3
    c5d7:	0f 58 dc             	addps  %xmm4,%xmm3
         C_ADD(scratch[3],scratch[1],scratch[2]);
    c5da:	f3 0f 10 de          	movss  %xmm6,%xmm3
    c5de:	0f 58 cb             	addps  %xmm3,%xmm1
         Fout[m].r = Fout->r - HALF_OF(scratch[3].r);
    c5e1:	f3 41 0f 7e 5d f8    	movq   -0x8(%r13),%xmm3
    c5e7:	0f 28 e1             	movaps %xmm1,%xmm4
    c5ea:	0f 59 e5             	mulps  %xmm5,%xmm4
    c5ed:	0f 5c dc             	subps  %xmm4,%xmm3
    c5f0:	0f 13 5a f8          	movlps %xmm3,-0x8(%rdx)
         C_ADDTO(*Fout,scratch[3]);
    c5f4:	f3 41 0f 7e 5d f8    	movq   -0x8(%r13),%xmm3
    c5fa:	0f 58 d9             	addps  %xmm1,%xmm3
    c5fd:	41 0f 13 5d f8       	movlps %xmm3,-0x8(%r13)
         Fout[m2].r = Fout[m].r + scratch[0].i;
    c602:	f3 0f 7e 4a f8       	movq   -0x8(%rdx),%xmm1
    c607:	0f 28 d8             	movaps %xmm0,%xmm3
    c60a:	0f 58 d9             	addps  %xmm1,%xmm3
         Fout[m2].i = Fout[m].i - scratch[0].r;
    c60d:	0f 5c c8             	subps  %xmm0,%xmm1
         Fout[m2].r = Fout[m].r + scratch[0].i;
    c610:	f3 0f 10 cb          	movss  %xmm3,%xmm1
    c614:	0f 13 4e f8          	movlps %xmm1,-0x8(%rsi)
         Fout[m].r -= scratch[0].i;
    c618:	f3 0f 7e 4a f8       	movq   -0x8(%rdx),%xmm1
    c61d:	0f 28 d9             	movaps %xmm1,%xmm3
         Fout[m].i += scratch[0].r;
    c620:	0f 58 c8             	addps  %xmm0,%xmm1
         Fout[m].r -= scratch[0].i;
    c623:	0f 5c d8             	subps  %xmm0,%xmm3
    c626:	f3 0f 10 cb          	movss  %xmm3,%xmm1
    c62a:	0f 13 4a f8          	movlps %xmm1,-0x8(%rdx)
     }while(--k);
    c62e:	48 85 ff             	test   %rdi,%rdi
    c631:	0f 85 ed fe ff ff    	jne    c524 <kf_work+0x1c34>
    c637:	e9 51 e7 ff ff       	jmp    ad8d <kf_work+0x49d>
    c63c:	8b 44 24 04          	mov    0x4(%rsp),%eax
    c640:	83 e8 01             	sub    $0x1,%eax
    c643:	49 8d 44 c5 08       	lea    0x8(%r13,%rax,8),%rax
        C_MUL (t,  *Fout2 , *tw1);
    c648:	f3 0f 7e 09          	movq   (%rcx),%xmm1
    c64c:	f3 0f 7e 12          	movq   (%rdx),%xmm2
        ++Fout;
    c650:	49 83 c5 08          	add    $0x8,%r13
        tw1 += fstride;
    c654:	48 01 f2             	add    %rsi,%rdx
        ++Fout2;
    c657:	48 83 c1 08          	add    $0x8,%rcx
        C_MUL (t,  *Fout2 , *tw1);
    c65b:	0f 28 c1             	movaps %xmm1,%xmm0
    c65e:	0f c6 c9 e5          	shufps $0xe5,%xmm1,%xmm1
    c662:	0f c6 c0 e0          	shufps $0xe0,%xmm0,%xmm0
    c666:	0f 59 c2             	mulps  %xmm2,%xmm0
    c669:	0f c6 d2 e1          	shufps $0xe1,%xmm2,%xmm2
    c66d:	0f 59 ca             	mulps  %xmm2,%xmm1
    c670:	0f 28 d0             	movaps %xmm0,%xmm2
    c673:	0f 5c d1             	subps  %xmm1,%xmm2
    c676:	0f 58 c1             	addps  %xmm1,%xmm0
        C_SUB( *Fout2 ,  *Fout , t );
    c679:	f3 41 0f 7e 4d f8    	movq   -0x8(%r13),%xmm1
    c67f:	f3 0f 10 c2          	movss  %xmm2,%xmm0
    c683:	0f 5c c8             	subps  %xmm0,%xmm1
    c686:	0f 13 49 f8          	movlps %xmm1,-0x8(%rcx)
        C_ADDTO( *Fout ,  t );
    c68a:	f3 41 0f 7e 4d f8    	movq   -0x8(%r13),%xmm1
    c690:	0f 58 c8             	addps  %xmm0,%xmm1
    c693:	41 0f 13 4d f8       	movlps %xmm1,-0x8(%r13)
    }while (--m);
    c698:	4c 39 e8             	cmp    %r13,%rax
    c69b:	75 ab                	jne    c648 <kf_work+0x1d58>
    c69d:	e9 eb e6 ff ff       	jmp    ad8d <kf_work+0x49d>
         tw2 += fstride*2;
    c6a2:	31 c0                	xor    %eax,%eax
    c6a4:	e9 cf f4 ff ff       	jmp    bb78 <kf_work+0x1288>
        tw1 += fstride;
    c6a9:	31 c0                	xor    %eax,%eax
    c6ab:	e9 24 f1 ff ff       	jmp    b7d4 <kf_work+0xee4>

000000000000c6b0 <kiss_fft_alloc>:
 *
 * The return value is a contiguous block of memory, allocated with malloc.  As such,
 * It can be freed with free(), rather than a kiss_fft-specific function.
 * */
kiss_fft_cfg kiss_fft_alloc(int nfft,int inverse_fft,void * mem,size_t * lenmem )
{
    c6b0:	f3 0f 1e fa          	endbr64
    c6b4:	41 57                	push   %r15
    c6b6:	41 56                	push   %r14
    c6b8:	41 55                	push   %r13
    c6ba:	41 89 f5             	mov    %esi,%r13d
    c6bd:	41 54                	push   %r12
    c6bf:	55                   	push   %rbp
    c6c0:	48 63 ef             	movslq %edi,%rbp
    c6c3:	53                   	push   %rbx
    KISS_FFT_ALIGN_CHECK(mem)

    kiss_fft_cfg st=NULL;
    size_t memneeded = KISS_FFT_ALIGN_SIZE_UP(sizeof(struct kiss_fft_state)
    c6c4:	48 8d 3c ed 08 01 00 	lea    0x108(,%rbp,8),%rdi
    c6cb:	00 
{
    c6cc:	48 89 eb             	mov    %rbp,%rbx
    c6cf:	48 83 ec 28          	sub    $0x28,%rsp
        + sizeof(kiss_fft_cpx)*(nfft-1)); /* twiddle factors*/

    if ( lenmem==NULL ) {
    c6d3:	48 85 c9             	test   %rcx,%rcx
    c6d6:	0f 84 2c 02 00 00    	je     c908 <kiss_fft_alloc+0x258>
    c6dc:	49 89 d4             	mov    %rdx,%r12
        st = ( kiss_fft_cfg)KISS_FFT_MALLOC( memneeded );
    }else{
        if (mem != NULL && *lenmem >= memneeded)
    c6df:	48 85 d2             	test   %rdx,%rdx
    c6e2:	0f 84 d8 01 00 00    	je     c8c0 <kiss_fft_alloc+0x210>
    c6e8:	48 39 39             	cmp    %rdi,(%rcx)
    c6eb:	0f 82 cf 01 00 00    	jb     c8c0 <kiss_fft_alloc+0x210>
            st = (kiss_fft_cfg)mem;
        *lenmem = memneeded;
    c6f1:	48 89 39             	mov    %rdi,(%rcx)
    floor_sqrt = floor( sqrt((double)n) );
    c6f4:	66 0f ef d2          	pxor   %xmm2,%xmm2
    }
    if (st) {
        int i;
        st->nfft=nfft;
    c6f8:	41 89 1c 24          	mov    %ebx,(%r12)
    floor_sqrt = floor( sqrt((double)n) );
    c6fc:	f2 0f 2a d3          	cvtsi2sd %ebx,%xmm2
        st->inverse = inverse_fft;
    c700:	45 89 6c 24 04       	mov    %r13d,0x4(%r12)
    floor_sqrt = floor( sqrt((double)n) );
    c705:	f2 0f 11 14 24       	movsd  %xmm2,(%rsp)

        for (i=0;i<nfft;++i) {
    c70a:	85 db                	test   %ebx,%ebx
    c70c:	7e 65                	jle    c773 <kiss_fft_alloc+0xc3>
    c70e:	f2 0f 10 15 ea 50 00 	movsd  0x50ea(%rip),%xmm2        # 11800 <g_pow43+0x3e0>
    c715:	00 
    c716:	45 31 ff             	xor    %r15d,%r15d
    c719:	45 85 ed             	test   %r13d,%r13d
    c71c:	4c 8d 74 24 18       	lea    0x18(%rsp),%r14
    c721:	4c 8d 6c 24 10       	lea    0x10(%rsp),%r13
    c726:	f2 0f 11 54 24 08    	movsd  %xmm2,0x8(%rsp)
    c72c:	0f 85 3e 01 00 00    	jne    c870 <kiss_fft_alloc+0x1c0>
    c732:	66 0f 1f 44 00 00    	nopw   0x0(%rax,%rax,1)
            const double pi=3.141592653589793238462643383279502884197169399375105820974944;
            double phase = -2*pi*i / nfft;
    c738:	66 0f ef c0          	pxor   %xmm0,%xmm0
    c73c:	4c 89 ee             	mov    %r13,%rsi
    c73f:	4c 89 f7             	mov    %r14,%rdi
    c742:	f2 41 0f 2a c7       	cvtsi2sd %r15d,%xmm0
    c747:	f2 0f 59 44 24 08    	mulsd  0x8(%rsp),%xmm0
    c74d:	f2 0f 5e 04 24       	divsd  (%rsp),%xmm0
    c752:	e8 29 5e ff ff       	call   2580 <sincos@plt>
            if (st->inverse)
                phase *= -1;
            kf_cexp(st->twiddles+i, phase );
    c757:	66 0f 10 44 24 10    	movupd 0x10(%rsp),%xmm0
    c75d:	66 0f 5a c0          	cvtpd2ps %xmm0,%xmm0
    c761:	43 0f 13 84 fc 08 01 	movlps %xmm0,0x108(%r12,%r15,8)
    c768:	00 00 
        for (i=0;i<nfft;++i) {
    c76a:	49 83 c7 01          	add    $0x1,%r15
    c76e:	4c 39 fd             	cmp    %r15,%rbp
    c771:	75 c5                	jne    c738 <kiss_fft_alloc+0x88>
        }

        kf_factor(nfft,st->factors);
    c773:	66 0f ef c0          	pxor   %xmm0,%xmm0
    c777:	66 0f 2e 04 24       	ucomisd (%rsp),%xmm0
    c77c:	49 8d 6c 24 08       	lea    0x8(%r12),%rbp
    floor_sqrt = floor( sqrt((double)n) );
    c781:	0f 87 94 01 00 00    	ja     c91b <kiss_fft_alloc+0x26b>
    c787:	f2 0f 10 04 24       	movsd  (%rsp),%xmm0
    c78c:	f2 0f 51 c0          	sqrtsd %xmm0,%xmm0
    c790:	f2 0f 10 15 80 50 00 	movsd  0x5080(%rip),%xmm2        # 11818 <g_pow43+0x3f8>
    c797:	00 
    c798:	f2 0f 10 1d 68 50 00 	movsd  0x5068(%rip),%xmm3        # 11808 <g_pow43+0x3e8>
    c79f:	00 
    c7a0:	66 0f 28 c8          	movapd %xmm0,%xmm1
    c7a4:	66 0f 54 ca          	andpd  %xmm2,%xmm1
    c7a8:	66 0f 2e d9          	ucomisd %xmm1,%xmm3
    c7ac:	76 33                	jbe    c7e1 <kiss_fft_alloc+0x131>
    c7ae:	f2 48 0f 2c c0       	cvttsd2si %xmm0,%rax
    c7b3:	66 0f ef c9          	pxor   %xmm1,%xmm1
    c7b7:	f2 0f 10 25 51 50 00 	movsd  0x5051(%rip),%xmm4        # 11810 <g_pow43+0x3f0>
    c7be:	00 
    c7bf:	66 0f 55 d0          	andnpd %xmm0,%xmm2
    c7c3:	f2 48 0f 2a c8       	cvtsi2sd %rax,%xmm1
    c7c8:	66 0f 28 d9          	movapd %xmm1,%xmm3
    c7cc:	f2 0f c2 d8 06       	cmpnlesd %xmm0,%xmm3
    c7d1:	66 0f 54 dc          	andpd  %xmm4,%xmm3
    c7d5:	f2 0f 5c cb          	subsd  %xmm3,%xmm1
    c7d9:	66 0f 56 ca          	orpd   %xmm2,%xmm1
    c7dd:	66 0f 28 c1          	movapd %xmm1,%xmm0
    int p=4;
    c7e1:	b9 04 00 00 00       	mov    $0x4,%ecx
    c7e6:	66 2e 0f 1f 84 00 00 	cs nopw 0x0(%rax,%rax,1)
    c7ed:	00 00 00 
        while (n % p) {
    c7f0:	89 d8                	mov    %ebx,%eax
    c7f2:	99                   	cltd
    c7f3:	f7 f9                	idiv   %ecx
    c7f5:	85 d2                	test   %edx,%edx
    c7f7:	74 57                	je     c850 <kiss_fft_alloc+0x1a0>
            switch (p) {
    c7f9:	83 f9 02             	cmp    $0x2,%ecx
    c7fc:	0f 84 de 00 00 00    	je     c8e0 <kiss_fft_alloc+0x230>
    c802:	83 f9 04             	cmp    $0x4,%ecx
    c805:	75 2d                	jne    c834 <kiss_fft_alloc+0x184>
    c807:	f2 0f 10 0d e1 4f 00 	movsd  0x4fe1(%rip),%xmm1        # 117f0 <g_pow43+0x3d0>
    c80e:	00 
                case 4: p = 2; break;
    c80f:	b9 02 00 00 00       	mov    $0x2,%ecx
            if (p > floor_sqrt)
    c814:	66 0f 2f c8          	comisd %xmm0,%xmm1
    c818:	77 2b                	ja     c845 <kiss_fft_alloc+0x195>
        while (n % p) {
    c81a:	89 d8                	mov    %ebx,%eax
    c81c:	99                   	cltd
    c81d:	f7 f9                	idiv   %ecx
    c81f:	85 d2                	test   %edx,%edx
    c821:	74 2d                	je     c850 <kiss_fft_alloc+0x1a0>
            switch (p) {
    c823:	f2 0f 10 0d cd 4f 00 	movsd  0x4fcd(%rip),%xmm1        # 117f8 <g_pow43+0x3d8>
    c82a:	00 
    c82b:	83 f9 02             	cmp    $0x2,%ecx
    c82e:	0f 84 c4 00 00 00    	je     c8f8 <kiss_fft_alloc+0x248>
                default: p += 2; break;
    c834:	83 c1 02             	add    $0x2,%ecx
            if (p > floor_sqrt)
    c837:	66 0f ef c9          	pxor   %xmm1,%xmm1
    c83b:	f2 0f 2a c9          	cvtsi2sd %ecx,%xmm1
    c83f:	66 0f 2f c8          	comisd %xmm0,%xmm1
    c843:	76 d5                	jbe    c81a <kiss_fft_alloc+0x16a>
        while (n % p) {
    c845:	89 d8                	mov    %ebx,%eax
                p = n;          /* no more factors, skip to end */
    c847:	89 d9                	mov    %ebx,%ecx
        while (n % p) {
    c849:	99                   	cltd
    c84a:	f7 f9                	idiv   %ecx
    c84c:	85 d2                	test   %edx,%edx
    c84e:	75 a9                	jne    c7f9 <kiss_fft_alloc+0x149>
        n /= p;
    c850:	89 d8                	mov    %ebx,%eax
        *facbuf++ = p;
    c852:	89 4d 00             	mov    %ecx,0x0(%rbp)
        n /= p;
    c855:	99                   	cltd
    c856:	f7 f9                	idiv   %ecx
        *facbuf++ = n;
    c858:	89 45 04             	mov    %eax,0x4(%rbp)
        n /= p;
    c85b:	89 c3                	mov    %eax,%ebx
    } while (n > 1);
    c85d:	83 f8 01             	cmp    $0x1,%eax
    c860:	7e 64                	jle    c8c6 <kiss_fft_alloc+0x216>
        *facbuf++ = n;
    c862:	48 83 c5 08          	add    $0x8,%rbp
    c866:	eb 88                	jmp    c7f0 <kiss_fft_alloc+0x140>
    c868:	0f 1f 84 00 00 00 00 	nopl   0x0(%rax,%rax,1)
    c86f:	00 
            double phase = -2*pi*i / nfft;
    c870:	66 0f ef c0          	pxor   %xmm0,%xmm0
    c874:	4c 89 ee             	mov    %r13,%rsi
    c877:	4c 89 f7             	mov    %r14,%rdi
    c87a:	f2 41 0f 2a c7       	cvtsi2sd %r15d,%xmm0
    c87f:	f2 0f 59 44 24 08    	mulsd  0x8(%rsp),%xmm0
    c885:	f2 0f 5e 04 24       	divsd  (%rsp),%xmm0
                phase *= -1;
    c88a:	66 0f 57 05 de 4e 00 	xorpd  0x4ede(%rip),%xmm0        # 11770 <g_pow43+0x350>
    c891:	00 
    c892:	e8 e9 5c ff ff       	call   2580 <sincos@plt>
            kf_cexp(st->twiddles+i, phase );
    c897:	66 0f 10 44 24 10    	movupd 0x10(%rsp),%xmm0
    c89d:	66 0f 5a c0          	cvtpd2ps %xmm0,%xmm0
    c8a1:	43 0f 13 84 fc 08 01 	movlps %xmm0,0x108(%r12,%r15,8)
    c8a8:	00 00 
        for (i=0;i<nfft;++i) {
    c8aa:	49 83 c7 01          	add    $0x1,%r15
    c8ae:	4c 39 fd             	cmp    %r15,%rbp
    c8b1:	75 bd                	jne    c870 <kiss_fft_alloc+0x1c0>
    c8b3:	e9 bb fe ff ff       	jmp    c773 <kiss_fft_alloc+0xc3>
    c8b8:	0f 1f 84 00 00 00 00 	nopl   0x0(%rax,%rax,1)
    c8bf:	00 
        *lenmem = memneeded;
    c8c0:	48 89 39             	mov    %rdi,(%rcx)
    int p=4;
    c8c3:	45 31 e4             	xor    %r12d,%r12d
    }
    return st;
}
    c8c6:	48 83 c4 28          	add    $0x28,%rsp
    c8ca:	4c 89 e0             	mov    %r12,%rax
    c8cd:	5b                   	pop    %rbx
    c8ce:	5d                   	pop    %rbp
    c8cf:	41 5c                	pop    %r12
    c8d1:	41 5d                	pop    %r13
    c8d3:	41 5e                	pop    %r14
    c8d5:	41 5f                	pop    %r15
    c8d7:	c3                   	ret
    c8d8:	0f 1f 84 00 00 00 00 	nopl   0x0(%rax,%rax,1)
    c8df:	00 
            switch (p) {
    c8e0:	f2 0f 10 0d 10 4f 00 	movsd  0x4f10(%rip),%xmm1        # 117f8 <g_pow43+0x3d8>
    c8e7:	00 
    c8e8:	b9 03 00 00 00       	mov    $0x3,%ecx
    c8ed:	e9 22 ff ff ff       	jmp    c814 <kiss_fft_alloc+0x164>
    c8f2:	66 0f 1f 44 00 00    	nopw   0x0(%rax,%rax,1)
    c8f8:	b9 03 00 00 00       	mov    $0x3,%ecx
    c8fd:	e9 12 ff ff ff       	jmp    c814 <kiss_fft_alloc+0x164>
    c902:	66 0f 1f 44 00 00    	nopw   0x0(%rax,%rax,1)
        st = ( kiss_fft_cfg)KISS_FFT_MALLOC( memneeded );
    c908:	e8 b3 5c ff ff       	call   25c0 <malloc@plt>
    c90d:	49 89 c4             	mov    %rax,%r12
    if (st) {
    c910:	48 85 c0             	test   %rax,%rax
    c913:	0f 85 db fd ff ff    	jne    c6f4 <kiss_fft_alloc+0x44>
    c919:	eb a8                	jmp    c8c3 <kiss_fft_alloc+0x213>
    floor_sqrt = floor( sqrt((double)n) );
    c91b:	f2 0f 10 04 24       	movsd  (%rsp),%xmm0
    c920:	e8 7b 5b ff ff       	call   24a0 <sqrt@plt>
    c925:	e9 66 fe ff ff       	jmp    c790 <kiss_fft_alloc+0xe0>
    c92a:	66 0f 1f 44 00 00    	nopw   0x0(%rax,%rax,1)

000000000000c930 <kiss_fft_stride>:


void kiss_fft_stride(kiss_fft_cfg st,const kiss_fft_cpx *fin,kiss_fft_cpx *fout,int in_stride)
{
    c930:	f3 0f 1e fa          	endbr64
    c934:	41 55                	push   %r13
    c936:	41 54                	push   %r12
    c938:	55                   	push   %rbp
    c939:	48 89 fd             	mov    %rdi,%rbp
    c93c:	53                   	push   %rbx
    c93d:	48 89 f3             	mov    %rsi,%rbx
    c940:	48 83 ec 18          	sub    $0x18,%rsp
    if (fin == fout) {
    c944:	48 39 d6             	cmp    %rdx,%rsi
    c947:	74 27                	je     c970 <kiss_fft_stride+0x40>
        memcpy(fout,tmpbuf,sizeof(kiss_fft_cpx)*st->nfft);
        KISS_FFT_TMP_FREE(tmpbuf);
    }else{
        kf_work( fout, fin, 1,in_stride, st->factors,st );
    }
}
    c949:	48 83 c4 18          	add    $0x18,%rsp
    c94d:	48 89 d7             	mov    %rdx,%rdi
        kf_work( fout, fin, 1,in_stride, st->factors,st );
    c950:	49 89 e9             	mov    %rbp,%r9
    c953:	ba 01 00 00 00       	mov    $0x1,%edx
}
    c958:	5b                   	pop    %rbx
        kf_work( fout, fin, 1,in_stride, st->factors,st );
    c959:	4c 8d 45 08          	lea    0x8(%rbp),%r8
}
    c95d:	5d                   	pop    %rbp
    c95e:	41 5c                	pop    %r12
    c960:	41 5d                	pop    %r13
        kf_work( fout, fin, 1,in_stride, st->factors,st );
    c962:	e9 89 df ff ff       	jmp    a8f0 <kf_work>
    c967:	66 0f 1f 84 00 00 00 	nopw   0x0(%rax,%rax,1)
    c96e:	00 00 
    c970:	89 4c 24 0c          	mov    %ecx,0xc(%rsp)
        if (fout == NULL){
    c974:	48 85 f6             	test   %rsi,%rsi
    c977:	74 57                	je     c9d0 <kiss_fft_stride+0xa0>
        kiss_fft_cpx * tmpbuf = (kiss_fft_cpx*)KISS_FFT_TMP_ALLOC( sizeof(kiss_fft_cpx)*st->nfft);
    c979:	4c 63 2f             	movslq (%rdi),%r13
    c97c:	49 c1 e5 03          	shl    $0x3,%r13
    c980:	4c 89 ef             	mov    %r13,%rdi
    c983:	e8 38 5c ff ff       	call   25c0 <malloc@plt>
    c988:	49 89 c4             	mov    %rax,%r12
        if (tmpbuf == NULL){
    c98b:	48 85 c0             	test   %rax,%rax
    c98e:	74 40                	je     c9d0 <kiss_fft_stride+0xa0>
        kf_work(tmpbuf,fin,1,in_stride, st->factors,st);
    c990:	8b 4c 24 0c          	mov    0xc(%rsp),%ecx
    c994:	49 89 e9             	mov    %rbp,%r9
    c997:	4c 8d 45 08          	lea    0x8(%rbp),%r8
    c99b:	48 89 de             	mov    %rbx,%rsi
    c99e:	48 89 c7             	mov    %rax,%rdi
    c9a1:	ba 01 00 00 00       	mov    $0x1,%edx
    c9a6:	e8 45 df ff ff       	call   a8f0 <kf_work>
  return __builtin___memcpy_chk (__dest, __src, __len,
    c9ab:	48 89 df             	mov    %rbx,%rdi
    c9ae:	4c 89 ea             	mov    %r13,%rdx
    c9b1:	4c 89 e6             	mov    %r12,%rsi
    c9b4:	e8 d7 59 ff ff       	call   2390 <memcpy@plt>
}
    c9b9:	48 83 c4 18          	add    $0x18,%rsp
        KISS_FFT_TMP_FREE(tmpbuf);
    c9bd:	4c 89 e7             	mov    %r12,%rdi
}
    c9c0:	5b                   	pop    %rbx
    c9c1:	5d                   	pop    %rbp
    c9c2:	41 5c                	pop    %r12
    c9c4:	41 5d                	pop    %r13
        KISS_FFT_TMP_FREE(tmpbuf);
    c9c6:	e9 f5 59 ff ff       	jmp    23c0 <free@plt>
    c9cb:	0f 1f 44 00 00       	nopl   0x0(%rax,%rax,1)
}
    c9d0:	48 83 c4 18          	add    $0x18,%rsp
    c9d4:	5b                   	pop    %rbx
    c9d5:	5d                   	pop    %rbp
    c9d6:	41 5c                	pop    %r12
    c9d8:	41 5d                	pop    %r13
    c9da:	c3                   	ret
    c9db:	0f 1f 44 00 00       	nopl   0x0(%rax,%rax,1)

000000000000c9e0 <kiss_fft>:

void kiss_fft(kiss_fft_cfg cfg,const kiss_fft_cpx *fin,kiss_fft_cpx *fout)
{
    c9e0:	f3 0f 1e fa          	endbr64
    c9e4:	41 55                	push   %r13
    c9e6:	41 54                	push   %r12
    c9e8:	55                   	push   %rbp
    c9e9:	48 89 fd             	mov    %rdi,%rbp
    c9ec:	53                   	push   %rbx
    c9ed:	48 89 f3             	mov    %rsi,%rbx
    c9f0:	48 83 ec 08          	sub    $0x8,%rsp
    if (fin == fout) {
    c9f4:	48 39 d6             	cmp    %rdx,%rsi
    c9f7:	74 27                	je     ca20 <kiss_fft+0x40>
    kiss_fft_stride(cfg,fin,fout,1);
}
    c9f9:	48 83 c4 08          	add    $0x8,%rsp
    c9fd:	48 89 d7             	mov    %rdx,%rdi
        kf_work( fout, fin, 1,in_stride, st->factors,st );
    ca00:	49 89 e9             	mov    %rbp,%r9
    ca03:	b9 01 00 00 00       	mov    $0x1,%ecx
}
    ca08:	5b                   	pop    %rbx
        kf_work( fout, fin, 1,in_stride, st->factors,st );
    ca09:	4c 8d 45 08          	lea    0x8(%rbp),%r8
    ca0d:	ba 01 00 00 00       	mov    $0x1,%edx
}
    ca12:	5d                   	pop    %rbp
    ca13:	41 5c                	pop    %r12
    ca15:	41 5d                	pop    %r13
        kf_work( fout, fin, 1,in_stride, st->factors,st );
    ca17:	e9 d4 de ff ff       	jmp    a8f0 <kf_work>
    ca1c:	0f 1f 40 00          	nopl   0x0(%rax)
        if (fout == NULL){
    ca20:	48 85 f6             	test   %rsi,%rsi
    ca23:	74 5b                	je     ca80 <kiss_fft+0xa0>
        kiss_fft_cpx * tmpbuf = (kiss_fft_cpx*)KISS_FFT_TMP_ALLOC( sizeof(kiss_fft_cpx)*st->nfft);
    ca25:	4c 63 2f             	movslq (%rdi),%r13
    ca28:	49 c1 e5 03          	shl    $0x3,%r13
    ca2c:	4c 89 ef             	mov    %r13,%rdi
    ca2f:	e8 8c 5b ff ff       	call   25c0 <malloc@plt>
    ca34:	49 89 c4             	mov    %rax,%r12
        if (tmpbuf == NULL){
    ca37:	48 85 c0             	test   %rax,%rax
    ca3a:	74 44                	je     ca80 <kiss_fft+0xa0>
        kf_work(tmpbuf,fin,1,in_stride, st->factors,st);
    ca3c:	49 89 e9             	mov    %rbp,%r9
    ca3f:	4c 8d 45 08          	lea    0x8(%rbp),%r8
    ca43:	48 89 de             	mov    %rbx,%rsi
    ca46:	48 89 c7             	mov    %rax,%rdi
    ca49:	b9 01 00 00 00       	mov    $0x1,%ecx
    ca4e:	ba 01 00 00 00       	mov    $0x1,%edx
    ca53:	e8 98 de ff ff       	call   a8f0 <kf_work>
    ca58:	48 89 df             	mov    %rbx,%rdi
    ca5b:	4c 89 ea             	mov    %r13,%rdx
    ca5e:	4c 89 e6             	mov    %r12,%rsi
    ca61:	e8 2a 59 ff ff       	call   2390 <memcpy@plt>
}
    ca66:	48 83 c4 08          	add    $0x8,%rsp
        KISS_FFT_TMP_FREE(tmpbuf);
    ca6a:	4c 89 e7             	mov    %r12,%rdi
}
    ca6d:	5b                   	pop    %rbx
    ca6e:	5d                   	pop    %rbp
    ca6f:	41 5c                	pop    %r12
    ca71:	41 5d                	pop    %r13
        KISS_FFT_TMP_FREE(tmpbuf);
    ca73:	e9 48 59 ff ff       	jmp    23c0 <free@plt>
    ca78:	0f 1f 84 00 00 00 00 	nopl   0x0(%rax,%rax,1)
    ca7f:	00 
}
    ca80:	48 83 c4 08          	add    $0x8,%rsp
    ca84:	5b                   	pop    %rbx
    ca85:	5d                   	pop    %rbp
    ca86:	41 5c                	pop    %r12
    ca88:	41 5d                	pop    %r13
    ca8a:	c3                   	ret
    ca8b:	0f 1f 44 00 00       	nopl   0x0(%rax,%rax,1)

000000000000ca90 <kiss_fft_cleanup>:


void kiss_fft_cleanup(void)
{
    ca90:	f3 0f 1e fa          	endbr64
    // nothing needed any more
}
    ca94:	c3                   	ret
    ca95:	66 66 2e 0f 1f 84 00 	data16 cs nopw 0x0(%rax,%rax,1)
    ca9c:	00 00 00 00 

000000000000caa0 <kiss_fft_next_fast_size>:

int kiss_fft_next_fast_size(int n)
{
    caa0:	f3 0f 1e fa          	endbr64
    caa4:	0f 1f 40 00          	nopl   0x0(%rax)
    while(1) {
        int m=n;
    caa8:	89 f8                	mov    %edi,%eax
        while ( (m%2) == 0 ) m/=2;
    caaa:	40 f6 c7 01          	test   $0x1,%dil
    caae:	75 2f                	jne    cadf <kiss_fft_next_fast_size+0x3f>
    cab0:	89 c2                	mov    %eax,%edx
    cab2:	c1 ea 1f             	shr    $0x1f,%edx
    cab5:	01 c2                	add    %eax,%edx
    cab7:	89 d0                	mov    %edx,%eax
    cab9:	d1 f8                	sar    $1,%eax
    cabb:	83 e2 02             	and    $0x2,%edx
    cabe:	74 f0                	je     cab0 <kiss_fft_next_fast_size+0x10>
    cac0:	eb 1d                	jmp    cadf <kiss_fft_next_fast_size+0x3f>
    cac2:	66 0f 1f 44 00 00    	nopw   0x0(%rax,%rax,1)
        while ( (m%3) == 0 ) m/=3;
    cac8:	48 63 d0             	movslq %eax,%rdx
    cacb:	c1 f8 1f             	sar    $0x1f,%eax
    cace:	48 69 d2 56 55 55 55 	imul   $0x55555556,%rdx,%rdx
    cad5:	89 c1                	mov    %eax,%ecx
    cad7:	48 c1 ea 20          	shr    $0x20,%rdx
    cadb:	89 d0                	mov    %edx,%eax
    cadd:	29 c8                	sub    %ecx,%eax
    cadf:	69 d0 ab aa aa aa    	imul   $0xaaaaaaab,%eax,%edx
    cae5:	81 c2 aa aa aa 2a    	add    $0x2aaaaaaa,%edx
    caeb:	81 fa 54 55 55 55    	cmp    $0x55555554,%edx
    caf1:	76 d5                	jbe    cac8 <kiss_fft_next_fast_size+0x28>
    caf3:	eb 1a                	jmp    cb0f <kiss_fft_next_fast_size+0x6f>
    caf5:	0f 1f 00             	nopl   (%rax)
        while ( (m%5) == 0 ) m/=5;
    caf8:	48 63 d0             	movslq %eax,%rdx
    cafb:	c1 f8 1f             	sar    $0x1f,%eax
    cafe:	48 69 d2 67 66 66 66 	imul   $0x66666667,%rdx,%rdx
    cb05:	89 c1                	mov    %eax,%ecx
    cb07:	48 c1 fa 21          	sar    $0x21,%rdx
    cb0b:	89 d0                	mov    %edx,%eax
    cb0d:	29 c8                	sub    %ecx,%eax
    cb0f:	69 d0 cd cc cc cc    	imul   $0xcccccccd,%eax,%edx
    cb15:	81 c2 99 99 99 19    	add    $0x19999999,%edx
    cb1b:	81 fa 32 33 33 33    	cmp    $0x33333332,%edx
    cb21:	76 d5                	jbe    caf8 <kiss_fft_next_fast_size+0x58>
        if (m<=1)
    cb23:	83 f8 01             	cmp    $0x1,%eax
    cb26:	7e 08                	jle    cb30 <kiss_fft_next_fast_size+0x90>
            break; /* n is completely factorable by twos, threes, and fives */
        n++;
    cb28:	83 c7 01             	add    $0x1,%edi
    while(1) {
    cb2b:	e9 78 ff ff ff       	jmp    caa8 <kiss_fft_next_fast_size+0x8>
    }
    return n;
}
    cb30:	89 f8                	mov    %edi,%eax
    cb32:	c3                   	ret
    cb33:	66 2e 0f 1f 84 00 00 	cs nopw 0x0(%rax,%rax,1)
    cb3a:	00 00 00 
    cb3d:	0f 1f 00             	nopl   (%rax)

000000000000cb40 <seg7_init>:

static int file_d = 0;
int32_t current_R = 0;
int32_t current_L = 0;

void seg7_init(int fd) {
    cb40:	f3 0f 1e fa          	endbr64
    cb44:	55                   	push   %rbp
  int reset = 0xfffffff;
  // 0 vai ser o da direita da frente da placa e 1 o da esquerda
  if (idx) {
    ioctl(file_d, WR_R_DISPLAY);
  } else {
    ioctl(file_d, WR_L_DISPLAY);
    cb45:	be 63 61 00 00       	mov    $0x6163,%esi
void seg7_init(int fd) {
    cb4a:	53                   	push   %rbx
    cb4b:	89 fb                	mov    %edi,%ebx
    cb4d:	48 83 ec 18          	sub    $0x18,%rsp
    cb51:	64 48 8b 04 25 28 00 	mov    %fs:0x28,%rax
    cb58:	00 00 
    cb5a:	48 89 44 24 08       	mov    %rax,0x8(%rsp)
    cb5f:	31 c0                	xor    %eax,%eax
  }
  write(file_d, &reset, sizeof(reset));
    cb61:	48 8d 6c 24 04       	lea    0x4(%rsp),%rbp
  file_d = fd;
    cb66:	89 3d 98 76 00 00    	mov    %edi,0x7698(%rip)        # 14204 <file_d>
  int reset = 0xfffffff;
    cb6c:	c7 44 24 04 ff ff ff 	movl   $0xfffffff,0x4(%rsp)
    cb73:	0f 
    ioctl(file_d, WR_L_DISPLAY);
    cb74:	e8 27 58 ff ff       	call   23a0 <ioctl@plt>
  write(file_d, &reset, sizeof(reset));
    cb79:	ba 04 00 00 00       	mov    $0x4,%edx
    cb7e:	89 df                	mov    %ebx,%edi
    cb80:	48 89 ee             	mov    %rbp,%rsi
    cb83:	e8 68 5a ff ff       	call   25f0 <write@plt>
    ioctl(file_d, WR_R_DISPLAY);
    cb88:	8b 1d 76 76 00 00    	mov    0x7676(%rip),%ebx        # 14204 <file_d>
    cb8e:	31 c0                	xor    %eax,%eax
    cb90:	be 64 61 00 00       	mov    $0x6164,%esi
  int reset = 0xfffffff;
    cb95:	c7 44 24 04 ff ff ff 	movl   $0xfffffff,0x4(%rsp)
    cb9c:	0f 
    ioctl(file_d, WR_R_DISPLAY);
    cb9d:	89 df                	mov    %ebx,%edi
    cb9f:	e8 fc 57 ff ff       	call   23a0 <ioctl@plt>
  write(file_d, &reset, sizeof(reset));
    cba4:	ba 04 00 00 00       	mov    $0x4,%edx
    cba9:	48 89 ee             	mov    %rbp,%rsi
    cbac:	89 df                	mov    %ebx,%edi
    cbae:	e8 3d 5a ff ff       	call   25f0 <write@plt>
}
    cbb3:	48 8b 44 24 08       	mov    0x8(%rsp),%rax
    cbb8:	64 48 2b 04 25 28 00 	sub    %fs:0x28,%rax
    cbbf:	00 00 
    cbc1:	75 07                	jne    cbca <seg7_init+0x8a>
    cbc3:	48 83 c4 18          	add    $0x18,%rsp
    cbc7:	5b                   	pop    %rbx
    cbc8:	5d                   	pop    %rbp
    cbc9:	c3                   	ret
    cbca:	e8 41 58 ff ff       	call   2410 <__stack_chk_fail@plt>
    cbcf:	90                   	nop

000000000000cbd0 <seg7_reset>:
void seg7_reset(int idx) {
    cbd0:	f3 0f 1e fa          	endbr64
    cbd4:	53                   	push   %rbx
    cbd5:	48 83 ec 10          	sub    $0x10,%rsp
    ioctl(file_d, WR_R_DISPLAY);
    cbd9:	8b 1d 25 76 00 00    	mov    0x7625(%rip),%ebx        # 14204 <file_d>
void seg7_reset(int idx) {
    cbdf:	64 48 8b 04 25 28 00 	mov    %fs:0x28,%rax
    cbe6:	00 00 
    cbe8:	48 89 44 24 08       	mov    %rax,0x8(%rsp)
    cbed:	31 c0                	xor    %eax,%eax
  int reset = 0xfffffff;
    cbef:	c7 44 24 04 ff ff ff 	movl   $0xfffffff,0x4(%rsp)
    cbf6:	0f 
  if (idx) {
    cbf7:	85 ff                	test   %edi,%edi
    cbf9:	74 35                	je     cc30 <seg7_reset+0x60>
    ioctl(file_d, WR_R_DISPLAY);
    cbfb:	be 64 61 00 00       	mov    $0x6164,%esi
    cc00:	89 df                	mov    %ebx,%edi
    cc02:	e8 99 57 ff ff       	call   23a0 <ioctl@plt>
  write(file_d, &reset, sizeof(reset));
    cc07:	48 8d 74 24 04       	lea    0x4(%rsp),%rsi
    cc0c:	ba 04 00 00 00       	mov    $0x4,%edx
    cc11:	89 df                	mov    %ebx,%edi
    cc13:	e8 d8 59 ff ff       	call   25f0 <write@plt>
}
    cc18:	48 8b 44 24 08       	mov    0x8(%rsp),%rax
    cc1d:	64 48 2b 04 25 28 00 	sub    %fs:0x28,%rax
    cc24:	00 00 
    cc26:	75 18                	jne    cc40 <seg7_reset+0x70>
    cc28:	48 83 c4 10          	add    $0x10,%rsp
    cc2c:	5b                   	pop    %rbx
    cc2d:	c3                   	ret
    cc2e:	66 90                	xchg   %ax,%ax
    ioctl(file_d, WR_L_DISPLAY);
    cc30:	be 63 61 00 00       	mov    $0x6163,%esi
    cc35:	89 df                	mov    %ebx,%edi
    cc37:	31 c0                	xor    %eax,%eax
    cc39:	e8 62 57 ff ff       	call   23a0 <ioctl@plt>
    cc3e:	eb c7                	jmp    cc07 <seg7_reset+0x37>
}
    cc40:	e8 cb 57 ff ff       	call   2410 <__stack_chk_fail@plt>
    cc45:	66 66 2e 0f 1f 84 00 	data16 cs nopw 0x0(%rax,%rax,1)
    cc4c:	00 00 00 00 

000000000000cc50 <seg7_write_single>:
void seg7_write_single(int seg, int number, int _reset) {
    cc50:	f3 0f 1e fa          	endbr64
    cc54:	41 55                	push   %r13
    cc56:	41 54                	push   %r12
    cc58:	55                   	push   %rbp
    cc59:	89 f5                	mov    %esi,%ebp
    cc5b:	53                   	push   %rbx
    cc5c:	89 fb                	mov    %edi,%ebx
    cc5e:	48 83 ec 18          	sub    $0x18,%rsp
    cc62:	64 48 8b 04 25 28 00 	mov    %fs:0x28,%rax
    cc69:	00 00 
    cc6b:	48 89 44 24 08       	mov    %rax,0x8(%rsp)
    cc70:	31 c0                	xor    %eax,%eax
  // o seg e o index do seg comecando da direita de frente para a placa
  // em 0-7, o reset ele reseta os outros ou nao
  // R e L ta ao contrario, de costas para a placa, frente para as saidas de
  // cabos se reset 1 ele limpa se nao ele mantem os outros
  if (_reset) {
    cc72:	85 d2                	test   %edx,%edx
    cc74:	0f 85 e6 00 00 00    	jne    cd60 <seg7_write_single+0x110>
    current_L = 0;
    current_R = 0;
    seg7_reset(1);
    seg7_reset(0);
  }
  if (seg > 7) {
    cc7a:	83 fb 07             	cmp    $0x7,%ebx
    cc7d:	7f 7b                	jg     ccfa <seg7_write_single+0xaa>
  write(file_d, &d, sizeof(d));
}

int seg7_convert_digit(int n) {
  int ret = 0;
  switch (n) {  // segmentos estao na ordem 0gfedcba, sendo o 0 o ponto nao mapeado
    cc7f:	8d 75 ff             	lea    -0x1(%rbp),%esi
    cc82:	bf 3f 00 00 00       	mov    $0x3f,%edi
    cc87:	83 fe 0e             	cmp    $0xe,%esi
    cc8a:	0f 86 c0 00 00 00    	jbe    cd50 <seg7_write_single+0x100>
  int d = seg7_convert_digit(number) << (7 * (seg % 4));
    cc90:	89 da                	mov    %ebx,%edx
    ioctl(file_d, WR_R_DISPLAY);
    cc92:	8b 2d 6c 75 00 00    	mov    0x756c(%rip),%ebp        # 14204 <file_d>
  int d = seg7_convert_digit(number) << (7 * (seg % 4));
    cc98:	c1 fa 1f             	sar    $0x1f,%edx
    cc9b:	c1 ea 1e             	shr    $0x1e,%edx
    cc9e:	8d 04 13             	lea    (%rbx,%rdx,1),%eax
    cca1:	83 e0 03             	and    $0x3,%eax
    cca4:	29 d0                	sub    %edx,%eax
    cca6:	8d 0c c5 00 00 00 00 	lea    0x0(,%rax,8),%ecx
    ccad:	29 c1                	sub    %eax,%ecx
      ~(0x7f << (7 * (seg % 4))); // para manter ou nao apenas o digto escolhido
    ccaf:	b8 7f 00 00 00       	mov    $0x7f,%eax
    ccb4:	d3 e0                	shl    %cl,%eax
  int d = seg7_convert_digit(number) << (7 * (seg % 4));
    ccb6:	d3 e7                	shl    %cl,%edi
  int mask =
    ccb8:	f7 d0                	not    %eax
  if (seg > 3) {
    ccba:	83 fb 03             	cmp    $0x3,%ebx
    ccbd:	7f 61                	jg     cd20 <seg7_write_single+0xd0>
    d = (current_R & mask) | d;
    ccbf:	23 05 3b 75 00 00    	and    0x753b(%rip),%eax        # 14200 <current_R>
    ioctl(file_d, WR_L_DISPLAY);
    ccc5:	be 63 61 00 00       	mov    $0x6163,%esi
    d = (current_R & mask) | d;
    ccca:	09 f8                	or     %edi,%eax
    ioctl(file_d, WR_L_DISPLAY);
    cccc:	89 ef                	mov    %ebp,%edi
    d = (current_R & mask) | d;
    ccce:	89 44 24 04          	mov    %eax,0x4(%rsp)
    ioctl(file_d, WR_L_DISPLAY);
    ccd2:	31 c0                	xor    %eax,%eax
    ccd4:	e8 c7 56 ff ff       	call   23a0 <ioctl@plt>
    current_R = d;
    ccd9:	8b 44 24 04          	mov    0x4(%rsp),%eax
    ccdd:	89 05 1d 75 00 00    	mov    %eax,0x751d(%rip)        # 14200 <current_R>
  d = ~d;
    cce3:	f7 d0                	not    %eax
  write(file_d, &d, sizeof(d));
    cce5:	48 8d 74 24 04       	lea    0x4(%rsp),%rsi
    ccea:	ba 04 00 00 00       	mov    $0x4,%edx
    ccef:	89 ef                	mov    %ebp,%edi
  d = ~d;
    ccf1:	89 44 24 04          	mov    %eax,0x4(%rsp)
  write(file_d, &d, sizeof(d));
    ccf5:	e8 f6 58 ff ff       	call   25f0 <write@plt>
}
    ccfa:	48 8b 44 24 08       	mov    0x8(%rsp),%rax
    ccff:	64 48 2b 04 25 28 00 	sub    %fs:0x28,%rax
    cd06:	00 00 
    cd08:	0f 85 ca 00 00 00    	jne    cdd8 <seg7_write_single+0x188>
    cd0e:	48 83 c4 18          	add    $0x18,%rsp
    cd12:	5b                   	pop    %rbx
    cd13:	5d                   	pop    %rbp
    cd14:	41 5c                	pop    %r12
    cd16:	41 5d                	pop    %r13
    cd18:	c3                   	ret
    cd19:	0f 1f 80 00 00 00 00 	nopl   0x0(%rax)
    d = (current_L & mask) | d;
    cd20:	23 05 d6 74 00 00    	and    0x74d6(%rip),%eax        # 141fc <current_L>
    ioctl(file_d, WR_R_DISPLAY);
    cd26:	be 64 61 00 00       	mov    $0x6164,%esi
    d = (current_L & mask) | d;
    cd2b:	09 f8                	or     %edi,%eax
    ioctl(file_d, WR_R_DISPLAY);
    cd2d:	89 ef                	mov    %ebp,%edi
    d = (current_L & mask) | d;
    cd2f:	89 44 24 04          	mov    %eax,0x4(%rsp)
    ioctl(file_d, WR_R_DISPLAY);
    cd33:	31 c0                	xor    %eax,%eax
    cd35:	e8 66 56 ff ff       	call   23a0 <ioctl@plt>
    current_L = d;
    cd3a:	8b 44 24 04          	mov    0x4(%rsp),%eax
    cd3e:	89 05 b8 74 00 00    	mov    %eax,0x74b8(%rip)        # 141fc <current_L>
    cd44:	eb 9d                	jmp    cce3 <seg7_write_single+0x93>
    cd46:	66 2e 0f 1f 84 00 00 	cs nopw 0x0(%rax,%rax,1)
    cd4d:	00 00 00 
    cd50:	48 8d 05 09 4b 00 00 	lea    0x4b09(%rip),%rax        # 11860 <CSWTCH.25>
    cd57:	8b 3c b0             	mov    (%rax,%rsi,4),%edi
    cd5a:	e9 31 ff ff ff       	jmp    cc90 <seg7_write_single+0x40>
    cd5f:	90                   	nop
    ioctl(file_d, WR_R_DISPLAY);
    cd60:	44 8b 25 9d 74 00 00 	mov    0x749d(%rip),%r12d        # 14204 <file_d>
  write(file_d, &reset, sizeof(reset));
    cd67:	4c 8d 6c 24 04       	lea    0x4(%rsp),%r13
    ioctl(file_d, WR_R_DISPLAY);
    cd6c:	be 64 61 00 00       	mov    $0x6164,%esi
  int reset = 0xfffffff;
    cd71:	c7 44 24 04 ff ff ff 	movl   $0xfffffff,0x4(%rsp)
    cd78:	0f 
    current_L = 0;
    cd79:	c7 05 79 74 00 00 00 	movl   $0x0,0x7479(%rip)        # 141fc <current_L>
    cd80:	00 00 00 
    current_R = 0;
    cd83:	c7 05 73 74 00 00 00 	movl   $0x0,0x7473(%rip)        # 14200 <current_R>
    cd8a:	00 00 00 
    ioctl(file_d, WR_R_DISPLAY);
    cd8d:	44 89 e7             	mov    %r12d,%edi
    cd90:	e8 0b 56 ff ff       	call   23a0 <ioctl@plt>
  write(file_d, &reset, sizeof(reset));
    cd95:	ba 04 00 00 00       	mov    $0x4,%edx
    cd9a:	4c 89 ee             	mov    %r13,%rsi
    cd9d:	44 89 e7             	mov    %r12d,%edi
    cda0:	e8 4b 58 ff ff       	call   25f0 <write@plt>
    ioctl(file_d, WR_L_DISPLAY);
    cda5:	44 8b 25 58 74 00 00 	mov    0x7458(%rip),%r12d        # 14204 <file_d>
    cdac:	31 c0                	xor    %eax,%eax
    cdae:	be 63 61 00 00       	mov    $0x6163,%esi
  int reset = 0xfffffff;
    cdb3:	c7 44 24 04 ff ff ff 	movl   $0xfffffff,0x4(%rsp)
    cdba:	0f 
    ioctl(file_d, WR_L_DISPLAY);
    cdbb:	44 89 e7             	mov    %r12d,%edi
    cdbe:	e8 dd 55 ff ff       	call   23a0 <ioctl@plt>
  write(file_d, &reset, sizeof(reset));
    cdc3:	ba 04 00 00 00       	mov    $0x4,%edx
    cdc8:	4c 89 ee             	mov    %r13,%rsi
    cdcb:	44 89 e7             	mov    %r12d,%edi
    cdce:	e8 1d 58 ff ff       	call   25f0 <write@plt>
}
    cdd3:	e9 a2 fe ff ff       	jmp    cc7a <seg7_write_single+0x2a>
}
    cdd8:	e8 33 56 ff ff       	call   2410 <__stack_chk_fail@plt>
    cddd:	0f 1f 00             	nopl   (%rax)

000000000000cde0 <seg7_convert_digit>:
int seg7_convert_digit(int n) {
    cde0:	f3 0f 1e fa          	endbr64
  switch (n) {  // segmentos estao na ordem 0gfedcba, sendo o 0 o ponto nao mapeado
    cde4:	83 ef 01             	sub    $0x1,%edi
    cde7:	b8 3f 00 00 00       	mov    $0x3f,%eax
    cdec:	83 ff 0e             	cmp    $0xe,%edi
    cdef:	77 0a                	ja     cdfb <seg7_convert_digit+0x1b>
    cdf1:	48 8d 05 68 4a 00 00 	lea    0x4a68(%rip),%rax        # 11860 <CSWTCH.25>
    cdf8:	8b 04 b8             	mov    (%rax,%rdi,4),%eax
  default:
    ret = 0b00111111;
    break;
  }
  return ret;
}
    cdfb:	c3                   	ret
    cdfc:	0f 1f 40 00          	nopl   0x0(%rax)

000000000000ce00 <seg7_write>:
  seg7_write(n);
}

int BASE_S = 10;

void seg7_write(int number) {
    ce00:	f3 0f 1e fa          	endbr64
    ce04:	55                   	push   %rbp
    ce05:	89 f8                	mov    %edi,%eax
    ce07:	53                   	push   %rbx
    ce08:	48 83 ec 18          	sub    $0x18,%rsp
    ce0c:	64 48 8b 14 25 28 00 	mov    %fs:0x28,%rdx
    ce13:	00 00 
    ce15:	48 89 54 24 08       	mov    %rdx,0x8(%rsp)
    ce1a:	31 d2                	xor    %edx,%edx
  int digi_qtd = 0;
  u_int64_t tmp = 0;
  while (digi_qtd <= 7 && number != 0) {
    ce1c:	85 ff                	test   %edi,%edi
    ce1e:	0f 84 2c 02 00 00    	je     d050 <seg7_write+0x250>
    tmp |= (u_int64_t)seg7_convert_digit(number % BASE_S) << (7 * (digi_qtd++));
    ce24:	8b 35 76 73 00 00    	mov    0x7376(%rip),%esi        # 141a0 <BASE_S>
    ce2a:	99                   	cltd
  switch (n) {  // segmentos estao na ordem 0gfedcba, sendo o 0 o ponto nao mapeado
    ce2b:	b9 3f 00 00 00       	mov    $0x3f,%ecx
    ce30:	f7 fe                	idiv   %esi
    ce32:	83 ea 01             	sub    $0x1,%edx
    ce35:	83 fa 0e             	cmp    $0xe,%edx
    ce38:	0f 86 92 01 00 00    	jbe    cfd0 <seg7_write+0x1d0>
  while (digi_qtd <= 7 && number != 0) {
    ce3e:	85 c0                	test   %eax,%eax
    ce40:	0f 84 ef 00 00 00    	je     cf35 <seg7_write+0x135>
    tmp |= (u_int64_t)seg7_convert_digit(number % BASE_S) << (7 * (digi_qtd++));
    ce46:	99                   	cltd
  switch (n) {  // segmentos estao na ordem 0gfedcba, sendo o 0 o ponto nao mapeado
    ce47:	bf 3f 00 00 00       	mov    $0x3f,%edi
    ce4c:	f7 fe                	idiv   %esi
    ce4e:	83 ea 01             	sub    $0x1,%edx
    ce51:	83 fa 0e             	cmp    $0xe,%edx
    ce54:	0f 86 86 01 00 00    	jbe    cfe0 <seg7_write+0x1e0>
    tmp |= (u_int64_t)seg7_convert_digit(number % BASE_S) << (7 * (digi_qtd++));
    ce5a:	48 c1 e7 07          	shl    $0x7,%rdi
    ce5e:	48 09 f9             	or     %rdi,%rcx
  while (digi_qtd <= 7 && number != 0) {
    ce61:	85 c0                	test   %eax,%eax
    ce63:	0f 84 cc 00 00 00    	je     cf35 <seg7_write+0x135>
    tmp |= (u_int64_t)seg7_convert_digit(number % BASE_S) << (7 * (digi_qtd++));
    ce69:	99                   	cltd
  switch (n) {  // segmentos estao na ordem 0gfedcba, sendo o 0 o ponto nao mapeado
    ce6a:	bf 3f 00 00 00       	mov    $0x3f,%edi
    ce6f:	f7 fe                	idiv   %esi
    ce71:	83 ea 01             	sub    $0x1,%edx
    ce74:	83 fa 0e             	cmp    $0xe,%edx
    ce77:	0f 86 73 01 00 00    	jbe    cff0 <seg7_write+0x1f0>
    tmp |= (u_int64_t)seg7_convert_digit(number % BASE_S) << (7 * (digi_qtd++));
    ce7d:	48 c1 e7 0e          	shl    $0xe,%rdi
    ce81:	48 09 f9             	or     %rdi,%rcx
  while (digi_qtd <= 7 && number != 0) {
    ce84:	85 c0                	test   %eax,%eax
    ce86:	0f 84 a9 00 00 00    	je     cf35 <seg7_write+0x135>
    tmp |= (u_int64_t)seg7_convert_digit(number % BASE_S) << (7 * (digi_qtd++));
    ce8c:	99                   	cltd
  switch (n) {  // segmentos estao na ordem 0gfedcba, sendo o 0 o ponto nao mapeado
    ce8d:	bf 3f 00 00 00       	mov    $0x3f,%edi
    ce92:	f7 fe                	idiv   %esi
    ce94:	83 ea 01             	sub    $0x1,%edx
    ce97:	83 fa 0e             	cmp    $0xe,%edx
    ce9a:	0f 86 60 01 00 00    	jbe    d000 <seg7_write+0x200>
    tmp |= (u_int64_t)seg7_convert_digit(number % BASE_S) << (7 * (digi_qtd++));
    cea0:	48 c1 e7 15          	shl    $0x15,%rdi
    cea4:	48 09 f9             	or     %rdi,%rcx
  while (digi_qtd <= 7 && number != 0) {
    cea7:	85 c0                	test   %eax,%eax
    cea9:	0f 84 86 00 00 00    	je     cf35 <seg7_write+0x135>
    tmp |= (u_int64_t)seg7_convert_digit(number % BASE_S) << (7 * (digi_qtd++));
    ceaf:	99                   	cltd
  switch (n) {  // segmentos estao na ordem 0gfedcba, sendo o 0 o ponto nao mapeado
    ceb0:	bf 3f 00 00 00       	mov    $0x3f,%edi
    ceb5:	f7 fe                	idiv   %esi
    ceb7:	83 ea 01             	sub    $0x1,%edx
    ceba:	83 fa 0e             	cmp    $0xe,%edx
    cebd:	0f 86 4d 01 00 00    	jbe    d010 <seg7_write+0x210>
    tmp |= (u_int64_t)seg7_convert_digit(number % BASE_S) << (7 * (digi_qtd++));
    cec3:	48 c1 e7 1c          	shl    $0x1c,%rdi
    cec7:	48 09 f9             	or     %rdi,%rcx
  while (digi_qtd <= 7 && number != 0) {
    ceca:	85 c0                	test   %eax,%eax
    cecc:	74 67                	je     cf35 <seg7_write+0x135>
    tmp |= (u_int64_t)seg7_convert_digit(number % BASE_S) << (7 * (digi_qtd++));
    cece:	99                   	cltd
  switch (n) {  // segmentos estao na ordem 0gfedcba, sendo o 0 o ponto nao mapeado
    cecf:	bf 3f 00 00 00       	mov    $0x3f,%edi
    ced4:	f7 fe                	idiv   %esi
    ced6:	83 ea 01             	sub    $0x1,%edx
    ced9:	83 fa 0e             	cmp    $0xe,%edx
    cedc:	77 0b                	ja     cee9 <seg7_write+0xe9>
    tmp |= (u_int64_t)seg7_convert_digit(number % BASE_S) << (7 * (digi_qtd++));
    cede:	48 8d 3d 7b 49 00 00 	lea    0x497b(%rip),%rdi        # 11860 <CSWTCH.25>
    cee5:	48 63 3c 97          	movslq (%rdi,%rdx,4),%rdi
    cee9:	48 c1 e7 23          	shl    $0x23,%rdi
    ceed:	48 09 f9             	or     %rdi,%rcx
  while (digi_qtd <= 7 && number != 0) {
    cef0:	85 c0                	test   %eax,%eax
    cef2:	74 41                	je     cf35 <seg7_write+0x135>
    tmp |= (u_int64_t)seg7_convert_digit(number % BASE_S) << (7 * (digi_qtd++));
    cef4:	99                   	cltd
  switch (n) {  // segmentos estao na ordem 0gfedcba, sendo o 0 o ponto nao mapeado
    cef5:	bf 3f 00 00 00       	mov    $0x3f,%edi
    cefa:	f7 fe                	idiv   %esi
    cefc:	83 ea 01             	sub    $0x1,%edx
    ceff:	83 fa 0e             	cmp    $0xe,%edx
    cf02:	77 0b                	ja     cf0f <seg7_write+0x10f>
    tmp |= (u_int64_t)seg7_convert_digit(number % BASE_S) << (7 * (digi_qtd++));
    cf04:	48 8d 3d 55 49 00 00 	lea    0x4955(%rip),%rdi        # 11860 <CSWTCH.25>
    cf0b:	48 63 3c 97          	movslq (%rdi,%rdx,4),%rdi
    cf0f:	48 c1 e7 2a          	shl    $0x2a,%rdi
    cf13:	48 09 f9             	or     %rdi,%rcx
  while (digi_qtd <= 7 && number != 0) {
    cf16:	85 c0                	test   %eax,%eax
    cf18:	74 1b                	je     cf35 <seg7_write+0x135>
    tmp |= (u_int64_t)seg7_convert_digit(number % BASE_S) << (7 * (digi_qtd++));
    cf1a:	99                   	cltd
    cf1b:	f7 fe                	idiv   %esi
  switch (n) {  // segmentos estao na ordem 0gfedcba, sendo o 0 o ponto nao mapeado
    cf1d:	b8 3f 00 00 00       	mov    $0x3f,%eax
    cf22:	83 ea 01             	sub    $0x1,%edx
    cf25:	83 fa 0e             	cmp    $0xe,%edx
    cf28:	0f 86 02 01 00 00    	jbe    d030 <seg7_write+0x230>
    tmp |= (u_int64_t)seg7_convert_digit(number % BASE_S) << (7 * (digi_qtd++));
    cf2e:	48 c1 e0 31          	shl    $0x31,%rax
    cf32:	48 09 c1             	or     %rax,%rcx
    number = number / BASE_S;
  }
  // usar mascara para pegar os 28 a direita e 28 a esquerda
  current_R = (int32_t)(tmp & 0xFFFFFFF);
    cf35:	89 c8                	mov    %ecx,%eax
  current_L = (int32_t)((tmp >> 28) & 0xFFFFFFF);
    cf37:	48 c1 e9 1c          	shr    $0x1c,%rcx
  current_R = (int32_t)(tmp & 0xFFFFFFF);
    cf3b:	25 ff ff ff 0f       	and    $0xfffffff,%eax
  
  int32_t b = ~current_R;
    cf40:	89 c2                	mov    %eax,%edx
    cf42:	f7 d2                	not    %edx
  ioctl(file_d, WR_L_DISPLAY);
    cf44:	8b 1d ba 72 00 00    	mov    0x72ba(%rip),%ebx        # 14204 <file_d>
  current_R = (int32_t)(tmp & 0xFFFFFFF);
    cf4a:	89 05 b0 72 00 00    	mov    %eax,0x72b0(%rip)        # 14200 <current_R>
  ioctl(file_d, WR_L_DISPLAY);
    cf50:	be 63 61 00 00       	mov    $0x6163,%esi
    cf55:	31 c0                	xor    %eax,%eax
  write(file_d, &b, sizeof(b));
    cf57:	48 8d 6c 24 04       	lea    0x4(%rsp),%rbp
  current_L = (int32_t)((tmp >> 28) & 0xFFFFFFF);
    cf5c:	89 0d 9a 72 00 00    	mov    %ecx,0x729a(%rip)        # 141fc <current_L>
  ioctl(file_d, WR_L_DISPLAY);
    cf62:	89 df                	mov    %ebx,%edi
  int32_t b = ~current_R;
    cf64:	89 54 24 04          	mov    %edx,0x4(%rsp)
  ioctl(file_d, WR_L_DISPLAY);
    cf68:	e8 33 54 ff ff       	call   23a0 <ioctl@plt>
  write(file_d, &b, sizeof(b));
    cf6d:	ba 04 00 00 00       	mov    $0x4,%edx
    cf72:	89 df                	mov    %ebx,%edi
    cf74:	48 89 ee             	mov    %rbp,%rsi
    cf77:	e8 74 56 ff ff       	call   25f0 <write@plt>
  b = ~current_L;
    cf7c:	8b 05 7a 72 00 00    	mov    0x727a(%rip),%eax        # 141fc <current_L>
  ioctl(file_d, WR_R_DISPLAY);
    cf82:	8b 1d 7c 72 00 00    	mov    0x727c(%rip),%ebx        # 14204 <file_d>
    cf88:	be 64 61 00 00       	mov    $0x6164,%esi
  b = ~current_L;
    cf8d:	f7 d0                	not    %eax
  ioctl(file_d, WR_R_DISPLAY);
    cf8f:	89 df                	mov    %ebx,%edi
  b = ~current_L;
    cf91:	89 44 24 04          	mov    %eax,0x4(%rsp)
  ioctl(file_d, WR_R_DISPLAY);
    cf95:	31 c0                	xor    %eax,%eax
    cf97:	e8 04 54 ff ff       	call   23a0 <ioctl@plt>
  write(file_d, &b, sizeof(b));
    cf9c:	ba 04 00 00 00       	mov    $0x4,%edx
    cfa1:	48 89 ee             	mov    %rbp,%rsi
    cfa4:	89 df                	mov    %ebx,%edi
    cfa6:	e8 45 56 ff ff       	call   25f0 <write@plt>
}
    cfab:	48 8b 44 24 08       	mov    0x8(%rsp),%rax
    cfb0:	64 48 2b 04 25 28 00 	sub    %fs:0x28,%rax
    cfb7:	00 00 
    cfb9:	0f 85 9d 00 00 00    	jne    d05c <seg7_write+0x25c>
    cfbf:	48 83 c4 18          	add    $0x18,%rsp
    cfc3:	5b                   	pop    %rbx
    cfc4:	5d                   	pop    %rbp
    cfc5:	c3                   	ret
    cfc6:	66 2e 0f 1f 84 00 00 	cs nopw 0x0(%rax,%rax,1)
    cfcd:	00 00 00 
    tmp |= (u_int64_t)seg7_convert_digit(number % BASE_S) << (7 * (digi_qtd++));
    cfd0:	48 8d 0d 89 48 00 00 	lea    0x4889(%rip),%rcx        # 11860 <CSWTCH.25>
    cfd7:	48 63 0c 91          	movslq (%rcx,%rdx,4),%rcx
    cfdb:	e9 5e fe ff ff       	jmp    ce3e <seg7_write+0x3e>
    cfe0:	48 8d 3d 79 48 00 00 	lea    0x4879(%rip),%rdi        # 11860 <CSWTCH.25>
    cfe7:	48 63 3c 97          	movslq (%rdi,%rdx,4),%rdi
    cfeb:	e9 6a fe ff ff       	jmp    ce5a <seg7_write+0x5a>
    cff0:	48 8d 3d 69 48 00 00 	lea    0x4869(%rip),%rdi        # 11860 <CSWTCH.25>
    cff7:	48 63 3c 97          	movslq (%rdi,%rdx,4),%rdi
    cffb:	e9 7d fe ff ff       	jmp    ce7d <seg7_write+0x7d>
    d000:	48 8d 3d 59 48 00 00 	lea    0x4859(%rip),%rdi        # 11860 <CSWTCH.25>
    d007:	48 63 3c 97          	movslq (%rdi,%rdx,4),%rdi
    d00b:	e9 90 fe ff ff       	jmp    cea0 <seg7_write+0xa0>
    d010:	48 8d 3d 49 48 00 00 	lea    0x4849(%rip),%rdi        # 11860 <CSWTCH.25>
    d017:	48 63 3c 97          	movslq (%rdi,%rdx,4),%rdi
    d01b:	48 c1 e7 1c          	shl    $0x1c,%rdi
    d01f:	48 09 f9             	or     %rdi,%rcx
  while (digi_qtd <= 7 && number != 0) {
    d022:	85 c0                	test   %eax,%eax
    d024:	0f 85 a4 fe ff ff    	jne    cece <seg7_write+0xce>
    d02a:	e9 06 ff ff ff       	jmp    cf35 <seg7_write+0x135>
    d02f:	90                   	nop
    tmp |= (u_int64_t)seg7_convert_digit(number % BASE_S) << (7 * (digi_qtd++));
    d030:	48 8d 05 29 48 00 00 	lea    0x4829(%rip),%rax        # 11860 <CSWTCH.25>
    d037:	48 63 04 90          	movslq (%rax,%rdx,4),%rax
    d03b:	48 c1 e0 31          	shl    $0x31,%rax
    d03f:	48 09 c1             	or     %rax,%rcx
  while (digi_qtd <= 7 && number != 0) {
    d042:	e9 ee fe ff ff       	jmp    cf35 <seg7_write+0x135>
    d047:	66 0f 1f 84 00 00 00 	nopw   0x0(%rax,%rax,1)
    d04e:	00 00 
    d050:	31 c9                	xor    %ecx,%ecx
    d052:	ba ff ff ff ff       	mov    $0xffffffff,%edx
    d057:	e9 e8 fe ff ff       	jmp    cf44 <seg7_write+0x144>
}
    d05c:	e8 af 53 ff ff       	call   2410 <__stack_chk_fail@plt>
    d061:	66 66 2e 0f 1f 84 00 	data16 cs nopw 0x0(%rax,%rax,1)
    d068:	00 00 00 00 
    d06c:	0f 1f 40 00          	nopl   0x0(%rax)

000000000000d070 <seg7_write_str>:
void seg7_write_str(char *number) {
    d070:	f3 0f 1e fa          	endbr64
    d074:	48 83 ec 08          	sub    $0x8,%rsp
  int n = strtol(number, NULL, 0);
    d078:	31 d2                	xor    %edx,%edx
    d07a:	31 f6                	xor    %esi,%esi
    d07c:	e8 1f 55 ff ff       	call   25a0 <strtol@plt>
}
    d081:	48 83 c4 08          	add    $0x8,%rsp
  seg7_write(n);
    d085:	89 c7                	mov    %eax,%edi
    d087:	e9 74 fd ff ff       	jmp    ce00 <seg7_write>
    d08c:	0f 1f 40 00          	nopl   0x0(%rax)

000000000000d090 <seg7_switch_base>:

void seg7_switch_base(int b) {
    d090:	f3 0f 1e fa          	endbr64
  if (b != 0) {
    d094:	85 ff                	test   %edi,%edi
    d096:	74 06                	je     d09e <seg7_switch_base+0xe>
    BASE_S = b;
    d098:	89 3d 02 71 00 00    	mov    %edi,0x7102(%rip)        # 141a0 <BASE_S>
  }
    d09e:	c3                   	ret
    d09f:	90                   	nop

000000000000d0a0 <d_init>:
#include <unistd.h>
#include <sys/ioctl.h>	/* ioctl() */
static int32_t file_id = 0;

void d_init()
{
    d0a0:	f3 0f 1e fa          	endbr64
    d0a4:	55                   	push   %rbp
    d0a5:	be 02 00 00 00       	mov    $0x2,%esi
    d0aa:	48 8d 3d 5e 21 00 00 	lea    0x215e(%rip),%rdi        # f20f <_IO_stdin_used+0x20f>
    d0b1:	53                   	push   %rbx
    d0b2:	48 83 ec 18          	sub    $0x18,%rsp
    d0b6:	64 48 8b 04 25 28 00 	mov    %fs:0x28,%rax
    d0bd:	00 00 
    d0bf:	48 89 44 24 08       	mov    %rax,0x8(%rsp)
    d0c4:	31 c0                	xor    %eax,%eax
	seg7_init(file_id);
	lcd_init (file_id);
	
	int i = 0;
	ioctl(file_id, WR_GREEN_LEDS);
	write(file_id, &i, sizeof(i));
    d0c6:	48 8d 6c 24 04       	lea    0x4(%rsp),%rbp
    d0cb:	e8 b0 53 ff ff       	call   2480 <open@plt>
    d0d0:	89 c7                	mov    %eax,%edi
	file_id = open("/dev/mydev", O_RDWR);
    d0d2:	89 05 30 71 00 00    	mov    %eax,0x7130(%rip)        # 14208 <file_id>
	seg7_init(file_id);
    d0d8:	e8 63 fa ff ff       	call   cb40 <seg7_init>
	lcd_init (file_id);
    d0dd:	8b 3d 25 71 00 00    	mov    0x7125(%rip),%edi        # 14208 <file_id>
    d0e3:	e8 e8 01 00 00       	call   d2d0 <lcd_init>
	ioctl(file_id, WR_GREEN_LEDS);
    d0e8:	8b 1d 1a 71 00 00    	mov    0x711a(%rip),%ebx        # 14208 <file_id>
    d0ee:	31 c0                	xor    %eax,%eax
    d0f0:	be 66 61 00 00       	mov    $0x6166,%esi
	int i = 0;
    d0f5:	c7 44 24 04 00 00 00 	movl   $0x0,0x4(%rsp)
    d0fc:	00 
	ioctl(file_id, WR_GREEN_LEDS);
    d0fd:	89 df                	mov    %ebx,%edi
    d0ff:	e8 9c 52 ff ff       	call   23a0 <ioctl@plt>
	write(file_id, &i, sizeof(i));
    d104:	ba 04 00 00 00       	mov    $0x4,%edx
    d109:	89 df                	mov    %ebx,%edi
    d10b:	48 89 ee             	mov    %rbp,%rsi
    d10e:	e8 dd 54 ff ff       	call   25f0 <write@plt>
	
	ioctl(file_id, WR_RED_LEDS);
    d113:	8b 1d ef 70 00 00    	mov    0x70ef(%rip),%ebx        # 14208 <file_id>
    d119:	be 65 61 00 00       	mov    $0x6165,%esi
    d11e:	31 c0                	xor    %eax,%eax
    d120:	89 df                	mov    %ebx,%edi
    d122:	e8 79 52 ff ff       	call   23a0 <ioctl@plt>
	write(file_id, &i, sizeof(i));
    d127:	ba 04 00 00 00       	mov    $0x4,%edx
    d12c:	48 89 ee             	mov    %rbp,%rsi
    d12f:	89 df                	mov    %ebx,%edi
    d131:	e8 ba 54 ff ff       	call   25f0 <write@plt>
}
    d136:	48 8b 44 24 08       	mov    0x8(%rsp),%rax
    d13b:	64 48 2b 04 25 28 00 	sub    %fs:0x28,%rax
    d142:	00 00 
    d144:	75 07                	jne    d14d <d_init+0xad>
    d146:	48 83 c4 18          	add    $0x18,%rsp
    d14a:	5b                   	pop    %rbx
    d14b:	5d                   	pop    %rbp
    d14c:	c3                   	ret
    d14d:	e8 be 52 ff ff       	call   2410 <__stack_chk_fail@plt>
    d152:	66 66 2e 0f 1f 84 00 	data16 cs nopw 0x0(%rax,%rax,1)
    d159:	00 00 00 00 
    d15d:	0f 1f 00             	nopl   (%rax)

000000000000d160 <d_button_read>:

uint8_t d_button_read()
{
    d160:	f3 0f 1e fa          	endbr64
    d164:	53                   	push   %rbx
	uint8_t r = 0, e = 0;
	ioctl(file_id, RD_PBUTTONS);
    d165:	be 62 61 00 00       	mov    $0x6162,%esi
{
    d16a:	48 83 ec 10          	sub    $0x10,%rsp
	ioctl(file_id, RD_PBUTTONS);
    d16e:	8b 1d 94 70 00 00    	mov    0x7094(%rip),%ebx        # 14208 <file_id>
{
    d174:	64 48 8b 04 25 28 00 	mov    %fs:0x28,%rax
    d17b:	00 00 
    d17d:	48 89 44 24 08       	mov    %rax,0x8(%rsp)
    d182:	31 c0                	xor    %eax,%eax
	uint8_t r = 0, e = 0;
    d184:	c6 44 24 07 00       	movb   $0x0,0x7(%rsp)
	ioctl(file_id, RD_PBUTTONS);
    d189:	89 df                	mov    %ebx,%edi
    d18b:	e8 10 52 ff ff       	call   23a0 <ioctl@plt>
# include <bits/unistd-decl.h>

__fortify_function __wur ssize_t
read (int __fd, void *__buf, size_t __nbytes)
{
  return __glibc_fortify (read, __nbytes, sizeof (char),
    d190:	48 8d 74 24 07       	lea    0x7(%rsp),%rsi
    d195:	ba 01 00 00 00       	mov    $0x1,%edx
    d19a:	89 df                	mov    %ebx,%edi
    d19c:	e8 9f 53 ff ff       	call   2540 <read@plt>
	e = read(file_id, &r, sizeof(r));
	return r;
    d1a1:	0f b6 44 24 07       	movzbl 0x7(%rsp),%eax
}
    d1a6:	48 8b 54 24 08       	mov    0x8(%rsp),%rdx
    d1ab:	64 48 2b 14 25 28 00 	sub    %fs:0x28,%rdx
    d1b2:	00 00 
    d1b4:	75 06                	jne    d1bc <d_button_read+0x5c>
    d1b6:	48 83 c4 10          	add    $0x10,%rsp
    d1ba:	5b                   	pop    %rbx
    d1bb:	c3                   	ret
    d1bc:	e8 4f 52 ff ff       	call   2410 <__stack_chk_fail@plt>
    d1c1:	66 66 2e 0f 1f 84 00 	data16 cs nopw 0x0(%rax,%rax,1)
    d1c8:	00 00 00 00 
    d1cc:	0f 1f 40 00          	nopl   0x0(%rax)

000000000000d1d0 <d_switch_read>:

uint32_t d_switch_read()
{
    d1d0:	f3 0f 1e fa          	endbr64
    d1d4:	53                   	push   %rbx
	uint32_t r = 0, e = 0;
	ioctl(file_id, RD_SWITCHES);
    d1d5:	be 61 61 00 00       	mov    $0x6161,%esi
{
    d1da:	48 83 ec 10          	sub    $0x10,%rsp
	ioctl(file_id, RD_SWITCHES);
    d1de:	8b 1d 24 70 00 00    	mov    0x7024(%rip),%ebx        # 14208 <file_id>
{
    d1e4:	64 48 8b 04 25 28 00 	mov    %fs:0x28,%rax
    d1eb:	00 00 
    d1ed:	48 89 44 24 08       	mov    %rax,0x8(%rsp)
    d1f2:	31 c0                	xor    %eax,%eax
	uint32_t r = 0, e = 0;
    d1f4:	c7 44 24 04 00 00 00 	movl   $0x0,0x4(%rsp)
    d1fb:	00 
	ioctl(file_id, RD_SWITCHES);
    d1fc:	89 df                	mov    %ebx,%edi
    d1fe:	e8 9d 51 ff ff       	call   23a0 <ioctl@plt>
    d203:	48 8d 74 24 04       	lea    0x4(%rsp),%rsi
    d208:	ba 04 00 00 00       	mov    $0x4,%edx
    d20d:	89 df                	mov    %ebx,%edi
    d20f:	e8 2c 53 ff ff       	call   2540 <read@plt>
	e = read(file_id, &r, sizeof(r));
	return r;
    d214:	8b 44 24 04          	mov    0x4(%rsp),%eax
}
    d218:	48 8b 54 24 08       	mov    0x8(%rsp),%rdx
    d21d:	64 48 2b 14 25 28 00 	sub    %fs:0x28,%rdx
    d224:	00 00 
    d226:	75 06                	jne    d22e <d_switch_read+0x5e>
    d228:	48 83 c4 10          	add    $0x10,%rsp
    d22c:	5b                   	pop    %rbx
    d22d:	c3                   	ret
    d22e:	e8 dd 51 ff ff       	call   2410 <__stack_chk_fail@plt>
    d233:	66 66 2e 0f 1f 84 00 	data16 cs nopw 0x0(%rax,%rax,1)
    d23a:	00 00 00 00 
    d23e:	66 90                	xchg   %ax,%ax

000000000000d240 <d_write_green_leds>:

void d_write_green_leds(int32_t i)
{
    d240:	f3 0f 1e fa          	endbr64
    d244:	53                   	push   %rbx
	int retval;
	ioctl(file_id, WR_GREEN_LEDS);
    d245:	be 66 61 00 00       	mov    $0x6166,%esi
    d24a:	31 c0                	xor    %eax,%eax
{
    d24c:	48 83 ec 10          	sub    $0x10,%rsp
	ioctl(file_id, WR_GREEN_LEDS);
    d250:	8b 1d b2 6f 00 00    	mov    0x6fb2(%rip),%ebx        # 14208 <file_id>
{
    d256:	89 7c 24 0c          	mov    %edi,0xc(%rsp)
	ioctl(file_id, WR_GREEN_LEDS);
    d25a:	89 df                	mov    %ebx,%edi
    d25c:	e8 3f 51 ff ff       	call   23a0 <ioctl@plt>
	retval = write(file_id, &i, sizeof(i));
    d261:	48 8d 74 24 0c       	lea    0xc(%rsp),%rsi
    d266:	89 df                	mov    %ebx,%edi
    d268:	ba 04 00 00 00       	mov    $0x4,%edx
    d26d:	e8 7e 53 ff ff       	call   25f0 <write@plt>
}
    d272:	48 83 c4 10          	add    $0x10,%rsp
    d276:	5b                   	pop    %rbx
    d277:	c3                   	ret
    d278:	0f 1f 84 00 00 00 00 	nopl   0x0(%rax,%rax,1)
    d27f:	00 

000000000000d280 <d_write_red_leds>:

void d_write_red_leds(int32_t i)
{
    d280:	f3 0f 1e fa          	endbr64
    d284:	53                   	push   %rbx
	int retval;
	ioctl(file_id, WR_RED_LEDS);
    d285:	be 65 61 00 00       	mov    $0x6165,%esi
    d28a:	31 c0                	xor    %eax,%eax
{
    d28c:	48 83 ec 10          	sub    $0x10,%rsp
	ioctl(file_id, WR_RED_LEDS);
    d290:	8b 1d 72 6f 00 00    	mov    0x6f72(%rip),%ebx        # 14208 <file_id>
{
    d296:	89 7c 24 0c          	mov    %edi,0xc(%rsp)
	ioctl(file_id, WR_RED_LEDS);
    d29a:	89 df                	mov    %ebx,%edi
    d29c:	e8 ff 50 ff ff       	call   23a0 <ioctl@plt>
	retval = write(file_id, &i, sizeof(i));
    d2a1:	48 8d 74 24 0c       	lea    0xc(%rsp),%rsi
    d2a6:	89 df                	mov    %ebx,%edi
    d2a8:	ba 04 00 00 00       	mov    $0x4,%edx
    d2ad:	e8 3e 53 ff ff       	call   25f0 <write@plt>
}
    d2b2:	48 83 c4 10          	add    $0x10,%rsp
    d2b6:	5b                   	pop    %rbx
    d2b7:	c3                   	ret
    d2b8:	0f 1f 84 00 00 00 00 	nopl   0x0(%rax,%rax,1)
    d2bf:	00 

000000000000d2c0 <d_shutdown>:

void d_shutdown()
{
    d2c0:	f3 0f 1e fa          	endbr64
	close(file_id);
    d2c4:	8b 3d 3e 6f 00 00    	mov    0x6f3e(%rip),%edi        # 14208 <file_id>
    d2ca:	e9 11 51 ff ff       	jmp    23e0 <close@plt>
    d2cf:	90                   	nop

000000000000d2d0 <lcd_init>:
    usleep(LCD_DELAY_US);
}


void lcd_init(int fd) 
{
    d2d0:	f3 0f 1e fa          	endbr64
    d2d4:	55                   	push   %rbp
    val = val | 0x800;
    d2d5:	ba 08 09 00 00       	mov    $0x908,%edx
{
    d2da:	89 fd                	mov    %edi,%ebp
    ioctl(file_id, WR_LCD_DISPLAY);
    d2dc:	be 67 61 00 00       	mov    $0x6167,%esi
{
    d2e1:	53                   	push   %rbx
    d2e2:	48 83 ec 18          	sub    $0x18,%rsp
    d2e6:	64 48 8b 04 25 28 00 	mov    %fs:0x28,%rax
    d2ed:	00 00 
    d2ef:	48 89 44 24 08       	mov    %rax,0x8(%rsp)
    d2f4:	31 c0                	xor    %eax,%eax
    write(file_id, &val, sizeof(val));
    d2f6:	48 8d 5c 24 06       	lea    0x6(%rsp),%rbx
	file_id = fd;
    d2fb:	89 3d 0b 6f 00 00    	mov    %edi,0x6f0b(%rip)        # 1420c <file_id>
    val = val | 0x800;
    d301:	66 89 54 24 06       	mov    %dx,0x6(%rsp)
    ioctl(file_id, WR_LCD_DISPLAY);
    d306:	e8 95 50 ff ff       	call   23a0 <ioctl@plt>
    write(file_id, &val, sizeof(val));
    d30b:	ba 02 00 00 00       	mov    $0x2,%edx
    d310:	48 89 de             	mov    %rbx,%rsi
    d313:	89 ef                	mov    %ebp,%edi
    d315:	e8 d6 52 ff ff       	call   25f0 <write@plt>
    usleep(LCD_DELAY_US);
    d31a:	bf 58 02 00 00       	mov    $0x258,%edi
    d31f:	e8 0c 53 ff ff       	call   2630 <usleep@plt>
    ioctl(file_id, WR_LCD_DISPLAY);
    d324:	8b 2d e2 6e 00 00    	mov    0x6ee2(%rip),%ebp        # 1420c <file_id>
    val = val | 0x800;
    d32a:	b9 08 08 00 00       	mov    $0x808,%ecx
    ioctl(file_id, WR_LCD_DISPLAY);
    d32f:	31 c0                	xor    %eax,%eax
    d331:	be 67 61 00 00       	mov    $0x6167,%esi
    val = val | 0x800;
    d336:	66 89 4c 24 06       	mov    %cx,0x6(%rsp)
    ioctl(file_id, WR_LCD_DISPLAY);
    d33b:	89 ef                	mov    %ebp,%edi
    d33d:	e8 5e 50 ff ff       	call   23a0 <ioctl@plt>
    write(file_id, &val, sizeof(val));
    d342:	ba 02 00 00 00       	mov    $0x2,%edx
    d347:	48 89 de             	mov    %rbx,%rsi
    d34a:	89 ef                	mov    %ebp,%edi
    d34c:	e8 9f 52 ff ff       	call   25f0 <write@plt>
    usleep(LCD_DELAY_US);
    d351:	bf 58 02 00 00       	mov    $0x258,%edi
    d356:	e8 d5 52 ff ff       	call   2630 <usleep@plt>
    ioctl(file_id, WR_LCD_DISPLAY);
    d35b:	8b 2d ab 6e 00 00    	mov    0x6eab(%rip),%ebp        # 1420c <file_id>
    val = val | 0x800;
    d361:	be 0f 09 00 00       	mov    $0x90f,%esi
    ioctl(file_id, WR_LCD_DISPLAY);
    d366:	31 c0                	xor    %eax,%eax
    val = val | 0x800;
    d368:	66 89 74 24 06       	mov    %si,0x6(%rsp)
    ioctl(file_id, WR_LCD_DISPLAY);
    d36d:	be 67 61 00 00       	mov    $0x6167,%esi
    d372:	89 ef                	mov    %ebp,%edi
    d374:	e8 27 50 ff ff       	call   23a0 <ioctl@plt>
    write(file_id, &val, sizeof(val));
    d379:	ba 02 00 00 00       	mov    $0x2,%edx
    d37e:	48 89 de             	mov    %rbx,%rsi
    d381:	89 ef                	mov    %ebp,%edi
    d383:	e8 68 52 ff ff       	call   25f0 <write@plt>
    usleep(LCD_DELAY_US);
    d388:	bf 58 02 00 00       	mov    $0x258,%edi
    d38d:	e8 9e 52 ff ff       	call   2630 <usleep@plt>
    ioctl(file_id, WR_LCD_DISPLAY);
    d392:	8b 2d 74 6e 00 00    	mov    0x6e74(%rip),%ebp        # 1420c <file_id>
    val = val | 0x800;
    d398:	bf 0f 08 00 00       	mov    $0x80f,%edi
    ioctl(file_id, WR_LCD_DISPLAY);
    d39d:	31 c0                	xor    %eax,%eax
    val = val | 0x800;
    d39f:	66 89 7c 24 06       	mov    %di,0x6(%rsp)
    ioctl(file_id, WR_LCD_DISPLAY);
    d3a4:	be 67 61 00 00       	mov    $0x6167,%esi
    d3a9:	89 ef                	mov    %ebp,%edi
    d3ab:	e8 f0 4f ff ff       	call   23a0 <ioctl@plt>
    write(file_id, &val, sizeof(val));
    d3b0:	ba 02 00 00 00       	mov    $0x2,%edx
    d3b5:	48 89 de             	mov    %rbx,%rsi
    d3b8:	89 ef                	mov    %ebp,%edi
    d3ba:	e8 31 52 ff ff       	call   25f0 <write@plt>
    usleep(LCD_DELAY_US);
    d3bf:	bf 58 02 00 00       	mov    $0x258,%edi
    d3c4:	e8 67 52 ff ff       	call   2630 <usleep@plt>
    ioctl(file_id, WR_LCD_DISPLAY);
    d3c9:	8b 2d 3d 6e 00 00    	mov    0x6e3d(%rip),%ebp        # 1420c <file_id>
    val = val | 0x800;
    d3cf:	41 b8 06 09 00 00    	mov    $0x906,%r8d
    ioctl(file_id, WR_LCD_DISPLAY);
    d3d5:	31 c0                	xor    %eax,%eax
    d3d7:	be 67 61 00 00       	mov    $0x6167,%esi
    val = val | 0x800;
    d3dc:	66 44 89 44 24 06    	mov    %r8w,0x6(%rsp)
    ioctl(file_id, WR_LCD_DISPLAY);
    d3e2:	89 ef                	mov    %ebp,%edi
    d3e4:	e8 b7 4f ff ff       	call   23a0 <ioctl@plt>
    write(file_id, &val, sizeof(val));
    d3e9:	ba 02 00 00 00       	mov    $0x2,%edx
    d3ee:	48 89 de             	mov    %rbx,%rsi
    d3f1:	89 ef                	mov    %ebp,%edi
    d3f3:	e8 f8 51 ff ff       	call   25f0 <write@plt>
    usleep(LCD_DELAY_US);
    d3f8:	bf 58 02 00 00       	mov    $0x258,%edi
    d3fd:	e8 2e 52 ff ff       	call   2630 <usleep@plt>
    ioctl(file_id, WR_LCD_DISPLAY);
    d402:	8b 2d 04 6e 00 00    	mov    0x6e04(%rip),%ebp        # 1420c <file_id>
    val = val | 0x800;
    d408:	41 b9 06 08 00 00    	mov    $0x806,%r9d
    ioctl(file_id, WR_LCD_DISPLAY);
    d40e:	31 c0                	xor    %eax,%eax
    d410:	be 67 61 00 00       	mov    $0x6167,%esi
    val = val | 0x800;
    d415:	66 44 89 4c 24 06    	mov    %r9w,0x6(%rsp)
    ioctl(file_id, WR_LCD_DISPLAY);
    d41b:	89 ef                	mov    %ebp,%edi
    d41d:	e8 7e 4f ff ff       	call   23a0 <ioctl@plt>
    write(file_id, &val, sizeof(val));
    d422:	ba 02 00 00 00       	mov    $0x2,%edx
    d427:	48 89 de             	mov    %rbx,%rsi
    d42a:	89 ef                	mov    %ebp,%edi
    d42c:	e8 bf 51 ff ff       	call   25f0 <write@plt>
    usleep(LCD_DELAY_US);
    d431:	bf 58 02 00 00       	mov    $0x258,%edi
    d436:	e8 f5 51 ff ff       	call   2630 <usleep@plt>
    ioctl(file_id, WR_LCD_DISPLAY);
    d43b:	8b 2d cb 6d 00 00    	mov    0x6dcb(%rip),%ebp        # 1420c <file_id>
    val = val | 0x800;
    d441:	41 ba 38 09 00 00    	mov    $0x938,%r10d
    ioctl(file_id, WR_LCD_DISPLAY);
    d447:	31 c0                	xor    %eax,%eax
    d449:	be 67 61 00 00       	mov    $0x6167,%esi
    val = val | 0x800;
    d44e:	66 44 89 54 24 06    	mov    %r10w,0x6(%rsp)
    ioctl(file_id, WR_LCD_DISPLAY);
    d454:	89 ef                	mov    %ebp,%edi
    d456:	e8 45 4f ff ff       	call   23a0 <ioctl@plt>
    write(file_id, &val, sizeof(val));
    d45b:	ba 02 00 00 00       	mov    $0x2,%edx
    d460:	48 89 de             	mov    %rbx,%rsi
    d463:	89 ef                	mov    %ebp,%edi
    d465:	e8 86 51 ff ff       	call   25f0 <write@plt>
    usleep(LCD_DELAY_US);
    d46a:	bf 58 02 00 00       	mov    $0x258,%edi
    d46f:	e8 bc 51 ff ff       	call   2630 <usleep@plt>
    ioctl(file_id, WR_LCD_DISPLAY);
    d474:	8b 2d 92 6d 00 00    	mov    0x6d92(%rip),%ebp        # 1420c <file_id>
    val = val | 0x800;
    d47a:	41 bb 38 08 00 00    	mov    $0x838,%r11d
    ioctl(file_id, WR_LCD_DISPLAY);
    d480:	31 c0                	xor    %eax,%eax
    d482:	be 67 61 00 00       	mov    $0x6167,%esi
    val = val | 0x800;
    d487:	66 44 89 5c 24 06    	mov    %r11w,0x6(%rsp)
    ioctl(file_id, WR_LCD_DISPLAY);
    d48d:	89 ef                	mov    %ebp,%edi
    d48f:	e8 0c 4f ff ff       	call   23a0 <ioctl@plt>
    write(file_id, &val, sizeof(val));
    d494:	ba 02 00 00 00       	mov    $0x2,%edx
    d499:	48 89 de             	mov    %rbx,%rsi
    d49c:	89 ef                	mov    %ebp,%edi
    d49e:	e8 4d 51 ff ff       	call   25f0 <write@plt>
    val = val | 0x800;
    d4a3:	bd 01 09 00 00       	mov    $0x901,%ebp
    usleep(LCD_DELAY_US);
    d4a8:	bf 58 02 00 00       	mov    $0x258,%edi
    d4ad:	e8 7e 51 ff ff       	call   2630 <usleep@plt>
    val = val | 0x800;
    d4b2:	66 89 6c 24 06       	mov    %bp,0x6(%rsp)
    ioctl(file_id, WR_LCD_DISPLAY);
    d4b7:	8b 2d 4f 6d 00 00    	mov    0x6d4f(%rip),%ebp        # 1420c <file_id>
    d4bd:	31 c0                	xor    %eax,%eax
    d4bf:	be 67 61 00 00       	mov    $0x6167,%esi
    d4c4:	89 ef                	mov    %ebp,%edi
    d4c6:	e8 d5 4e ff ff       	call   23a0 <ioctl@plt>
    write(file_id, &val, sizeof(val));
    d4cb:	ba 02 00 00 00       	mov    $0x2,%edx
    d4d0:	48 89 de             	mov    %rbx,%rsi
    d4d3:	89 ef                	mov    %ebp,%edi
    d4d5:	e8 16 51 ff ff       	call   25f0 <write@plt>
    usleep(LCD_DELAY_US);
    d4da:	bf 58 02 00 00       	mov    $0x258,%edi
    d4df:	e8 4c 51 ff ff       	call   2630 <usleep@plt>
    ioctl(file_id, WR_LCD_DISPLAY);
    d4e4:	8b 2d 22 6d 00 00    	mov    0x6d22(%rip),%ebp        # 1420c <file_id>
    val = val | 0x800;
    d4ea:	b8 01 08 00 00       	mov    $0x801,%eax
    ioctl(file_id, WR_LCD_DISPLAY);
    d4ef:	be 67 61 00 00       	mov    $0x6167,%esi
    val = val | 0x800;
    d4f4:	66 89 44 24 06       	mov    %ax,0x6(%rsp)
    ioctl(file_id, WR_LCD_DISPLAY);
    d4f9:	31 c0                	xor    %eax,%eax
    d4fb:	89 ef                	mov    %ebp,%edi
    d4fd:	e8 9e 4e ff ff       	call   23a0 <ioctl@plt>
    write(file_id, &val, sizeof(val));
    d502:	ba 02 00 00 00       	mov    $0x2,%edx
    d507:	48 89 de             	mov    %rbx,%rsi
    d50a:	89 ef                	mov    %ebp,%edi
    d50c:	e8 df 50 ff ff       	call   25f0 <write@plt>
    usleep(LCD_DELAY_US);
    d511:	bf 58 02 00 00       	mov    $0x258,%edi
    d516:	e8 15 51 ff ff       	call   2630 <usleep@plt>
    ioctl(file_id, WR_LCD_DISPLAY);
    d51b:	8b 2d eb 6c 00 00    	mov    0x6ceb(%rip),%ebp        # 1420c <file_id>
    val = val | 0x800;
    d521:	b8 80 09 00 00       	mov    $0x980,%eax
    ioctl(file_id, WR_LCD_DISPLAY);
    d526:	be 67 61 00 00       	mov    $0x6167,%esi
    val = val | 0x800;
    d52b:	66 89 44 24 06       	mov    %ax,0x6(%rsp)
    ioctl(file_id, WR_LCD_DISPLAY);
    d530:	31 c0                	xor    %eax,%eax
    d532:	89 ef                	mov    %ebp,%edi
    d534:	e8 67 4e ff ff       	call   23a0 <ioctl@plt>
    write(file_id, &val, sizeof(val));
    d539:	ba 02 00 00 00       	mov    $0x2,%edx
    d53e:	48 89 de             	mov    %rbx,%rsi
    d541:	89 ef                	mov    %ebp,%edi
    d543:	e8 a8 50 ff ff       	call   25f0 <write@plt>
    usleep(LCD_DELAY_US);
    d548:	bf 58 02 00 00       	mov    $0x258,%edi
    d54d:	e8 de 50 ff ff       	call   2630 <usleep@plt>
    ioctl(file_id, WR_LCD_DISPLAY);
    d552:	8b 2d b4 6c 00 00    	mov    0x6cb4(%rip),%ebp        # 1420c <file_id>
    val = val | 0x800;
    d558:	b8 80 08 00 00       	mov    $0x880,%eax
    ioctl(file_id, WR_LCD_DISPLAY);
    d55d:	be 67 61 00 00       	mov    $0x6167,%esi
    val = val | 0x800;
    d562:	66 89 44 24 06       	mov    %ax,0x6(%rsp)
    ioctl(file_id, WR_LCD_DISPLAY);
    d567:	31 c0                	xor    %eax,%eax
    d569:	89 ef                	mov    %ebp,%edi
    d56b:	e8 30 4e ff ff       	call   23a0 <ioctl@plt>
    write(file_id, &val, sizeof(val));
    d570:	ba 02 00 00 00       	mov    $0x2,%edx
    d575:	48 89 de             	mov    %rbx,%rsi
    d578:	89 ef                	mov    %ebp,%edi
    d57a:	e8 71 50 ff ff       	call   25f0 <write@plt>
    usleep(LCD_DELAY_US);
    d57f:	48 8b 44 24 08       	mov    0x8(%rsp),%rax
    d584:	64 48 2b 04 25 28 00 	sub    %fs:0x28,%rax
    d58b:	00 00 
    d58d:	75 10                	jne    d59f <lcd_init+0x2cf>
    lcd_toggle_enable(0x0f, LCD_COMMAND);
    lcd_toggle_enable(LCD_ENTRYMODESET | LCD_ENTRYLEFT, LCD_COMMAND);
    lcd_toggle_enable(LCD_FUNCTIONSET | 0x10 | LCD_2LINE, LCD_COMMAND);
    lcd_clear();
    lcd_set_cursor(0, 0);
}
    d58f:	48 83 c4 18          	add    $0x18,%rsp
    usleep(LCD_DELAY_US);
    d593:	bf 58 02 00 00       	mov    $0x258,%edi
}
    d598:	5b                   	pop    %rbx
    d599:	5d                   	pop    %rbp
    usleep(LCD_DELAY_US);
    d59a:	e9 91 50 ff ff       	jmp    2630 <usleep@plt>
    d59f:	e8 6c 4e ff ff       	call   2410 <__stack_chk_fail@plt>
    d5a4:	66 66 2e 0f 1f 84 00 	data16 cs nopw 0x0(%rax,%rax,1)
    d5ab:	00 00 00 00 
    d5af:	90                   	nop

000000000000d5b0 <lcd_clear>:

void lcd_clear(void) 
{
    d5b0:	f3 0f 1e fa          	endbr64
    d5b4:	55                   	push   %rbp
    val = val | 0x800;
    d5b5:	ba 01 09 00 00       	mov    $0x901,%edx
    ioctl(file_id, WR_LCD_DISPLAY);
    d5ba:	be 67 61 00 00       	mov    $0x6167,%esi
{
    d5bf:	53                   	push   %rbx
    d5c0:	48 83 ec 18          	sub    $0x18,%rsp
    ioctl(file_id, WR_LCD_DISPLAY);
    d5c4:	8b 1d 42 6c 00 00    	mov    0x6c42(%rip),%ebx        # 1420c <file_id>
{
    d5ca:	64 48 8b 04 25 28 00 	mov    %fs:0x28,%rax
    d5d1:	00 00 
    d5d3:	48 89 44 24 08       	mov    %rax,0x8(%rsp)
    d5d8:	31 c0                	xor    %eax,%eax
    write(file_id, &val, sizeof(val));
    d5da:	48 8d 6c 24 06       	lea    0x6(%rsp),%rbp
    val = val | 0x800;
    d5df:	66 89 54 24 06       	mov    %dx,0x6(%rsp)
    ioctl(file_id, WR_LCD_DISPLAY);
    d5e4:	89 df                	mov    %ebx,%edi
    d5e6:	e8 b5 4d ff ff       	call   23a0 <ioctl@plt>
    write(file_id, &val, sizeof(val));
    d5eb:	ba 02 00 00 00       	mov    $0x2,%edx
    d5f0:	48 89 ee             	mov    %rbp,%rsi
    d5f3:	89 df                	mov    %ebx,%edi
    d5f5:	e8 f6 4f ff ff       	call   25f0 <write@plt>
    usleep(LCD_DELAY_US);
    d5fa:	bf 58 02 00 00       	mov    $0x258,%edi
    d5ff:	e8 2c 50 ff ff       	call   2630 <usleep@plt>
    ioctl(file_id, WR_LCD_DISPLAY);
    d604:	8b 1d 02 6c 00 00    	mov    0x6c02(%rip),%ebx        # 1420c <file_id>
    val = val | 0x800;
    d60a:	b9 01 08 00 00       	mov    $0x801,%ecx
    ioctl(file_id, WR_LCD_DISPLAY);
    d60f:	31 c0                	xor    %eax,%eax
    d611:	be 67 61 00 00       	mov    $0x6167,%esi
    val = val | 0x800;
    d616:	66 89 4c 24 06       	mov    %cx,0x6(%rsp)
    ioctl(file_id, WR_LCD_DISPLAY);
    d61b:	89 df                	mov    %ebx,%edi
    d61d:	e8 7e 4d ff ff       	call   23a0 <ioctl@plt>
    write(file_id, &val, sizeof(val));
    d622:	ba 02 00 00 00       	mov    $0x2,%edx
    d627:	48 89 ee             	mov    %rbp,%rsi
    d62a:	89 df                	mov    %ebx,%edi
    d62c:	e8 bf 4f ff ff       	call   25f0 <write@plt>
    usleep(LCD_DELAY_US);
    d631:	48 8b 44 24 08       	mov    0x8(%rsp),%rax
    d636:	64 48 2b 04 25 28 00 	sub    %fs:0x28,%rax
    d63d:	00 00 
    d63f:	75 10                	jne    d651 <lcd_clear+0xa1>
    lcd_toggle_enable(LCD_CLEARDISPLAY, LCD_COMMAND);
}
    d641:	48 83 c4 18          	add    $0x18,%rsp
    usleep(LCD_DELAY_US);
    d645:	bf 58 02 00 00       	mov    $0x258,%edi
}
    d64a:	5b                   	pop    %rbx
    d64b:	5d                   	pop    %rbp
    usleep(LCD_DELAY_US);
    d64c:	e9 df 4f ff ff       	jmp    2630 <usleep@plt>
    d651:	e8 ba 4d ff ff       	call   2410 <__stack_chk_fail@plt>
    d656:	66 2e 0f 1f 84 00 00 	cs nopw 0x0(%rax,%rax,1)
    d65d:	00 00 00 

000000000000d660 <lcd_set_cursor>:

// go to location on LCD
void lcd_set_cursor(int line, int position) 
{
    d660:	f3 0f 1e fa          	endbr64
    d664:	41 54                	push   %r12
    d666:	55                   	push   %rbp
    d667:	53                   	push   %rbx
    d668:	48 83 ec 10          	sub    $0x10,%rsp
    ioctl(file_id, WR_LCD_DISPLAY);
    d66c:	44 8b 25 99 6b 00 00 	mov    0x6b99(%rip),%r12d        # 1420c <file_id>
{
    d673:	64 48 8b 04 25 28 00 	mov    %fs:0x28,%rax
    d67a:	00 00 
    d67c:	48 89 44 24 08       	mov    %rax,0x8(%rsp)
    d681:	31 c0                	xor    %eax,%eax
    int val = (line == 0) ? 0x80 + position : 0xC0 + position;
    d683:	8d 86 80 00 00 00    	lea    0x80(%rsi),%eax
    d689:	81 c6 c0 00 00 00    	add    $0xc0,%esi
    d68f:	85 ff                	test   %edi,%edi
    d691:	0f 45 c6             	cmovne %esi,%eax
    ioctl(file_id, WR_LCD_DISPLAY);
    d694:	44 89 e7             	mov    %r12d,%edi
    write(file_id, &val, sizeof(val));
    d697:	48 8d 6c 24 06       	lea    0x6(%rsp),%rbp
    ioctl(file_id, WR_LCD_DISPLAY);
    d69c:	be 67 61 00 00       	mov    $0x6167,%esi
    int val = (line == 0) ? 0x80 + position : 0xC0 + position;
    d6a1:	89 c3                	mov    %eax,%ebx
    write_byte(val | (mode << 10) | 0x100);
    d6a3:	0f b6 c0             	movzbl %al,%eax
    val = val | 0x800;
    d6a6:	80 cc 09             	or     $0x9,%ah
    d6a9:	0f b6 db             	movzbl %bl,%ebx
    d6ac:	66 89 44 24 06       	mov    %ax,0x6(%rsp)
    ioctl(file_id, WR_LCD_DISPLAY);
    d6b1:	31 c0                	xor    %eax,%eax
    val = val | 0x800;
    d6b3:	80 cf 08             	or     $0x8,%bh
    ioctl(file_id, WR_LCD_DISPLAY);
    d6b6:	e8 e5 4c ff ff       	call   23a0 <ioctl@plt>
    write(file_id, &val, sizeof(val));
    d6bb:	ba 02 00 00 00       	mov    $0x2,%edx
    d6c0:	48 89 ee             	mov    %rbp,%rsi
    d6c3:	44 89 e7             	mov    %r12d,%edi
    d6c6:	e8 25 4f ff ff       	call   25f0 <write@plt>
    usleep(LCD_DELAY_US);
    d6cb:	bf 58 02 00 00       	mov    $0x258,%edi
    d6d0:	e8 5b 4f ff ff       	call   2630 <usleep@plt>
    val = val | 0x800;
    d6d5:	66 89 5c 24 06       	mov    %bx,0x6(%rsp)
    ioctl(file_id, WR_LCD_DISPLAY);
    d6da:	8b 1d 2c 6b 00 00    	mov    0x6b2c(%rip),%ebx        # 1420c <file_id>
    d6e0:	31 c0                	xor    %eax,%eax
    d6e2:	be 67 61 00 00       	mov    $0x6167,%esi
    d6e7:	89 df                	mov    %ebx,%edi
    d6e9:	e8 b2 4c ff ff       	call   23a0 <ioctl@plt>
    write(file_id, &val, sizeof(val));
    d6ee:	ba 02 00 00 00       	mov    $0x2,%edx
    d6f3:	48 89 ee             	mov    %rbp,%rsi
    d6f6:	89 df                	mov    %ebx,%edi
    d6f8:	e8 f3 4e ff ff       	call   25f0 <write@plt>
    usleep(LCD_DELAY_US);
    d6fd:	48 8b 44 24 08       	mov    0x8(%rsp),%rax
    d702:	64 48 2b 04 25 28 00 	sub    %fs:0x28,%rax
    d709:	00 00 
    d70b:	75 12                	jne    d71f <lcd_set_cursor+0xbf>
    lcd_toggle_enable(val, LCD_COMMAND);
}
    d70d:	48 83 c4 10          	add    $0x10,%rsp
    usleep(LCD_DELAY_US);
    d711:	bf 58 02 00 00       	mov    $0x258,%edi
}
    d716:	5b                   	pop    %rbx
    d717:	5d                   	pop    %rbp
    d718:	41 5c                	pop    %r12
    usleep(LCD_DELAY_US);
    d71a:	e9 11 4f ff ff       	jmp    2630 <usleep@plt>
    d71f:	e8 ec 4c ff ff       	call   2410 <__stack_chk_fail@plt>
    d724:	66 66 2e 0f 1f 84 00 	data16 cs nopw 0x0(%rax,%rax,1)
    d72b:	00 00 00 00 
    d72f:	90                   	nop

000000000000d730 <lcd_char>:

void lcd_char(char val) 
{
    d730:	f3 0f 1e fa          	endbr64
    d734:	41 54                	push   %r12
    ioctl(file_id, WR_LCD_DISPLAY);
    d736:	be 67 61 00 00       	mov    $0x6167,%esi
{
    d73b:	55                   	push   %rbp
    d73c:	53                   	push   %rbx
    write_byte(val | (mode << 10) | 0x100);
    d73d:	40 0f b6 df          	movzbl %dil,%ebx
{
    d741:	48 83 ec 10          	sub    $0x10,%rsp
    ioctl(file_id, WR_LCD_DISPLAY);
    d745:	44 8b 25 c0 6a 00 00 	mov    0x6ac0(%rip),%r12d        # 1420c <file_id>
{
    d74c:	64 48 8b 04 25 28 00 	mov    %fs:0x28,%rax
    d753:	00 00 
    d755:	48 89 44 24 08       	mov    %rax,0x8(%rsp)
    d75a:	31 c0                	xor    %eax,%eax
    val = val | 0x800;
    d75c:	89 d8                	mov    %ebx,%eax
    write(file_id, &val, sizeof(val));
    d75e:	48 8d 6c 24 06       	lea    0x6(%rsp),%rbp
    val = val | 0x800;
    d763:	80 cf 0c             	or     $0xc,%bh
    d766:	80 cc 0d             	or     $0xd,%ah
    ioctl(file_id, WR_LCD_DISPLAY);
    d769:	44 89 e7             	mov    %r12d,%edi
    val = val | 0x800;
    d76c:	66 89 44 24 06       	mov    %ax,0x6(%rsp)
    ioctl(file_id, WR_LCD_DISPLAY);
    d771:	31 c0                	xor    %eax,%eax
    d773:	e8 28 4c ff ff       	call   23a0 <ioctl@plt>
    write(file_id, &val, sizeof(val));
    d778:	ba 02 00 00 00       	mov    $0x2,%edx
    d77d:	48 89 ee             	mov    %rbp,%rsi
    d780:	44 89 e7             	mov    %r12d,%edi
    d783:	e8 68 4e ff ff       	call   25f0 <write@plt>
    usleep(LCD_DELAY_US);
    d788:	bf 58 02 00 00       	mov    $0x258,%edi
    d78d:	e8 9e 4e ff ff       	call   2630 <usleep@plt>
    val = val | 0x800;
    d792:	66 89 5c 24 06       	mov    %bx,0x6(%rsp)
    ioctl(file_id, WR_LCD_DISPLAY);
    d797:	8b 1d 6f 6a 00 00    	mov    0x6a6f(%rip),%ebx        # 1420c <file_id>
    d79d:	31 c0                	xor    %eax,%eax
    d79f:	be 67 61 00 00       	mov    $0x6167,%esi
    d7a4:	89 df                	mov    %ebx,%edi
    d7a6:	e8 f5 4b ff ff       	call   23a0 <ioctl@plt>
    write(file_id, &val, sizeof(val));
    d7ab:	ba 02 00 00 00       	mov    $0x2,%edx
    d7b0:	48 89 ee             	mov    %rbp,%rsi
    d7b3:	89 df                	mov    %ebx,%edi
    d7b5:	e8 36 4e ff ff       	call   25f0 <write@plt>
    usleep(LCD_DELAY_US);
    d7ba:	48 8b 44 24 08       	mov    0x8(%rsp),%rax
    d7bf:	64 48 2b 04 25 28 00 	sub    %fs:0x28,%rax
    d7c6:	00 00 
    d7c8:	75 12                	jne    d7dc <lcd_char+0xac>
    lcd_toggle_enable(val, LCD_CHARACTER);
}
    d7ca:	48 83 c4 10          	add    $0x10,%rsp
    usleep(LCD_DELAY_US);
    d7ce:	bf 58 02 00 00       	mov    $0x258,%edi
}
    d7d3:	5b                   	pop    %rbx
    d7d4:	5d                   	pop    %rbp
    d7d5:	41 5c                	pop    %r12
    usleep(LCD_DELAY_US);
    d7d7:	e9 54 4e ff ff       	jmp    2630 <usleep@plt>
    d7dc:	e8 2f 4c ff ff       	call   2410 <__stack_chk_fail@plt>
    d7e1:	66 66 2e 0f 1f 84 00 	data16 cs nopw 0x0(%rax,%rax,1)
    d7e8:	00 00 00 00 
    d7ec:	0f 1f 40 00          	nopl   0x0(%rax)

000000000000d7f0 <lcd_string>:

void lcd_string(const char *s) 
{
    d7f0:	f3 0f 1e fa          	endbr64
    d7f4:	41 55                	push   %r13
    d7f6:	41 54                	push   %r12
    d7f8:	55                   	push   %rbp
    d7f9:	53                   	push   %rbx
    d7fa:	48 83 ec 18          	sub    $0x18,%rsp
    d7fe:	64 48 8b 04 25 28 00 	mov    %fs:0x28,%rax
    d805:	00 00 
    d807:	48 89 44 24 08       	mov    %rax,0x8(%rsp)
    d80c:	31 c0                	xor    %eax,%eax
    while (*s)
    d80e:	0f b6 07             	movzbl (%rdi),%eax
    d811:	84 c0                	test   %al,%al
    d813:	0f 84 8f 00 00 00    	je     d8a8 <lcd_string+0xb8>
    d819:	48 89 fd             	mov    %rdi,%rbp
    d81c:	4c 8d 64 24 06       	lea    0x6(%rsp),%r12
    d821:	0f 1f 80 00 00 00 00 	nopl   0x0(%rax)
    write_byte(val | (mode << 10) | 0x100);
    d828:	0f b6 d8             	movzbl %al,%ebx
    ioctl(file_id, WR_LCD_DISPLAY);
    d82b:	44 8b 2d da 69 00 00 	mov    0x69da(%rip),%r13d        # 1420c <file_id>
    d832:	be 67 61 00 00       	mov    $0x6167,%esi
        lcd_char(*s++);
    d837:	48 83 c5 01          	add    $0x1,%rbp
    val = val | 0x800;
    d83b:	89 d8                	mov    %ebx,%eax
    d83d:	80 cc 0d             	or     $0xd,%ah
    ioctl(file_id, WR_LCD_DISPLAY);
    d840:	44 89 ef             	mov    %r13d,%edi
    val = val | 0x800;
    d843:	66 89 44 24 06       	mov    %ax,0x6(%rsp)
    ioctl(file_id, WR_LCD_DISPLAY);
    d848:	31 c0                	xor    %eax,%eax
    d84a:	e8 51 4b ff ff       	call   23a0 <ioctl@plt>
    write(file_id, &val, sizeof(val));
    d84f:	ba 02 00 00 00       	mov    $0x2,%edx
    d854:	4c 89 e6             	mov    %r12,%rsi
    d857:	44 89 ef             	mov    %r13d,%edi
    d85a:	e8 91 4d ff ff       	call   25f0 <write@plt>
    usleep(LCD_DELAY_US);
    d85f:	bf 58 02 00 00       	mov    $0x258,%edi
    d864:	e8 c7 4d ff ff       	call   2630 <usleep@plt>
    val = val | 0x800;
    d869:	89 d8                	mov    %ebx,%eax
    ioctl(file_id, WR_LCD_DISPLAY);
    d86b:	8b 1d 9b 69 00 00    	mov    0x699b(%rip),%ebx        # 1420c <file_id>
    d871:	be 67 61 00 00       	mov    $0x6167,%esi
    val = val | 0x800;
    d876:	80 cc 0c             	or     $0xc,%ah
    d879:	66 89 44 24 06       	mov    %ax,0x6(%rsp)
    ioctl(file_id, WR_LCD_DISPLAY);
    d87e:	89 df                	mov    %ebx,%edi
    d880:	31 c0                	xor    %eax,%eax
    d882:	e8 19 4b ff ff       	call   23a0 <ioctl@plt>
    write(file_id, &val, sizeof(val));
    d887:	ba 02 00 00 00       	mov    $0x2,%edx
    d88c:	4c 89 e6             	mov    %r12,%rsi
    d88f:	89 df                	mov    %ebx,%edi
    d891:	e8 5a 4d ff ff       	call   25f0 <write@plt>
    usleep(LCD_DELAY_US);
    d896:	bf 58 02 00 00       	mov    $0x258,%edi
    d89b:	e8 90 4d ff ff       	call   2630 <usleep@plt>
    while (*s)
    d8a0:	0f b6 45 00          	movzbl 0x0(%rbp),%eax
    d8a4:	84 c0                	test   %al,%al
    d8a6:	75 80                	jne    d828 <lcd_string+0x38>
    d8a8:	48 8b 44 24 08       	mov    0x8(%rsp),%rax
    d8ad:	64 48 2b 04 25 28 00 	sub    %fs:0x28,%rax
    d8b4:	00 00 
    d8b6:	75 0b                	jne    d8c3 <lcd_string+0xd3>
    d8b8:	48 83 c4 18          	add    $0x18,%rsp
    d8bc:	5b                   	pop    %rbx
    d8bd:	5d                   	pop    %rbp
    d8be:	41 5c                	pop    %r12
    d8c0:	41 5d                	pop    %r13
    d8c2:	c3                   	ret
    d8c3:	e8 48 4b ff ff       	call   2410 <__stack_chk_fail@plt>
    d8c8:	0f 1f 84 00 00 00 00 	nopl   0x0(%rax,%rax,1)
    d8cf:	00 

000000000000d8d0 <handle_sigint>:
void handle_sigint(int sig) {
    d8d0:	f3 0f 1e fa          	endbr64
    game_should_exit = 1;
    d8d4:	c7 05 42 69 00 00 01 	movl   $0x1,0x6942(%rip)        # 14220 <game_should_exit>
    d8db:	00 00 00 
}
    d8de:	c3                   	ret
    d8df:	90                   	nop

000000000000d8e0 <disableRawMode>:
void disableRawMode() { 
    d8e0:	f3 0f 1e fa          	endbr64
    d8e4:	48 83 ec 08          	sub    $0x8,%rsp
    tcsetattr(STDIN_FILENO, TCSAFLUSH, &orig_termios); 
    d8e8:	be 02 00 00 00       	mov    $0x2,%esi
    d8ed:	31 ff                	xor    %edi,%edi
    d8ef:	48 8d 15 4a 69 00 00 	lea    0x694a(%rip),%rdx        # 14240 <orig_termios>
    d8f6:	e8 e5 4b ff ff       	call   24e0 <tcsetattr@plt>
    d8fb:	bf 02 00 00 00       	mov    $0x2,%edi
    d900:	31 c0                	xor    %eax,%eax
} 
    d902:	48 83 c4 08          	add    $0x8,%rsp
    d906:	48 8d 35 e0 18 00 00 	lea    0x18e0(%rip),%rsi        # f1ed <_IO_stdin_used+0x1ed>
    d90d:	e9 ee 4c ff ff       	jmp    2600 <__printf_chk@plt>
    d912:	66 66 2e 0f 1f 84 00 	data16 cs nopw 0x0(%rax,%rax,1)
    d919:	00 00 00 00 
    d91d:	0f 1f 00             	nopl   (%rax)

000000000000d920 <close_hardware.part.0>:
void close_hardware(int fd) { 
    d920:	55                   	push   %rbp
        ioctl(fd, WR_GREEN_LEDS); 
    d921:	be 66 61 00 00       	mov    $0x6166,%esi
void close_hardware(int fd) { 
    d926:	53                   	push   %rbx
    d927:	89 fb                	mov    %edi,%ebx
    d929:	48 83 ec 18          	sub    $0x18,%rsp
    d92d:	64 48 8b 04 25 28 00 	mov    %fs:0x28,%rax
    d934:	00 00 
    d936:	48 89 44 24 08       	mov    %rax,0x8(%rsp)
    d93b:	31 c0                	xor    %eax,%eax
        write(fd, &val, sizeof(val)); 
    d93d:	48 8d 6c 24 04       	lea    0x4(%rsp),%rbp
        uint32_t val = 0; 
    d942:	c7 44 24 04 00 00 00 	movl   $0x0,0x4(%rsp)
    d949:	00 
        ioctl(fd, WR_GREEN_LEDS); 
    d94a:	e8 51 4a ff ff       	call   23a0 <ioctl@plt>
        write(fd, &val, sizeof(val)); 
    d94f:	ba 04 00 00 00       	mov    $0x4,%edx
    d954:	48 89 ee             	mov    %rbp,%rsi
    d957:	89 df                	mov    %ebx,%edi
    d959:	e8 92 4c ff ff       	call   25f0 <write@plt>
        ioctl(fd, WR_RED_LEDS); 
    d95e:	be 65 61 00 00       	mov    $0x6165,%esi
    d963:	89 df                	mov    %ebx,%edi
    d965:	31 c0                	xor    %eax,%eax
    d967:	e8 34 4a ff ff       	call   23a0 <ioctl@plt>
        write(fd, &val, sizeof(val)); 
    d96c:	ba 04 00 00 00       	mov    $0x4,%edx
    d971:	48 89 ee             	mov    %rbp,%rsi
    d974:	89 df                	mov    %ebx,%edi
    d976:	e8 75 4c ff ff       	call   25f0 <write@plt>
        ioctl(fd, WR_L_DISPLAY); 
    d97b:	be 63 61 00 00       	mov    $0x6163,%esi
    d980:	89 df                	mov    %ebx,%edi
    d982:	31 c0                	xor    %eax,%eax
        val = 0xFFFFFFFF; 
    d984:	c7 44 24 04 ff ff ff 	movl   $0xffffffff,0x4(%rsp)
    d98b:	ff 
        ioctl(fd, WR_L_DISPLAY); 
    d98c:	e8 0f 4a ff ff       	call   23a0 <ioctl@plt>
        write(fd, &val, sizeof(val)); 
    d991:	ba 04 00 00 00       	mov    $0x4,%edx
    d996:	48 89 ee             	mov    %rbp,%rsi
    d999:	89 df                	mov    %ebx,%edi
    d99b:	e8 50 4c ff ff       	call   25f0 <write@plt>
        ioctl(fd, WR_R_DISPLAY); 
    d9a0:	be 64 61 00 00       	mov    $0x6164,%esi
    d9a5:	89 df                	mov    %ebx,%edi
    d9a7:	31 c0                	xor    %eax,%eax
    d9a9:	e8 f2 49 ff ff       	call   23a0 <ioctl@plt>
        write(fd, &val, sizeof(val)); 
    d9ae:	89 df                	mov    %ebx,%edi
    d9b0:	ba 04 00 00 00       	mov    $0x4,%edx
    d9b5:	48 89 ee             	mov    %rbp,%rsi
    d9b8:	e8 33 4c ff ff       	call   25f0 <write@plt>
        close(fd); 
    d9bd:	89 df                	mov    %ebx,%edi
    d9bf:	e8 1c 4a ff ff       	call   23e0 <close@plt>
} 
    d9c4:	48 8b 44 24 08       	mov    0x8(%rsp),%rax
    d9c9:	64 48 2b 04 25 28 00 	sub    %fs:0x28,%rax
    d9d0:	00 00 
    d9d2:	75 07                	jne    d9db <close_hardware.part.0+0xbb>
    d9d4:	48 83 c4 18          	add    $0x18,%rsp
    d9d8:	5b                   	pop    %rbx
    d9d9:	5d                   	pop    %rbp
    d9da:	c3                   	ret
    d9db:	e8 30 4a ff ff       	call   2410 <__stack_chk_fail@plt>

000000000000d9e0 <update_displays.part.0>:
void update_displays(int fd, int score, int errors) { 
    d9e0:	41 54                	push   %r12
    d9e2:	89 f1                	mov    %esi,%ecx
    left_display_val |= ((~seg7_codes[(score / 1000) % 10]) & 0x7F) << 21;
    d9e4:	4c 8d 25 d5 3e 00 00 	lea    0x3ed5(%rip),%r12        # 118c0 <seg7_codes>
void update_displays(int fd, int score, int errors) { 
    d9eb:	55                   	push   %rbp
    d9ec:	89 d5                	mov    %edx,%ebp
    left_display_val |= ((~seg7_codes[(score / 1000) % 10]) & 0x7F) << 21;
    d9ee:	48 63 d6             	movslq %esi,%rdx
    d9f1:	c1 fe 1f             	sar    $0x1f,%esi
void update_displays(int fd, int score, int errors) { 
    d9f4:	53                   	push   %rbx
    d9f5:	89 fb                	mov    %edi,%ebx
    d9f7:	48 83 ec 10          	sub    $0x10,%rsp
    d9fb:	64 48 8b 04 25 28 00 	mov    %fs:0x28,%rax
    da02:	00 00 
    da04:	48 89 44 24 08       	mov    %rax,0x8(%rsp)
    da09:	31 c0                	xor    %eax,%eax
    left_display_val |= ((~seg7_codes[(score / 1000) % 10]) & 0x7F) << 21;
    da0b:	48 69 c2 d3 4d 62 10 	imul   $0x10624dd3,%rdx,%rax
    da12:	48 c1 f8 26          	sar    $0x26,%rax
    da16:	29 f0                	sub    %esi,%eax
    da18:	48 63 f8             	movslq %eax,%rdi
    da1b:	41 89 c0             	mov    %eax,%r8d
    da1e:	48 69 ff 67 66 66 66 	imul   $0x66666667,%rdi,%rdi
    da25:	41 c1 f8 1f          	sar    $0x1f,%r8d
    da29:	48 c1 ff 22          	sar    $0x22,%rdi
    da2d:	44 29 c7             	sub    %r8d,%edi
    da30:	8d 3c bf             	lea    (%rdi,%rdi,4),%edi
    da33:	01 ff                	add    %edi,%edi
    da35:	29 f8                	sub    %edi,%eax
    da37:	48 98                	cltq
    da39:	45 8b 04 84          	mov    (%r12,%rax,4),%r8d
    left_display_val |= ((~seg7_codes[(score / 100) % 10]) & 0x7F) << 14; 
    da3d:	48 69 c2 1f 85 eb 51 	imul   $0x51eb851f,%rdx,%rax
    left_display_val |= ((~seg7_codes[(score / 1000) % 10]) & 0x7F) << 21;
    da44:	41 f7 d0             	not    %r8d
    left_display_val |= ((~seg7_codes[(score / 100) % 10]) & 0x7F) << 14; 
    da47:	48 c1 f8 25          	sar    $0x25,%rax
    left_display_val |= ((~seg7_codes[(score / 1000) % 10]) & 0x7F) << 21;
    da4b:	41 c1 e0 15          	shl    $0x15,%r8d
    left_display_val |= ((~seg7_codes[(score / 100) % 10]) & 0x7F) << 14; 
    da4f:	29 f0                	sub    %esi,%eax
    left_display_val |= ((~seg7_codes[(score / 1000) % 10]) & 0x7F) << 21;
    da51:	41 81 e0 00 00 e0 0f 	and    $0xfe00000,%r8d
    left_display_val |= ((~seg7_codes[(score / 100) % 10]) & 0x7F) << 14; 
    da58:	48 63 f8             	movslq %eax,%rdi
    da5b:	41 89 c1             	mov    %eax,%r9d
    da5e:	48 69 ff 67 66 66 66 	imul   $0x66666667,%rdi,%rdi
    da65:	41 c1 f9 1f          	sar    $0x1f,%r9d
    da69:	48 c1 ff 22          	sar    $0x22,%rdi
    da6d:	44 29 cf             	sub    %r9d,%edi
    da70:	8d 3c bf             	lea    (%rdi,%rdi,4),%edi
    da73:	01 ff                	add    %edi,%edi
    da75:	29 f8                	sub    %edi,%eax
    da77:	48 98                	cltq
    da79:	41 8b 3c 84          	mov    (%r12,%rax,4),%edi
    left_display_val |= (~seg7_codes[score % 10]) & 0x7F; 
    da7d:	48 69 c2 67 66 66 66 	imul   $0x66666667,%rdx,%rax
    left_display_val |= ((~seg7_codes[(score / 100) % 10]) & 0x7F) << 14; 
    da84:	f7 d7                	not    %edi
    left_display_val |= (~seg7_codes[score % 10]) & 0x7F; 
    da86:	48 c1 f8 22          	sar    $0x22,%rax
    left_display_val |= ((~seg7_codes[(score / 100) % 10]) & 0x7F) << 14; 
    da8a:	c1 e7 0e             	shl    $0xe,%edi
    left_display_val |= (~seg7_codes[score % 10]) & 0x7F; 
    da8d:	29 f0                	sub    %esi,%eax
    left_display_val |= ((~seg7_codes[(score / 100) % 10]) & 0x7F) << 14; 
    da8f:	81 e7 00 c0 1f 00    	and    $0x1fc000,%edi
    ioctl(fd, WR_L_DISPLAY); 
    da95:	be 63 61 00 00       	mov    $0x6163,%esi
    left_display_val |= (~seg7_codes[score % 10]) & 0x7F; 
    da9a:	8d 14 80             	lea    (%rax,%rax,4),%edx
    left_display_val |= ((~seg7_codes[(score / 100) % 10]) & 0x7F) << 14; 
    da9d:	44 09 c7             	or     %r8d,%edi
    left_display_val |= (~seg7_codes[score % 10]) & 0x7F; 
    daa0:	01 d2                	add    %edx,%edx
    daa2:	29 d1                	sub    %edx,%ecx
    daa4:	48 63 c9             	movslq %ecx,%rcx
    daa7:	41 8b 14 8c          	mov    (%r12,%rcx,4),%edx
    left_display_val |= ((~seg7_codes[(score / 10) % 10]) & 0x7F) << 7; 
    daab:	48 63 c8             	movslq %eax,%rcx
    left_display_val |= (~seg7_codes[score % 10]) & 0x7F; 
    daae:	f7 d2                	not    %edx
    dab0:	83 e2 7f             	and    $0x7f,%edx
    dab3:	09 d7                	or     %edx,%edi
    left_display_val |= ((~seg7_codes[(score / 10) % 10]) & 0x7F) << 7; 
    dab5:	48 69 c9 67 66 66 66 	imul   $0x66666667,%rcx,%rcx
    dabc:	99                   	cltd
    dabd:	48 c1 f9 22          	sar    $0x22,%rcx
    dac1:	29 d1                	sub    %edx,%ecx
    dac3:	8d 14 89             	lea    (%rcx,%rcx,4),%edx
    dac6:	01 d2                	add    %edx,%edx
    dac8:	29 d0                	sub    %edx,%eax
    daca:	48 98                	cltq
    dacc:	41 8b 04 84          	mov    (%r12,%rax,4),%eax
    dad0:	f7 d0                	not    %eax
    dad2:	c1 e0 07             	shl    $0x7,%eax
    dad5:	25 80 3f 00 00       	and    $0x3f80,%eax
    left_display_val |= (~seg7_codes[score % 10]) & 0x7F; 
    dada:	09 c7                	or     %eax,%edi
    ioctl(fd, WR_L_DISPLAY); 
    dadc:	31 c0                	xor    %eax,%eax
    left_display_val |= (~seg7_codes[score % 10]) & 0x7F; 
    dade:	89 3c 24             	mov    %edi,(%rsp)
    ioctl(fd, WR_L_DISPLAY); 
    dae1:	89 df                	mov    %ebx,%edi
    dae3:	e8 b8 48 ff ff       	call   23a0 <ioctl@plt>
    write(fd, &left_display_val, sizeof(left_display_val)); 
    dae8:	48 89 e6             	mov    %rsp,%rsi
    daeb:	ba 04 00 00 00       	mov    $0x4,%edx
    daf0:	89 df                	mov    %ebx,%edi
    daf2:	e8 f9 4a ff ff       	call   25f0 <write@plt>
    right_display_val |= ((~seg7_codes[(errors / 1000) % 10]) & 0x7F) << 21;
    daf7:	48 63 c5             	movslq %ebp,%rax
    dafa:	89 e9                	mov    %ebp,%ecx
    dafc:	48 69 d0 d3 4d 62 10 	imul   $0x10624dd3,%rax,%rdx
    db03:	c1 f9 1f             	sar    $0x1f,%ecx
    db06:	48 c1 fa 26          	sar    $0x26,%rdx
    db0a:	29 ca                	sub    %ecx,%edx
    db0c:	48 63 f2             	movslq %edx,%rsi
    db0f:	89 d7                	mov    %edx,%edi
    db11:	48 69 f6 67 66 66 66 	imul   $0x66666667,%rsi,%rsi
    db18:	c1 ff 1f             	sar    $0x1f,%edi
    db1b:	48 c1 fe 22          	sar    $0x22,%rsi
    db1f:	29 fe                	sub    %edi,%esi
    db21:	8d 34 b6             	lea    (%rsi,%rsi,4),%esi
    db24:	01 f6                	add    %esi,%esi
    db26:	29 f2                	sub    %esi,%edx
    db28:	48 63 d2             	movslq %edx,%rdx
    db2b:	41 8b 3c 94          	mov    (%r12,%rdx,4),%edi
    right_display_val |= ((~seg7_codes[(errors / 100) % 10]) & 0x7F) << 14;
    db2f:	48 69 d0 1f 85 eb 51 	imul   $0x51eb851f,%rax,%rdx
    right_display_val |= ((~seg7_codes[(errors / 1000) % 10]) & 0x7F) << 21;
    db36:	f7 d7                	not    %edi
    right_display_val |= ((~seg7_codes[(errors / 100) % 10]) & 0x7F) << 14;
    db38:	48 c1 fa 25          	sar    $0x25,%rdx
    right_display_val |= ((~seg7_codes[(errors / 1000) % 10]) & 0x7F) << 21;
    db3c:	c1 e7 15             	shl    $0x15,%edi
    right_display_val |= ((~seg7_codes[(errors / 100) % 10]) & 0x7F) << 14;
    db3f:	29 ca                	sub    %ecx,%edx
    right_display_val |= ((~seg7_codes[(errors / 1000) % 10]) & 0x7F) << 21;
    db41:	81 e7 00 00 e0 0f    	and    $0xfe00000,%edi
    right_display_val |= ((~seg7_codes[(errors / 100) % 10]) & 0x7F) << 14;
    db47:	48 63 f2             	movslq %edx,%rsi
    db4a:	41 89 d0             	mov    %edx,%r8d
    db4d:	48 69 f6 67 66 66 66 	imul   $0x66666667,%rsi,%rsi
    db54:	41 c1 f8 1f          	sar    $0x1f,%r8d
    db58:	48 c1 fe 22          	sar    $0x22,%rsi
    db5c:	44 29 c6             	sub    %r8d,%esi
    db5f:	8d 34 b6             	lea    (%rsi,%rsi,4),%esi
    db62:	01 f6                	add    %esi,%esi
    right_display_val |= (~seg7_codes[errors % 10]) & 0x7F; 
    db64:	48 69 c0 67 66 66 66 	imul   $0x66666667,%rax,%rax
    right_display_val |= ((~seg7_codes[(errors / 100) % 10]) & 0x7F) << 14;
    db6b:	29 f2                	sub    %esi,%edx
    db6d:	48 63 d2             	movslq %edx,%rdx
    right_display_val |= (~seg7_codes[errors % 10]) & 0x7F; 
    db70:	48 c1 f8 22          	sar    $0x22,%rax
    right_display_val |= ((~seg7_codes[(errors / 100) % 10]) & 0x7F) << 14;
    db74:	41 8b 14 94          	mov    (%r12,%rdx,4),%edx
    right_display_val |= (~seg7_codes[errors % 10]) & 0x7F; 
    db78:	29 c8                	sub    %ecx,%eax
    db7a:	8d 0c 80             	lea    (%rax,%rax,4),%ecx
    right_display_val |= ((~seg7_codes[(errors / 100) % 10]) & 0x7F) << 14;
    db7d:	f7 d2                	not    %edx
    right_display_val |= ((~seg7_codes[(errors / 10) % 10]) & 0x7F) << 7; 
    db7f:	89 c6                	mov    %eax,%esi
    right_display_val |= ((~seg7_codes[(errors / 100) % 10]) & 0x7F) << 14;
    db81:	c1 e2 0e             	shl    $0xe,%edx
    right_display_val |= (~seg7_codes[errors % 10]) & 0x7F; 
    db84:	01 c9                	add    %ecx,%ecx
    right_display_val |= ((~seg7_codes[(errors / 10) % 10]) & 0x7F) << 7; 
    db86:	c1 fe 1f             	sar    $0x1f,%esi
    right_display_val |= (~seg7_codes[errors % 10]) & 0x7F; 
    db89:	29 cd                	sub    %ecx,%ebp
    right_display_val |= ((~seg7_codes[(errors / 100) % 10]) & 0x7F) << 14;
    db8b:	81 e2 00 c0 1f 00    	and    $0x1fc000,%edx
    right_display_val |= (~seg7_codes[errors % 10]) & 0x7F; 
    db91:	48 63 ed             	movslq %ebp,%rbp
    right_display_val |= ((~seg7_codes[(errors / 100) % 10]) & 0x7F) << 14;
    db94:	09 fa                	or     %edi,%edx
    ioctl(fd, WR_R_DISPLAY); 
    db96:	89 df                	mov    %ebx,%edi
    right_display_val |= (~seg7_codes[errors % 10]) & 0x7F; 
    db98:	41 8b 0c ac          	mov    (%r12,%rbp,4),%ecx
    db9c:	f7 d1                	not    %ecx
    db9e:	83 e1 7f             	and    $0x7f,%ecx
    dba1:	09 d1                	or     %edx,%ecx
    right_display_val |= ((~seg7_codes[(errors / 10) % 10]) & 0x7F) << 7; 
    dba3:	48 63 d0             	movslq %eax,%rdx
    dba6:	48 69 d2 67 66 66 66 	imul   $0x66666667,%rdx,%rdx
    dbad:	48 c1 fa 22          	sar    $0x22,%rdx
    dbb1:	29 f2                	sub    %esi,%edx
    ioctl(fd, WR_R_DISPLAY); 
    dbb3:	be 64 61 00 00       	mov    $0x6164,%esi
    right_display_val |= ((~seg7_codes[(errors / 10) % 10]) & 0x7F) << 7; 
    dbb8:	8d 14 92             	lea    (%rdx,%rdx,4),%edx
    dbbb:	01 d2                	add    %edx,%edx
    dbbd:	29 d0                	sub    %edx,%eax
    dbbf:	48 98                	cltq
    dbc1:	41 8b 04 84          	mov    (%r12,%rax,4),%eax
    dbc5:	f7 d0                	not    %eax
    dbc7:	c1 e0 07             	shl    $0x7,%eax
    dbca:	25 80 3f 00 00       	and    $0x3f80,%eax
    right_display_val |= (~seg7_codes[errors % 10]) & 0x7F; 
    dbcf:	09 c1                	or     %eax,%ecx
    ioctl(fd, WR_R_DISPLAY); 
    dbd1:	31 c0                	xor    %eax,%eax
    right_display_val |= (~seg7_codes[errors % 10]) & 0x7F; 
    dbd3:	89 4c 24 04          	mov    %ecx,0x4(%rsp)
    ioctl(fd, WR_R_DISPLAY); 
    dbd7:	e8 c4 47 ff ff       	call   23a0 <ioctl@plt>
    write(fd, &right_display_val, sizeof(right_display_val)); 
    dbdc:	48 8d 74 24 04       	lea    0x4(%rsp),%rsi
    dbe1:	ba 04 00 00 00       	mov    $0x4,%edx
    dbe6:	89 df                	mov    %ebx,%edi
    dbe8:	e8 03 4a ff ff       	call   25f0 <write@plt>
} 
    dbed:	48 8b 44 24 08       	mov    0x8(%rsp),%rax
    dbf2:	64 48 2b 04 25 28 00 	sub    %fs:0x28,%rax
    dbf9:	00 00 
    dbfb:	75 09                	jne    dc06 <update_displays.part.0+0x226>
    dbfd:	48 83 c4 10          	add    $0x10,%rsp
    dc01:	5b                   	pop    %rbx
    dc02:	5d                   	pop    %rbp
    dc03:	41 5c                	pop    %r12
    dc05:	c3                   	ret
    dc06:	e8 05 48 ff ff       	call   2410 <__stack_chk_fail@plt>
    dc0b:	0f 1f 44 00 00       	nopl   0x0(%rax,%rax,1)

000000000000dc10 <enableRawMode>:
void enableRawMode() { 
    dc10:	f3 0f 1e fa          	endbr64
    dc14:	48 83 ec 58          	sub    $0x58,%rsp
    tcgetattr(STDIN_FILENO, &orig_termios); 
    dc18:	48 8d 35 21 66 00 00 	lea    0x6621(%rip),%rsi        # 14240 <orig_termios>
    dc1f:	31 ff                	xor    %edi,%edi
void enableRawMode() { 
    dc21:	64 48 8b 04 25 28 00 	mov    %fs:0x28,%rax
    dc28:	00 00 
    dc2a:	48 89 44 24 48       	mov    %rax,0x48(%rsp)
    dc2f:	31 c0                	xor    %eax,%eax
    tcgetattr(STDIN_FILENO, &orig_termios); 
    dc31:	e8 ca 48 ff ff       	call   2500 <tcgetattr@plt>
    atexit(disableRawMode); 
    dc36:	48 8d 3d a3 fc ff ff 	lea    -0x35d(%rip),%rdi        # d8e0 <disableRawMode>
    dc3d:	e8 7e 0e 00 00       	call   eac0 <atexit>
    struct termios raw = orig_termios; 
    dc42:	66 0f 6f 05 f6 65 00 	movdqa 0x65f6(%rip),%xmm0        # 14240 <orig_termios>
    dc49:	00 
    tcsetattr(STDIN_FILENO, TCSAFLUSH, &raw); 
    dc4a:	31 ff                	xor    %edi,%edi
    struct termios raw = orig_termios; 
    dc4c:	66 0f 6f 0d fc 65 00 	movdqa 0x65fc(%rip),%xmm1        # 14250 <orig_termios+0x10>
    dc53:	00 
    dc54:	66 0f 6f 15 04 66 00 	movdqa 0x6604(%rip),%xmm2        # 14260 <orig_termios+0x20>
    dc5b:	00 
    dc5c:	f3 0f 6f 1d 08 66 00 	movdqu 0x6608(%rip),%xmm3        # 1426c <orig_termios+0x2c>
    dc63:	00 
    tcsetattr(STDIN_FILENO, TCSAFLUSH, &raw); 
    dc64:	48 89 e2             	mov    %rsp,%rdx
    dc67:	be 02 00 00 00       	mov    $0x2,%esi
    struct termios raw = orig_termios; 
    dc6c:	0f 29 04 24          	movaps %xmm0,(%rsp)
    dc70:	0f 29 54 24 20       	movaps %xmm2,0x20(%rsp)
    raw.c_lflag &= ~(ECHO | ICANON); 
    dc75:	83 64 24 0c f5       	andl   $0xfffffff5,0xc(%rsp)
    struct termios raw = orig_termios; 
    dc7a:	0f 29 4c 24 10       	movaps %xmm1,0x10(%rsp)
    dc7f:	0f 11 5c 24 2c       	movups %xmm3,0x2c(%rsp)
    tcsetattr(STDIN_FILENO, TCSAFLUSH, &raw); 
    dc84:	e8 57 48 ff ff       	call   24e0 <tcsetattr@plt>
} 
    dc89:	48 8b 44 24 48       	mov    0x48(%rsp),%rax
    dc8e:	64 48 2b 04 25 28 00 	sub    %fs:0x28,%rax
    dc95:	00 00 
    dc97:	75 05                	jne    dc9e <enableRawMode+0x8e>
    dc99:	48 83 c4 58          	add    $0x58,%rsp
    dc9d:	c3                   	ret
    dc9e:	e8 6d 47 ff ff       	call   2410 <__stack_chk_fail@plt>
    dca3:	66 66 2e 0f 1f 84 00 	data16 cs nopw 0x0(%rax,%rax,1)
    dcaa:	00 00 00 00 
    dcae:	66 90                	xchg   %ax,%ax

000000000000dcb0 <kbhit>:
int kbhit(void) { 
    dcb0:	f3 0f 1e fa          	endbr64
    dcb4:	48 81 ec a8 00 00 00 	sub    $0xa8,%rsp
    FD_ZERO(&fds); 
    dcbb:	b9 0f 00 00 00       	mov    $0xf,%ecx
    struct timeval tv = {0, 0}; 
    dcc0:	66 0f ef c0          	pxor   %xmm0,%xmm0
int kbhit(void) { 
    dcc4:	64 48 8b 04 25 28 00 	mov    %fs:0x28,%rax
    dccb:	00 00 
    dccd:	48 89 84 24 98 00 00 	mov    %rax,0x98(%rsp)
    dcd4:	00 
    dcd5:	31 c0                	xor    %eax,%eax
    FD_ZERO(&fds); 
    dcd7:	48 8d 54 24 18       	lea    0x18(%rsp),%rdx
    dcdc:	48 8d 74 24 10       	lea    0x10(%rsp),%rsi
    return select(STDIN_FILENO + 1, &fds, NULL, NULL, &tv) > 0; 
    dce1:	49 89 e0             	mov    %rsp,%r8
    FD_ZERO(&fds); 
    dce4:	48 89 d7             	mov    %rdx,%rdi
    return select(STDIN_FILENO + 1, &fds, NULL, NULL, &tv) > 0; 
    dce7:	31 d2                	xor    %edx,%edx
    struct timeval tv = {0, 0}; 
    dce9:	0f 29 04 24          	movaps %xmm0,(%rsp)
    FD_SET(STDIN_FILENO, &fds); 
    dced:	48 c7 44 24 10 01 00 	movq   $0x1,0x10(%rsp)
    dcf4:	00 00 
    FD_ZERO(&fds); 
    dcf6:	f3 48 ab             	rep stos %rax,%es:(%rdi)
    return select(STDIN_FILENO + 1, &fds, NULL, NULL, &tv) > 0; 
    dcf9:	bf 01 00 00 00       	mov    $0x1,%edi
    dcfe:	e8 7d 46 ff ff       	call   2380 <select@plt>
    dd03:	85 c0                	test   %eax,%eax
    dd05:	0f 9f c0             	setg   %al
} 
    dd08:	48 8b 94 24 98 00 00 	mov    0x98(%rsp),%rdx
    dd0f:	00 
    dd10:	64 48 2b 14 25 28 00 	sub    %fs:0x28,%rdx
    dd17:	00 00 
    dd19:	75 0b                	jne    dd26 <kbhit+0x76>
    dd1b:	0f b6 c0             	movzbl %al,%eax
    dd1e:	48 81 c4 a8 00 00 00 	add    $0xa8,%rsp
    dd25:	c3                   	ret
    dd26:	e8 e5 46 ff ff       	call   2410 <__stack_chk_fail@plt>
    dd2b:	0f 1f 44 00 00       	nopl   0x0(%rax,%rax,1)

000000000000dd30 <init_terminal>:
void init_terminal() { 
    dd30:	f3 0f 1e fa          	endbr64
    dd34:	48 83 ec 08          	sub    $0x8,%rsp
    dd38:	48 8d 35 b5 14 00 00 	lea    0x14b5(%rip),%rsi        # f1f4 <_IO_stdin_used+0x1f4>
    dd3f:	bf 02 00 00 00       	mov    $0x2,%edi
    dd44:	31 c0                	xor    %eax,%eax
    dd46:	e8 b5 48 ff ff       	call   2600 <__printf_chk@plt>
    dd4b:	bf 02 00 00 00       	mov    $0x2,%edi
    dd50:	31 c0                	xor    %eax,%eax
} 
    dd52:	48 83 c4 08          	add    $0x8,%rsp
    dd56:	48 8d 35 9e 14 00 00 	lea    0x149e(%rip),%rsi        # f1fb <_IO_stdin_used+0x1fb>
    dd5d:	e9 9e 48 ff ff       	jmp    2600 <__printf_chk@plt>
    dd62:	66 66 2e 0f 1f 84 00 	data16 cs nopw 0x0(%rax,%rax,1)
    dd69:	00 00 00 00 
    dd6d:	0f 1f 00             	nopl   (%rax)

000000000000dd70 <init_hardware>:
int init_hardware() { 
    dd70:	f3 0f 1e fa          	endbr64
    dd74:	55                   	push   %rbp
    dd75:	be 02 00 00 00       	mov    $0x2,%esi
    dd7a:	48 8d 3d 8e 14 00 00 	lea    0x148e(%rip),%rdi        # f20f <_IO_stdin_used+0x20f>
    dd81:	53                   	push   %rbx
    dd82:	48 83 ec 18          	sub    $0x18,%rsp
    dd86:	64 48 8b 04 25 28 00 	mov    %fs:0x28,%rax
    dd8d:	00 00 
    dd8f:	48 89 44 24 08       	mov    %rax,0x8(%rsp)
    dd94:	31 c0                	xor    %eax,%eax
    dd96:	e8 e5 46 ff ff       	call   2480 <open@plt>
    dd9b:	89 c3                	mov    %eax,%ebx
    if (fd == -1) { 
    dd9d:	83 f8 ff             	cmp    $0xffffffff,%eax
    dda0:	0f 84 1a 49 ff ff    	je     26c0 <init_hardware.cold>
    dda6:	89 c2                	mov    %eax,%edx
    dda8:	48 8d 35 a1 16 00 00 	lea    0x16a1(%rip),%rsi        # f450 <_IO_stdin_used+0x450>
    ddaf:	bf 02 00 00 00       	mov    $0x2,%edi
    ddb4:	31 c0                	xor    %eax,%eax
    ddb6:	e8 45 48 ff ff       	call   2600 <__printf_chk@plt>
    write(fd, &val, sizeof(val)); 
    ddbb:	48 8d 6c 24 04       	lea    0x4(%rsp),%rbp
    ioctl(fd, WR_GREEN_LEDS); 
    ddc0:	89 df                	mov    %ebx,%edi
    ddc2:	31 c0                	xor    %eax,%eax
    ddc4:	be 66 61 00 00       	mov    $0x6166,%esi
    uint32_t val = 0; 
    ddc9:	c7 44 24 04 00 00 00 	movl   $0x0,0x4(%rsp)
    ddd0:	00 
    ioctl(fd, WR_GREEN_LEDS); 
    ddd1:	e8 ca 45 ff ff       	call   23a0 <ioctl@plt>
    write(fd, &val, sizeof(val)); 
    ddd6:	ba 04 00 00 00       	mov    $0x4,%edx
    dddb:	48 89 ee             	mov    %rbp,%rsi
    ddde:	89 df                	mov    %ebx,%edi
    dde0:	e8 0b 48 ff ff       	call   25f0 <write@plt>
    ioctl(fd, WR_RED_LEDS); 
    dde5:	be 65 61 00 00       	mov    $0x6165,%esi
    ddea:	89 df                	mov    %ebx,%edi
    ddec:	31 c0                	xor    %eax,%eax
    ddee:	e8 ad 45 ff ff       	call   23a0 <ioctl@plt>
    write(fd, &val, sizeof(val)); 
    ddf3:	ba 04 00 00 00       	mov    $0x4,%edx
    ddf8:	48 89 ee             	mov    %rbp,%rsi
    ddfb:	89 df                	mov    %ebx,%edi
    ddfd:	e8 ee 47 ff ff       	call   25f0 <write@plt>
    ioctl(fd, WR_L_DISPLAY); 
    de02:	be 63 61 00 00       	mov    $0x6163,%esi
    de07:	89 df                	mov    %ebx,%edi
    de09:	31 c0                	xor    %eax,%eax
    val = 0xFFFFFFFF; 
    de0b:	c7 44 24 04 ff ff ff 	movl   $0xffffffff,0x4(%rsp)
    de12:	ff 
    ioctl(fd, WR_L_DISPLAY); 
    de13:	e8 88 45 ff ff       	call   23a0 <ioctl@plt>
    write(fd, &val, sizeof(val)); 
    de18:	ba 04 00 00 00       	mov    $0x4,%edx
    de1d:	48 89 ee             	mov    %rbp,%rsi
    de20:	89 df                	mov    %ebx,%edi
    de22:	e8 c9 47 ff ff       	call   25f0 <write@plt>
    ioctl(fd, WR_R_DISPLAY); 
    de27:	be 64 61 00 00       	mov    $0x6164,%esi
    de2c:	89 df                	mov    %ebx,%edi
    de2e:	31 c0                	xor    %eax,%eax
    de30:	e8 6b 45 ff ff       	call   23a0 <ioctl@plt>
    write(fd, &val, sizeof(val)); 
    de35:	ba 04 00 00 00       	mov    $0x4,%edx
    de3a:	48 89 ee             	mov    %rbp,%rsi
    de3d:	89 df                	mov    %ebx,%edi
    de3f:	e8 ac 47 ff ff       	call   25f0 <write@plt>
} 
    de44:	48 8b 44 24 08       	mov    0x8(%rsp),%rax
    de49:	64 48 2b 04 25 28 00 	sub    %fs:0x28,%rax
    de50:	00 00 
    de52:	75 09                	jne    de5d <init_hardware+0xed>
    de54:	48 83 c4 18          	add    $0x18,%rsp
    de58:	89 d8                	mov    %ebx,%eax
    de5a:	5b                   	pop    %rbx
    de5b:	5d                   	pop    %rbp
    de5c:	c3                   	ret
    de5d:	e8 ae 45 ff ff       	call   2410 <__stack_chk_fail@plt>
    de62:	66 66 2e 0f 1f 84 00 	data16 cs nopw 0x0(%rax,%rax,1)
    de69:	00 00 00 00 
    de6d:	0f 1f 00             	nopl   (%rax)

000000000000de70 <close_hardware>:
void close_hardware(int fd) { 
    de70:	f3 0f 1e fa          	endbr64
    if (fd != -1) { 
    de74:	83 ff ff             	cmp    $0xffffffff,%edi
    de77:	75 07                	jne    de80 <close_hardware+0x10>
} 
    de79:	c3                   	ret
    de7a:	66 0f 1f 44 00 00    	nopw   0x0(%rax,%rax,1)
    de80:	e9 9b fa ff ff       	jmp    d920 <close_hardware.part.0>
    de85:	66 66 2e 0f 1f 84 00 	data16 cs nopw 0x0(%rax,%rax,1)
    de8c:	00 00 00 00 

000000000000de90 <update_displays>:
void update_displays(int fd, int score, int errors) { 
    de90:	f3 0f 1e fa          	endbr64
    if (fd == -1) return; 
    de94:	83 ff ff             	cmp    $0xffffffff,%edi
    de97:	74 07                	je     dea0 <update_displays+0x10>
    de99:	e9 42 fb ff ff       	jmp    d9e0 <update_displays.part.0>
    de9e:	66 90                	xchg   %ax,%ax
} 
    dea0:	c3                   	ret
    dea1:	66 66 2e 0f 1f 84 00 	data16 cs nopw 0x0(%rax,%rax,1)
    dea8:	00 00 00 00 
    deac:	0f 1f 40 00          	nopl   0x0(%rax)

000000000000deb0 <flash_led>:
void flash_led(int fd, int color) { 
    deb0:	f3 0f 1e fa          	endbr64
    deb4:	55                   	push   %rbp
    deb5:	53                   	push   %rbx
    deb6:	48 83 ec 18          	sub    $0x18,%rsp
    deba:	64 48 8b 04 25 28 00 	mov    %fs:0x28,%rax
    dec1:	00 00 
    dec3:	48 89 44 24 08       	mov    %rax,0x8(%rsp)
    dec8:	31 c0                	xor    %eax,%eax
    if (fd == -1) return; 
    deca:	83 ff ff             	cmp    $0xffffffff,%edi
    decd:	0f 84 9b 00 00 00    	je     df6e <flash_led+0xbe>
    uint32_t leds_on = 0xFFFFFFFF; 
    ded3:	c7 04 24 ff ff ff ff 	movl   $0xffffffff,(%rsp)
    deda:	89 fb                	mov    %edi,%ebx
    uint32_t leds_off = 0x00; 
    dedc:	c7 44 24 04 00 00 00 	movl   $0x0,0x4(%rsp)
    dee3:	00 
    if (color == 1) { // LED Verde (acerto) 
    dee4:	83 fe 01             	cmp    $0x1,%esi
    dee7:	0f 84 9b 00 00 00    	je     df88 <flash_led+0xd8>
        ioctl(fd, WR_RED_LEDS); 
    deed:	be 65 61 00 00       	mov    $0x6165,%esi
    def2:	31 c0                	xor    %eax,%eax
    def4:	e8 a7 44 ff ff       	call   23a0 <ioctl@plt>
        write(fd, &leds_on, sizeof(leds_on)); 
    def9:	48 89 e6             	mov    %rsp,%rsi
    defc:	ba 04 00 00 00       	mov    $0x4,%edx
    df01:	89 df                	mov    %ebx,%edi
    df03:	e8 e8 46 ff ff       	call   25f0 <write@plt>
        ioctl(fd, WR_GREEN_LEDS); 
    df08:	be 66 61 00 00       	mov    $0x6166,%esi
        write(fd, &leds_off, sizeof(leds_off)); 
    df0d:	48 8d 6c 24 04       	lea    0x4(%rsp),%rbp
        ioctl(fd, WR_GREEN_LEDS); 
    df12:	89 df                	mov    %ebx,%edi
    df14:	31 c0                	xor    %eax,%eax
    df16:	e8 85 44 ff ff       	call   23a0 <ioctl@plt>
        write(fd, &leds_off, sizeof(leds_off)); 
    df1b:	ba 04 00 00 00       	mov    $0x4,%edx
    df20:	48 89 ee             	mov    %rbp,%rsi
    df23:	89 df                	mov    %ebx,%edi
    df25:	e8 c6 46 ff ff       	call   25f0 <write@plt>
    usleep(100000); // Mantém LEDs acesos por 100ms 
    df2a:	bf a0 86 01 00       	mov    $0x186a0,%edi
    df2f:	e8 fc 46 ff ff       	call   2630 <usleep@plt>
    ioctl(fd, WR_GREEN_LEDS); 
    df34:	be 66 61 00 00       	mov    $0x6166,%esi
    df39:	89 df                	mov    %ebx,%edi
    df3b:	31 c0                	xor    %eax,%eax
    df3d:	e8 5e 44 ff ff       	call   23a0 <ioctl@plt>
    write(fd, &leds_off, sizeof(leds_off)); 
    df42:	ba 04 00 00 00       	mov    $0x4,%edx
    df47:	48 89 ee             	mov    %rbp,%rsi
    df4a:	89 df                	mov    %ebx,%edi
    df4c:	e8 9f 46 ff ff       	call   25f0 <write@plt>
    ioctl(fd, WR_RED_LEDS); 
    df51:	be 65 61 00 00       	mov    $0x6165,%esi
    df56:	89 df                	mov    %ebx,%edi
    df58:	31 c0                	xor    %eax,%eax
    df5a:	e8 41 44 ff ff       	call   23a0 <ioctl@plt>
    write(fd, &leds_off, sizeof(leds_off)); 
    df5f:	ba 04 00 00 00       	mov    $0x4,%edx
    df64:	48 89 ee             	mov    %rbp,%rsi
    df67:	89 df                	mov    %ebx,%edi
    df69:	e8 82 46 ff ff       	call   25f0 <write@plt>
} 
    df6e:	48 8b 44 24 08       	mov    0x8(%rsp),%rax
    df73:	64 48 2b 04 25 28 00 	sub    %fs:0x28,%rax
    df7a:	00 00 
    df7c:	75 2d                	jne    dfab <flash_led+0xfb>
    df7e:	48 83 c4 18          	add    $0x18,%rsp
    df82:	5b                   	pop    %rbx
    df83:	5d                   	pop    %rbp
    df84:	c3                   	ret
    df85:	0f 1f 00             	nopl   (%rax)
        ioctl(fd, WR_GREEN_LEDS); 
    df88:	be 66 61 00 00       	mov    $0x6166,%esi
    df8d:	e8 0e 44 ff ff       	call   23a0 <ioctl@plt>
        write(fd, &leds_on, sizeof(leds_on)); 
    df92:	48 89 e6             	mov    %rsp,%rsi
    df95:	ba 04 00 00 00       	mov    $0x4,%edx
    df9a:	89 df                	mov    %ebx,%edi
    df9c:	e8 4f 46 ff ff       	call   25f0 <write@plt>
        ioctl(fd, WR_RED_LEDS); 
    dfa1:	be 65 61 00 00       	mov    $0x6165,%esi
    dfa6:	e9 62 ff ff ff       	jmp    df0d <flash_led+0x5d>
} 
    dfab:	e8 60 44 ff ff       	call   2410 <__stack_chk_fail@plt>

000000000000dfb0 <read_pbuttons>:
int read_pbuttons(int fd) { 
    dfb0:	f3 0f 1e fa          	endbr64
    dfb4:	53                   	push   %rbx
    dfb5:	48 83 ec 10          	sub    $0x10,%rsp
    dfb9:	64 48 8b 04 25 28 00 	mov    %fs:0x28,%rax
    dfc0:	00 00 
    dfc2:	48 89 44 24 08       	mov    %rax,0x8(%rsp)
    dfc7:	31 c0                	xor    %eax,%eax
    if (fd == -1) return 0; 
    dfc9:	83 ff ff             	cmp    $0xffffffff,%edi
    dfcc:	0f 84 0b 47 ff ff    	je     26dd <read_pbuttons.cold+0xc>
    if (ioctl(fd, RD_PBUTTONS) < 0) { 
    dfd2:	be 62 61 00 00       	mov    $0x6162,%esi
    uint32_t buttons = 0; 
    dfd7:	c7 44 24 04 00 00 00 	movl   $0x0,0x4(%rsp)
    dfde:	00 
    dfdf:	89 fb                	mov    %edi,%ebx
    if (ioctl(fd, RD_PBUTTONS) < 0) { 
    dfe1:	e8 ba 43 ff ff       	call   23a0 <ioctl@plt>
    dfe6:	85 c0                	test   %eax,%eax
    dfe8:	0f 88 e3 46 ff ff    	js     26d1 <read_pbuttons.cold>
    dfee:	48 8d 74 24 04       	lea    0x4(%rsp),%rsi
    dff3:	ba 04 00 00 00       	mov    $0x4,%edx
    dff8:	89 df                	mov    %ebx,%edi
    dffa:	e8 41 45 ff ff       	call   2540 <read@plt>
    if (r == sizeof(buttons)) { 
    dfff:	48 83 f8 04          	cmp    $0x4,%rax
    e003:	0f 85 d4 46 ff ff    	jne    26dd <read_pbuttons.cold+0xc>
        return (~buttons) & 0xF; 
    e009:	8b 44 24 04          	mov    0x4(%rsp),%eax
    e00d:	f7 d0                	not    %eax
    e00f:	83 e0 0f             	and    $0xf,%eax
} 
    e012:	48 8b 54 24 08       	mov    0x8(%rsp),%rdx
    e017:	64 48 2b 14 25 28 00 	sub    %fs:0x28,%rdx
    e01e:	00 00 
    e020:	75 06                	jne    e028 <read_pbuttons+0x78>
    e022:	48 83 c4 10          	add    $0x10,%rsp
    e026:	5b                   	pop    %rbx
    e027:	c3                   	ret
    e028:	e8 e3 43 ff ff       	call   2410 <__stack_chk_fail@plt>
    e02d:	0f 1f 00             	nopl   (%rax)

000000000000e030 <init_joystick>:
int init_joystick(GameState *state) { 
    e030:	f3 0f 1e fa          	endbr64
    e034:	53                   	push   %rbx
    e035:	be 00 08 00 00       	mov    $0x800,%esi
    e03a:	48 8d 3d f2 11 00 00 	lea    0x11f2(%rip),%rdi        # f233 <_IO_stdin_used+0x233>
    e041:	31 c0                	xor    %eax,%eax
    e043:	e8 38 44 ff ff       	call   2480 <open@plt>
    e048:	89 c3                	mov    %eax,%ebx
    if (joy_fd == -1) { 
    e04a:	83 f8 ff             	cmp    $0xffffffff,%eax
    e04d:	74 09                	je     e058 <init_joystick+0x28>
} 
    e04f:	89 d8                	mov    %ebx,%eax
    e051:	5b                   	pop    %rbx
    e052:	c3                   	ret
    e053:	0f 1f 44 00 00       	nopl   0x0(%rax,%rax,1)
    e058:	48 8d 3d 29 14 00 00 	lea    0x1429(%rip),%rdi        # f488 <_IO_stdin_used+0x488>
    e05f:	e8 6c 45 ff ff       	call   25d0 <puts@plt>
    e064:	89 d8                	mov    %ebx,%eax
    e066:	5b                   	pop    %rbx
    e067:	c3                   	ret
    e068:	0f 1f 84 00 00 00 00 	nopl   0x0(%rax,%rax,1)
    e06f:	00 

000000000000e070 <inicializar_jogo>:
void inicializar_jogo(GameState *state) { 
    e070:	f3 0f 1e fa          	endbr64
    state->score = 0; 
    e074:	66 0f 6f 05 04 37 00 	movdqa 0x3704(%rip),%xmm0        # 11780 <g_pow43+0x360>
    e07b:	00 
    for (int i = 0; i < state->note_count; i++) { 
    e07c:	8b 8f a0 bb 00 00    	mov    0xbba0(%rdi),%ecx
    state->musica_playing = 0; 
    e082:	c7 47 14 00 00 00 00 	movl   $0x0,0x14(%rdi)
    state->score = 0; 
    e089:	0f 11 07             	movups %xmm0,(%rdi)
    for (int i = 0; i < state->note_count; i++) { 
    e08c:	85 c9                	test   %ecx,%ecx
    e08e:	7e 51                	jle    e0e1 <inicializar_jogo+0x71>
    e090:	83 f9 01             	cmp    $0x1,%ecx
    e093:	74 58                	je     e0ed <inicializar_jogo+0x7d>
    e095:	89 ca                	mov    %ecx,%edx
    e097:	48 8d 47 30          	lea    0x30(%rdi),%rax
    e09b:	d1 ea                	shr    $1,%edx
    e09d:	48 8d 14 52          	lea    (%rdx,%rdx,2),%rdx
    e0a1:	48 c1 e2 04          	shl    $0x4,%rdx
    e0a5:	48 01 c2             	add    %rax,%rdx
    e0a8:	0f 1f 84 00 00 00 00 	nopl   0x0(%rax,%rax,1)
    e0af:	00 
        state->level_notes[i].foi_processada = 0; 
    e0b0:	48 c7 00 00 00 00 00 	movq   $0x0,(%rax)
    e0b7:	48 83 c0 30          	add    $0x30,%rax
    e0bb:	48 c7 40 e8 00 00 00 	movq   $0x0,-0x18(%rax)
    e0c2:	00 
    for (int i = 0; i < state->note_count; i++) { 
    e0c3:	48 39 d0             	cmp    %rdx,%rax
    e0c6:	75 e8                	jne    e0b0 <inicializar_jogo+0x40>
    e0c8:	89 c8                	mov    %ecx,%eax
    e0ca:	83 e0 fe             	and    $0xfffffffe,%eax
    e0cd:	83 e1 01             	and    $0x1,%ecx
    e0d0:	74 0f                	je     e0e1 <inicializar_jogo+0x71>
        state->level_notes[i].foi_processada = 0; 
    e0d2:	48 98                	cltq
    e0d4:	48 8d 04 40          	lea    (%rax,%rax,2),%rax
    e0d8:	48 c7 44 c7 30 00 00 	movq   $0x0,0x30(%rdi,%rax,8)
    e0df:	00 00 
    state->joy_fd = -1; 
    e0e1:	48 c7 87 a4 bb 00 00 	movq   $0xffffffffffffffff,0xbba4(%rdi)
    e0e8:	ff ff ff ff 
} 
    e0ec:	c3                   	ret
    for (int i = 0; i < state->note_count; i++) { 
    e0ed:	31 c0                	xor    %eax,%eax
    e0ef:	eb e1                	jmp    e0d2 <inicializar_jogo+0x62>
    e0f1:	66 66 2e 0f 1f 84 00 	data16 cs nopw 0x0(%rax,%rax,1)
    e0f8:	00 00 00 00 
    e0fc:	0f 1f 40 00          	nopl   0x0(%rax)

000000000000e100 <carregar_nivel>:
void carregar_nivel(GameState *state) { 
    e100:	f3 0f 1e fa          	endbr64
    e104:	41 57                	push   %r15
    FILE *file = fopen(LEVEL_FILENAME, "r"); 
    e106:	48 8d 35 49 11 00 00 	lea    0x1149(%rip),%rsi        # f256 <_IO_stdin_used+0x256>
void carregar_nivel(GameState *state) { 
    e10d:	41 56                	push   %r14
    e10f:	41 55                	push   %r13
    e111:	41 54                	push   %r12
    e113:	55                   	push   %rbp
    e114:	53                   	push   %rbx
    e115:	48 89 fb             	mov    %rdi,%rbx
    FILE *file = fopen(LEVEL_FILENAME, "r"); 
    e118:	48 8d 3d 23 11 00 00 	lea    0x1123(%rip),%rdi        # f242 <_IO_stdin_used+0x242>
void carregar_nivel(GameState *state) { 
    e11f:	48 83 ec 28          	sub    $0x28,%rsp
    e123:	64 48 8b 04 25 28 00 	mov    %fs:0x28,%rax
    e12a:	00 00 
    e12c:	48 89 44 24 18       	mov    %rax,0x18(%rsp)
    e131:	31 c0                	xor    %eax,%eax
    FILE *file = fopen(LEVEL_FILENAME, "r"); 
    e133:	e8 58 45 ff ff       	call   2690 <fopen@plt>
    if (!file) { 
    e138:	48 85 c0             	test   %rax,%rax
    e13b:	0f 84 a3 45 ff ff    	je     26e4 <carregar_nivel.cold>
    e141:	48 89 c5             	mov    %rax,%rbp
    } 
    state->note_count = 0; 
    e144:	4c 8d 64 24 13       	lea    0x13(%rsp),%r12
    e149:	c7 83 a0 bb 00 00 00 	movl   $0x0,0xbba0(%rbx)
    e150:	00 00 00 
    float timestamp; 
    char note_name[5]; 
    
    while (fscanf(file, "%f %s", &timestamp, note_name) == 2) { 
    e153:	4c 8d 74 24 0c       	lea    0xc(%rsp),%r14
    e158:	4c 8d 2d ed 10 00 00 	lea    0x10ed(%rip),%r13        # f24c <_IO_stdin_used+0x24c>
    e15f:	90                   	nop
    e160:	31 c0                	xor    %eax,%eax
    e162:	4c 89 e1             	mov    %r12,%rcx
    e165:	4c 89 f2             	mov    %r14,%rdx
    e168:	4c 89 ee             	mov    %r13,%rsi
    e16b:	48 89 ef             	mov    %rbp,%rdi
    e16e:	e8 3d 42 ff ff       	call   23b0 <__isoc99_fscanf@plt>
    e173:	83 f8 02             	cmp    $0x2,%eax
    e176:	0f 85 84 00 00 00    	jne    e200 <carregar_nivel+0x100>
        if (state->note_count < MAX_NOTES) { 
    e17c:	48 63 83 a0 bb 00 00 	movslq 0xbba0(%rbx),%rax
    e183:	3d cf 07 00 00       	cmp    $0x7cf,%eax
    e188:	7f d6                	jg     e160 <carregar_nivel+0x60>
            int pista_mapeada = -1; 
            switch (note_name[0]) { 
    e18a:	0f b6 4c 24 13       	movzbl 0x13(%rsp),%ecx
    e18f:	8d 51 bf             	lea    -0x41(%rcx),%edx
    e192:	80 fa 06             	cmp    $0x6,%dl
    e195:	77 c9                	ja     e160 <carregar_nivel+0x60>
                case 'E': case 'F': pista_mapeada = 1; break; 
                case 'G': case 'A': pista_mapeada = 2; break; 
                case 'B': pista_mapeada = 3; break; 
            } 
            if (pista_mapeada != -1) { 
                state->level_notes[state->note_count].timestamp = timestamp; 
    e197:	f3 0f 10 44 24 0c    	movss  0xc(%rsp),%xmm0
    e19d:	48 8d 04 40          	lea    (%rax,%rax,2),%rax
    e1a1:	0f b6 d2             	movzbl %dl,%edx
    e1a4:	48 8d 35 f5 36 00 00 	lea    0x36f5(%rip),%rsi        # 118a0 <CSWTCH.58>
    e1ab:	48 c1 e0 03          	shl    $0x3,%rax
    e1af:	44 8b 3c 96          	mov    (%rsi,%rdx,4),%r15d
  return __builtin___strcpy_chk (__dest, __src, __glibc_objsize (__dest));
    e1b3:	ba 05 00 00 00       	mov    $0x5,%edx
    e1b8:	4c 89 e6             	mov    %r12,%rsi
    e1bb:	f3 0f 11 44 03 20    	movss  %xmm0,0x20(%rbx,%rax,1)
                strcpy(state->level_notes[state->note_count].note_name, note_name); 
    e1c1:	48 8d 7c 03 24       	lea    0x24(%rbx,%rax,1),%rdi
    e1c6:	e8 85 43 ff ff       	call   2550 <__strcpy_chk@plt>
                state->level_notes[state->note_count].note_index = pista_mapeada; 
    e1cb:	48 63 93 a0 bb 00 00 	movslq 0xbba0(%rbx),%rdx
    e1d2:	48 89 d0             	mov    %rdx,%rax
    e1d5:	48 8d 14 52          	lea    (%rdx,%rdx,2),%rdx
    e1d9:	48 8d 14 d3          	lea    (%rbx,%rdx,8),%rdx
                state->level_notes[state->note_count].foi_processada = 0; 
                state->level_notes[state->note_count].foi_pressionada = 0; 
                state->note_count++; 
    e1dd:	83 c0 01             	add    $0x1,%eax
                state->level_notes[state->note_count].note_index = pista_mapeada; 
    e1e0:	44 89 7a 2c          	mov    %r15d,0x2c(%rdx)
                state->level_notes[state->note_count].foi_processada = 0; 
    e1e4:	48 c7 42 30 00 00 00 	movq   $0x0,0x30(%rdx)
    e1eb:	00 
                state->note_count++; 
    e1ec:	89 83 a0 bb 00 00    	mov    %eax,0xbba0(%rbx)
    e1f2:	e9 69 ff ff ff       	jmp    e160 <carregar_nivel+0x60>
    e1f7:	66 0f 1f 84 00 00 00 	nopw   0x0(%rax,%rax,1)
    e1fe:	00 00 
            } 
        } 
    } 
    fclose(file); 
    e200:	48 89 ef             	mov    %rbp,%rdi
    e203:	e8 68 42 ff ff       	call   2470 <fclose@plt>
} 
    e208:	48 8b 44 24 18       	mov    0x18(%rsp),%rax
    e20d:	64 48 2b 04 25 28 00 	sub    %fs:0x28,%rax
    e214:	00 00 
    e216:	75 0f                	jne    e227 <carregar_nivel+0x127>
    e218:	48 83 c4 28          	add    $0x28,%rsp
    e21c:	5b                   	pop    %rbx
    e21d:	5d                   	pop    %rbp
    e21e:	41 5c                	pop    %r12
    e220:	41 5d                	pop    %r13
    e222:	41 5e                	pop    %r14
    e224:	41 5f                	pop    %r15
    e226:	c3                   	ret
    e227:	e8 e4 41 ff ff       	call   2410 <__stack_chk_fail@plt>
    e22c:	0f 1f 40 00          	nopl   0x0(%rax)

000000000000e230 <check_hits>:

void check_hits(GameState *state, int pista, double tempo_decorrido) { 
    e230:	f3 0f 1e fa          	endbr64
    e234:	55                   	push   %rbp
    e235:	48 89 fd             	mov    %rdi,%rbp
    e238:	53                   	push   %rbx
    e239:	48 83 ec 08          	sub    $0x8,%rsp
    int hit = 0; 

    for (int i = 0; i < state->note_count; i++) { 
    e23d:	8b 8f a0 bb 00 00    	mov    0xbba0(%rdi),%ecx
    e243:	85 c9                	test   %ecx,%ecx
    e245:	0f 8e a5 00 00 00    	jle    e2f0 <check_hits+0xc0>
        if (state->level_notes[i].foi_processada) continue; 
        float timestamp_nota = state->level_notes[i].timestamp; 
        int pista_nota = state->level_notes[i].note_index; 

        if ((pista == pista_nota + 1) &&  
            (tempo_decorrido > timestamp_nota - 0.15 &&  
    e24b:	f2 0f 10 1d cd 35 00 	movsd  0x35cd(%rip),%xmm3        # 11820 <g_pow43+0x400>
    e252:	00 
    e253:	48 8d 47 20          	lea    0x20(%rdi),%rax
    for (int i = 0; i < state->note_count; i++) { 
    e257:	31 db                	xor    %ebx,%ebx
    e259:	eb 14                	jmp    e26f <check_hits+0x3f>
    e25b:	0f 1f 44 00 00       	nopl   0x0(%rax,%rax,1)
    e260:	83 c3 01             	add    $0x1,%ebx
    e263:	48 83 c0 18          	add    $0x18,%rax
    e267:	39 cb                	cmp    %ecx,%ebx
    e269:	0f 84 81 00 00 00    	je     e2f0 <check_hits+0xc0>
        if (state->level_notes[i].foi_processada) continue; 
    e26f:	8b 50 10             	mov    0x10(%rax),%edx
    e272:	85 d2                	test   %edx,%edx
    e274:	75 ea                	jne    e260 <check_hits+0x30>
        if ((pista == pista_nota + 1) &&  
    e276:	8b 78 0c             	mov    0xc(%rax),%edi
    e279:	8d 57 01             	lea    0x1(%rdi),%edx
    e27c:	39 f2                	cmp    %esi,%edx
    e27e:	75 e0                	jne    e260 <check_hits+0x30>
            (tempo_decorrido > timestamp_nota - 0.15 &&  
    e280:	66 0f ef c9          	pxor   %xmm1,%xmm1
    e284:	f3 0f 5a 08          	cvtss2sd (%rax),%xmm1
    e288:	66 0f 28 d1          	movapd %xmm1,%xmm2
    e28c:	f2 0f 5c d3          	subsd  %xmm3,%xmm2
        if ((pista == pista_nota + 1) &&  
    e290:	66 0f 2f c2          	comisd %xmm2,%xmm0
    e294:	76 ca                	jbe    e260 <check_hits+0x30>
             tempo_decorrido < timestamp_nota + 0.15)) { 
    e296:	f2 0f 58 cb          	addsd  %xmm3,%xmm1
            (tempo_decorrido > timestamp_nota - 0.15 &&  
    e29a:	66 0f 2f c8          	comisd %xmm0,%xmm1
    e29e:	76 c0                	jbe    e260 <check_hits+0x30>
    e2a0:	bf 07 00 00 00       	mov    $0x7,%edi
            printf("\a"); // Beep sonoro 
            state->score += 10 * state->combo; 
            state->combo++; 
            state->consecutive_misses = 0; 
            state->level_notes[i].foi_processada = 1; 
    e2a5:	48 63 db             	movslq %ebx,%rbx
    e2a8:	e8 b3 43 ff ff       	call   2660 <putchar@plt>
            state->score += 10 * state->combo; 
    e2ad:	8b 45 04             	mov    0x4(%rbp),%eax
            state->level_notes[i].foi_pressionada = 1; 
            hit = 1; 
            flash_led(state->fd_hardware, 1); // Acende LEDs verdes 
    e2b0:	be 01 00 00 00       	mov    $0x1,%esi
            state->consecutive_misses = 0; 
    e2b5:	c7 45 08 00 00 00 00 	movl   $0x0,0x8(%rbp)
            state->score += 10 * state->combo; 
    e2bc:	8d 14 80             	lea    (%rax,%rax,4),%edx
            state->combo++; 
    e2bf:	83 c0 01             	add    $0x1,%eax
            state->score += 10 * state->combo; 
    e2c2:	01 d2                	add    %edx,%edx
    e2c4:	01 55 00             	add    %edx,0x0(%rbp)
            state->level_notes[i].foi_processada = 1; 
    e2c7:	48 8b 15 5a 35 00 00 	mov    0x355a(%rip),%rdx        # 11828 <g_pow43+0x408>
            state->combo++; 
    e2ce:	89 45 04             	mov    %eax,0x4(%rbp)
            state->level_notes[i].foi_processada = 1; 
    e2d1:	48 8d 04 5b          	lea    (%rbx,%rbx,2),%rax
    e2d5:	48 89 54 c5 30       	mov    %rdx,0x30(%rbp,%rax,8)
            flash_led(state->fd_hardware, 1); // Acende LEDs verdes 
    e2da:	8b bd ac bb 00 00    	mov    0xbbac(%rbp),%edi
            state->game_over = 1; 
            Mix_HaltMusic(); 
            state->musica_playing = 0; 
        } 
    } 
} 
    e2e0:	48 83 c4 08          	add    $0x8,%rsp
    e2e4:	5b                   	pop    %rbx
    e2e5:	5d                   	pop    %rbp
            flash_led(state->fd_hardware, 1); // Acende LEDs verdes 
    e2e6:	e9 c5 fb ff ff       	jmp    deb0 <flash_led>
    e2eb:	0f 1f 44 00 00       	nopl   0x0(%rax,%rax,1)
    if (!hit && pista != 0) { 
    e2f0:	85 f6                	test   %esi,%esi
    e2f2:	75 0c                	jne    e300 <check_hits+0xd0>
} 
    e2f4:	48 83 c4 08          	add    $0x8,%rsp
    e2f8:	5b                   	pop    %rbx
    e2f9:	5d                   	pop    %rbp
    e2fa:	c3                   	ret
    e2fb:	0f 1f 44 00 00       	nopl   0x0(%rax,%rax,1)
        state->consecutive_misses++; 
    e300:	83 45 08 01          	addl   $0x1,0x8(%rbp)
        flash_led(state->fd_hardware, 0); // Acende LEDs vermelhos 
    e304:	8b bd ac bb 00 00    	mov    0xbbac(%rbp),%edi
    e30a:	31 f6                	xor    %esi,%esi
        state->combo = 1; 
    e30c:	c7 45 04 01 00 00 00 	movl   $0x1,0x4(%rbp)
        flash_led(state->fd_hardware, 0); // Acende LEDs vermelhos 
    e313:	e8 98 fb ff ff       	call   deb0 <flash_led>
        if (state->consecutive_misses >= MAX_MISSES) { 
    e318:	83 7d 08 13          	cmpl   $0x13,0x8(%rbp)
    e31c:	7e d6                	jle    e2f4 <check_hits+0xc4>
            state->game_over = 1; 
    e31e:	c7 45 0c 01 00 00 00 	movl   $0x1,0xc(%rbp)
            Mix_HaltMusic(); 
    e325:	e8 66 42 ff ff       	call   2590 <Mix_HaltMusic@plt>
            state->musica_playing = 0; 
    e32a:	c7 45 14 00 00 00 00 	movl   $0x0,0x14(%rbp)
} 
    e331:	48 83 c4 08          	add    $0x8,%rsp
    e335:	5b                   	pop    %rbx
    e336:	5d                   	pop    %rbp
    e337:	c3                   	ret
    e338:	0f 1f 84 00 00 00 00 	nopl   0x0(%rax,%rax,1)
    e33f:	00 

000000000000e340 <process_input>:

void process_input(GameState *state, double tempo_decorrido) { 
    e340:	f3 0f 1e fa          	endbr64
    e344:	41 56                	push   %r14
    e346:	41 55                	push   %r13
    e348:	41 54                	push   %r12
    e34a:	55                   	push   %rbp
    e34b:	53                   	push   %rbx
    e34c:	48 81 ec a0 00 00 00 	sub    $0xa0,%rsp
    if (state->game_over || !state->musica_playing || game_should_exit) return; 
    e353:	8b 4f 0c             	mov    0xc(%rdi),%ecx
void process_input(GameState *state, double tempo_decorrido) { 
    e356:	64 48 8b 04 25 28 00 	mov    %fs:0x28,%rax
    e35d:	00 00 
    e35f:	48 89 84 24 98 00 00 	mov    %rax,0x98(%rsp)
    e366:	00 
    e367:	31 c0                	xor    %eax,%eax
    if (state->game_over || !state->musica_playing || game_should_exit) return; 
    e369:	85 c9                	test   %ecx,%ecx
    e36b:	75 7b                	jne    e3e8 <process_input+0xa8>
    e36d:	8b 57 14             	mov    0x14(%rdi),%edx
    e370:	48 89 fb             	mov    %rdi,%rbx
    e373:	85 d2                	test   %edx,%edx
    e375:	74 71                	je     e3e8 <process_input+0xa8>
    e377:	44 8b 25 a2 5e 00 00 	mov    0x5ea2(%rip),%r12d        # 14220 <game_should_exit>
    e37e:	45 85 e4             	test   %r12d,%r12d
    e381:	75 65                	jne    e3e8 <process_input+0xa8>
    FD_ZERO(&fds); 
    e383:	48 8d 54 24 18       	lea    0x18(%rsp),%rdx
    e388:	b9 0f 00 00 00       	mov    $0xf,%ecx
    return select(STDIN_FILENO + 1, &fds, NULL, NULL, &tv) > 0; 
    e38d:	48 89 e5             	mov    %rsp,%rbp
    FD_SET(STDIN_FILENO, &fds); 
    e390:	48 c7 44 24 10 01 00 	movq   $0x1,0x10(%rsp)
    e397:	00 00 
    FD_ZERO(&fds); 
    e399:	48 89 d7             	mov    %rdx,%rdi
    e39c:	66 49 0f 7e c6       	movq   %xmm0,%r14
    return select(STDIN_FILENO + 1, &fds, NULL, NULL, &tv) > 0; 
    e3a1:	31 d2                	xor    %edx,%edx
    e3a3:	49 89 e8             	mov    %rbp,%r8
    FD_ZERO(&fds); 
    e3a6:	f3 48 ab             	rep stos %rax,%es:(%rdi)
    struct timeval tv = {0, 0}; 
    e3a9:	66 0f ef c0          	pxor   %xmm0,%xmm0
    FD_ZERO(&fds); 
    e3ad:	48 8d 74 24 10       	lea    0x10(%rsp),%rsi
    return select(STDIN_FILENO + 1, &fds, NULL, NULL, &tv) > 0; 
    e3b2:	bf 01 00 00 00       	mov    $0x1,%edi
    struct timeval tv = {0, 0}; 
    e3b7:	0f 29 04 24          	movaps %xmm0,(%rsp)
    return select(STDIN_FILENO + 1, &fds, NULL, NULL, &tv) > 0; 
    e3bb:	e8 c0 3f ff ff       	call   2380 <select@plt>

    // 1) Teclado 
    if (kbhit()) { 
    e3c0:	85 c0                	test   %eax,%eax
    e3c2:	0f 8f 28 01 00 00    	jg     e4f0 <process_input+0x1b0>
        } 
        // Qualquer outra tecla é ignorada para evitar erros.
    } 

    // 2) Joystick 
    if (state->joy_fd != -1) { 
    e3c8:	8b bb a4 bb 00 00    	mov    0xbba4(%rbx),%edi
    e3ce:	83 ff ff             	cmp    $0xffffffff,%edi
    e3d1:	75 4c                	jne    e41f <process_input+0xdf>
            } 
        } 
    } 
    
    // 3) Push-buttons da placa 
    if (state->fd_hardware != -1) { 
    e3d3:	44 8b ab ac bb 00 00 	mov    0xbbac(%rbx),%r13d
    e3da:	41 83 fd ff          	cmp    $0xffffffff,%r13d
    e3de:	0f 85 7c 00 00 00    	jne    e460 <process_input+0x120>
    e3e4:	0f 1f 40 00          	nopl   0x0(%rax)
            if (buttons & (1 << i)) { 
                check_hits(state, i + 1, tempo_decorrido); 
            } 
        } 
    } 
} 
    e3e8:	48 8b 84 24 98 00 00 	mov    0x98(%rsp),%rax
    e3ef:	00 
    e3f0:	64 48 2b 04 25 28 00 	sub    %fs:0x28,%rax
    e3f7:	00 00 
    e3f9:	0f 85 7a 01 00 00    	jne    e579 <process_input+0x239>
    e3ff:	48 81 c4 a0 00 00 00 	add    $0xa0,%rsp
    e406:	5b                   	pop    %rbx
    e407:	5d                   	pop    %rbp
    e408:	41 5c                	pop    %r12
    e40a:	41 5d                	pop    %r13
    e40c:	41 5e                	pop    %r14
    e40e:	c3                   	ret
    e40f:	90                   	nop
            if (e.type == JS_EVENT_BUTTON && e.value == 1 && e.number < 4) { 
    e410:	0f b6 44 24 07       	movzbl 0x7(%rsp),%eax
    e415:	3c 03                	cmp    $0x3,%al
    e417:	76 2f                	jbe    e448 <process_input+0x108>
        while (read(state->joy_fd, &e, sizeof(e)) > 0) { 
    e419:	8b bb a4 bb 00 00    	mov    0xbba4(%rbx),%edi
    e41f:	ba 08 00 00 00       	mov    $0x8,%edx
    e424:	48 89 ee             	mov    %rbp,%rsi
    e427:	e8 14 41 ff ff       	call   2540 <read@plt>
    e42c:	48 85 c0             	test   %rax,%rax
    e42f:	7e a2                	jle    e3d3 <process_input+0x93>
            if (e.type == JS_EVENT_BUTTON && e.value == 1 && e.number < 4) { 
    e431:	8b 44 24 04          	mov    0x4(%rsp),%eax
    e435:	25 ff ff ff 00       	and    $0xffffff,%eax
    e43a:	3d 01 00 01 00       	cmp    $0x10001,%eax
    e43f:	75 d8                	jne    e419 <process_input+0xd9>
    e441:	eb cd                	jmp    e410 <process_input+0xd0>
    e443:	0f 1f 44 00 00       	nopl   0x0(%rax,%rax,1)
                check_hits(state, e.number + 1, tempo_decorrido); 
    e448:	8d 70 01             	lea    0x1(%rax),%esi
    e44b:	66 49 0f 6e c6       	movq   %r14,%xmm0
    e450:	48 89 df             	mov    %rbx,%rdi
    e453:	e8 d8 fd ff ff       	call   e230 <check_hits>
    e458:	eb bf                	jmp    e419 <process_input+0xd9>
    e45a:	66 0f 1f 44 00 00    	nopw   0x0(%rax,%rax,1)
    if (ioctl(fd, RD_PBUTTONS) < 0) { 
    e460:	31 c0                	xor    %eax,%eax
    e462:	be 62 61 00 00       	mov    $0x6162,%esi
    e467:	44 89 ef             	mov    %r13d,%edi
    uint32_t buttons = 0; 
    e46a:	c7 04 24 00 00 00 00 	movl   $0x0,(%rsp)
    if (ioctl(fd, RD_PBUTTONS) < 0) { 
    e471:	e8 2a 3f ff ff       	call   23a0 <ioctl@plt>
    e476:	85 c0                	test   %eax,%eax
    e478:	0f 88 7c 42 ff ff    	js     26fa <process_input.cold>
    e47e:	ba 04 00 00 00       	mov    $0x4,%edx
    e483:	48 89 ee             	mov    %rbp,%rsi
    e486:	44 89 ef             	mov    %r13d,%edi
    e489:	e8 b2 40 ff ff       	call   2540 <read@plt>
    if (r == sizeof(buttons)) { 
    e48e:	48 83 f8 04          	cmp    $0x4,%rax
    e492:	0f 84 88 00 00 00    	je     e520 <process_input+0x1e0>
            if (buttons & (1 << i)) { 
    e498:	41 f6 c4 02          	test   $0x2,%r12b
    e49c:	0f 85 c0 00 00 00    	jne    e562 <process_input+0x222>
    e4a2:	41 f6 c4 04          	test   $0x4,%r12b
    e4a6:	0f 85 9f 00 00 00    	jne    e54b <process_input+0x20b>
    e4ac:	41 c1 ec 03          	shr    $0x3,%r12d
    e4b0:	0f 84 32 ff ff ff    	je     e3e8 <process_input+0xa8>
                check_hits(state, i + 1, tempo_decorrido); 
    e4b6:	48 8b 84 24 98 00 00 	mov    0x98(%rsp),%rax
    e4bd:	00 
    e4be:	64 48 2b 04 25 28 00 	sub    %fs:0x28,%rax
    e4c5:	00 00 
    e4c7:	0f 85 ac 00 00 00    	jne    e579 <process_input+0x239>
} 
    e4cd:	48 81 c4 a0 00 00 00 	add    $0xa0,%rsp
                check_hits(state, i + 1, tempo_decorrido); 
    e4d4:	66 49 0f 6e c6       	movq   %r14,%xmm0
    e4d9:	48 89 df             	mov    %rbx,%rdi
    e4dc:	be 04 00 00 00       	mov    $0x4,%esi
} 
    e4e1:	5b                   	pop    %rbx
    e4e2:	5d                   	pop    %rbp
    e4e3:	41 5c                	pop    %r12
    e4e5:	41 5d                	pop    %r13
    e4e7:	41 5e                	pop    %r14
                check_hits(state, i + 1, tempo_decorrido); 
    e4e9:	e9 42 fd ff ff       	jmp    e230 <check_hits>
    e4ee:	66 90                	xchg   %ax,%ax

/* Read a character from stdin.  */
__STDIO_INLINE int
getchar (void)
{
  return getc (stdin);
    e4f0:	48 8b 3d f9 5c 00 00 	mov    0x5cf9(%rip),%rdi        # 141f0 <stdin@GLIBC_2.2.5>
    e4f7:	e8 64 3f ff ff       	call   2460 <getc@plt>
        if (ch >= '1' && ch <= '4') { 
    e4fc:	8d 50 cf             	lea    -0x31(%rax),%edx
    e4ff:	80 fa 03             	cmp    $0x3,%dl
    e502:	0f 87 c0 fe ff ff    	ja     e3c8 <process_input+0x88>
            check_hits(state, ch - '0', tempo_decorrido); 
    e508:	0f be c0             	movsbl %al,%eax
    e50b:	66 49 0f 6e c6       	movq   %r14,%xmm0
    e510:	48 89 df             	mov    %rbx,%rdi
    e513:	8d 70 d0             	lea    -0x30(%rax),%esi
    e516:	e8 15 fd ff ff       	call   e230 <check_hits>
    e51b:	e9 a8 fe ff ff       	jmp    e3c8 <process_input+0x88>
        return (~buttons) & 0xF; 
    e520:	8b 04 24             	mov    (%rsp),%eax
    e523:	f7 d0                	not    %eax
    e525:	41 89 c4             	mov    %eax,%r12d
    e528:	41 83 e4 0f          	and    $0xf,%r12d
            if (buttons & (1 << i)) { 
    e52c:	a8 01                	test   $0x1,%al
    e52e:	0f 84 64 ff ff ff    	je     e498 <process_input+0x158>
                check_hits(state, i + 1, tempo_decorrido); 
    e534:	66 49 0f 6e c6       	movq   %r14,%xmm0
    e539:	be 01 00 00 00       	mov    $0x1,%esi
    e53e:	48 89 df             	mov    %rbx,%rdi
    e541:	e8 ea fc ff ff       	call   e230 <check_hits>
    e546:	e9 4d ff ff ff       	jmp    e498 <process_input+0x158>
    e54b:	66 49 0f 6e c6       	movq   %r14,%xmm0
    e550:	be 03 00 00 00       	mov    $0x3,%esi
    e555:	48 89 df             	mov    %rbx,%rdi
    e558:	e8 d3 fc ff ff       	call   e230 <check_hits>
    e55d:	e9 4a ff ff ff       	jmp    e4ac <process_input+0x16c>
    e562:	66 49 0f 6e c6       	movq   %r14,%xmm0
    e567:	be 02 00 00 00       	mov    $0x2,%esi
    e56c:	48 89 df             	mov    %rbx,%rdi
    e56f:	e8 bc fc ff ff       	call   e230 <check_hits>
    e574:	e9 29 ff ff ff       	jmp    e4a2 <process_input+0x162>
} 
    e579:	e8 92 3e ff ff       	call   2410 <__stack_chk_fail@plt>
    e57e:	66 90                	xchg   %ax,%ax

000000000000e580 <update_game>:

void update_game(GameState *state, double tempo_decorrido) { 
    e580:	f3 0f 1e fa          	endbr64
    e584:	41 54                	push   %r12
    e586:	49 89 fc             	mov    %rdi,%r12
    e589:	55                   	push   %rbp
    e58a:	53                   	push   %rbx
    e58b:	48 83 ec 10          	sub    $0x10,%rsp
    for (int i = 0; i < state->note_count; i++) { 
    e58f:	8b 87 a0 bb 00 00    	mov    0xbba0(%rdi),%eax
                    state->musica_playing = 0; 
                } 
            } 
        } 
    } 
    update_displays(state->fd_hardware, state->score, state->consecutive_misses); 
    e595:	8b 57 08             	mov    0x8(%rdi),%edx
    for (int i = 0; i < state->note_count; i++) { 
    e598:	85 c0                	test   %eax,%eax
    e59a:	7e 4f                	jle    e5eb <update_game+0x6b>
            tempo_decorrido > state->level_notes[i].timestamp + 0.15) { 
    e59c:	f2 0f 10 15 7c 32 00 	movsd  0x327c(%rip),%xmm2        # 11820 <g_pow43+0x400>
    e5a3:	00 
    e5a4:	48 8d 5f 20          	lea    0x20(%rdi),%rbx
    for (int i = 0; i < state->note_count; i++) { 
    e5a8:	31 ed                	xor    %ebp,%ebp
    e5aa:	66 0f 1f 44 00 00    	nopw   0x0(%rax,%rax,1)
        if (!state->level_notes[i].foi_processada &&  
    e5b0:	8b 73 10             	mov    0x10(%rbx),%esi
    e5b3:	85 f6                	test   %esi,%esi
    e5b5:	75 29                	jne    e5e0 <update_game+0x60>
            tempo_decorrido > state->level_notes[i].timestamp + 0.15) { 
    e5b7:	66 0f ef c9          	pxor   %xmm1,%xmm1
    e5bb:	f3 0f 5a 0b          	cvtss2sd (%rbx),%xmm1
    e5bf:	f2 0f 58 ca          	addsd  %xmm2,%xmm1
        if (!state->level_notes[i].foi_processada &&  
    e5c3:	66 0f 2f c1          	comisd %xmm1,%xmm0
    e5c7:	76 17                	jbe    e5e0 <update_game+0x60>
            if (!state->level_notes[i].foi_pressionada) { 
    e5c9:	8b 4b 14             	mov    0x14(%rbx),%ecx
                flash_led(state->fd_hardware, 0); // LED vermelho (erro por não apertar a tempo) 
    e5cc:	41 8b bc 24 ac bb 00 	mov    0xbbac(%r12),%edi
    e5d3:	00 
            state->level_notes[i].foi_processada = 1; 
    e5d4:	c7 43 10 01 00 00 00 	movl   $0x1,0x10(%rbx)
            if (!state->level_notes[i].foi_pressionada) { 
    e5db:	85 c9                	test   %ecx,%ecx
    e5dd:	74 31                	je     e610 <update_game+0x90>
    e5df:	90                   	nop
    for (int i = 0; i < state->note_count; i++) { 
    e5e0:	83 c5 01             	add    $0x1,%ebp
    e5e3:	48 83 c3 18          	add    $0x18,%rbx
    e5e7:	39 c5                	cmp    %eax,%ebp
    e5e9:	7c c5                	jl     e5b0 <update_game+0x30>
    update_displays(state->fd_hardware, state->score, state->consecutive_misses); 
    e5eb:	41 8b bc 24 ac bb 00 	mov    0xbbac(%r12),%edi
    e5f2:	00 
    if (fd == -1) return; 
    e5f3:	83 ff ff             	cmp    $0xffffffff,%edi
    e5f6:	0f 84 94 00 00 00    	je     e690 <update_game+0x110>
    e5fc:	41 8b 34 24          	mov    (%r12),%esi
} 
    e600:	48 83 c4 10          	add    $0x10,%rsp
    e604:	5b                   	pop    %rbx
    e605:	5d                   	pop    %rbp
    e606:	41 5c                	pop    %r12
    e608:	e9 d3 f3 ff ff       	jmp    d9e0 <update_displays.part.0>
    e60d:	0f 1f 00             	nopl   (%rax)
                state->consecutive_misses++; 
    e610:	83 c2 01             	add    $0x1,%edx
                flash_led(state->fd_hardware, 0); // LED vermelho (erro por não apertar a tempo) 
    e613:	31 f6                	xor    %esi,%esi
    e615:	f2 0f 11 44 24 08    	movsd  %xmm0,0x8(%rsp)
                state->consecutive_misses++; 
    e61b:	41 89 54 24 08       	mov    %edx,0x8(%r12)
                state->combo = 1; 
    e620:	41 c7 44 24 04 01 00 	movl   $0x1,0x4(%r12)
    e627:	00 00 
                flash_led(state->fd_hardware, 0); // LED vermelho (erro por não apertar a tempo) 
    e629:	e8 82 f8 ff ff       	call   deb0 <flash_led>
                if (state->consecutive_misses >= MAX_MISSES) { 
    e62e:	41 8b 54 24 08       	mov    0x8(%r12),%edx
    e633:	f2 0f 10 44 24 08    	movsd  0x8(%rsp),%xmm0
    e639:	f2 0f 10 15 df 31 00 	movsd  0x31df(%rip),%xmm2        # 11820 <g_pow43+0x400>
    e640:	00 
    e641:	83 fa 13             	cmp    $0x13,%edx
    e644:	7f 0a                	jg     e650 <update_game+0xd0>
    for (int i = 0; i < state->note_count; i++) { 
    e646:	41 8b 84 24 a0 bb 00 	mov    0xbba0(%r12),%eax
    e64d:	00 
    e64e:	eb 90                	jmp    e5e0 <update_game+0x60>
                    state->game_over = 1; 
    e650:	41 c7 44 24 0c 01 00 	movl   $0x1,0xc(%r12)
    e657:	00 00 
    e659:	f2 0f 11 44 24 08    	movsd  %xmm0,0x8(%rsp)
                    Mix_HaltMusic(); 
    e65f:	e8 2c 3f ff ff       	call   2590 <Mix_HaltMusic@plt>
    update_displays(state->fd_hardware, state->score, state->consecutive_misses); 
    e664:	41 8b 54 24 08       	mov    0x8(%r12),%edx
                    state->musica_playing = 0; 
    e669:	41 c7 44 24 14 00 00 	movl   $0x0,0x14(%r12)
    e670:	00 00 
    for (int i = 0; i < state->note_count; i++) { 
    e672:	41 8b 84 24 a0 bb 00 	mov    0xbba0(%r12),%eax
    e679:	00 
    update_displays(state->fd_hardware, state->score, state->consecutive_misses); 
    e67a:	f2 0f 10 15 9e 31 00 	movsd  0x319e(%rip),%xmm2        # 11820 <g_pow43+0x400>
    e681:	00 
    e682:	f2 0f 10 44 24 08    	movsd  0x8(%rsp),%xmm0
    e688:	e9 53 ff ff ff       	jmp    e5e0 <update_game+0x60>
    e68d:	0f 1f 00             	nopl   (%rax)
} 
    e690:	48 83 c4 10          	add    $0x10,%rsp
    e694:	5b                   	pop    %rbx
    e695:	5d                   	pop    %rbp
    e696:	41 5c                	pop    %r12
    e698:	c3                   	ret
    e699:	0f 1f 80 00 00 00 00 	nopl   0x0(%rax)

000000000000e6a0 <render_game>:

void render_game(GameState *state, double tempo_decorrido) { 
    e6a0:	f3 0f 1e fa          	endbr64
    e6a4:	41 57                	push   %r15
    e6a6:	41 56                	push   %r14
    e6a8:	41 55                	push   %r13
    e6aa:	41 54                	push   %r12
    e6ac:	66 49 0f 7e c4       	movq   %xmm0,%r12
    e6b1:	55                   	push   %rbp
    e6b2:	53                   	push   %rbx
    e6b3:	48 81 ec 88 00 00 00 	sub    $0x88,%rsp
    e6ba:	48 89 7c 24 08       	mov    %rdi,0x8(%rsp)
    if (system("clear") != 0) { 
    e6bf:	48 8d 3d 8c 0b 00 00 	lea    0xb8c(%rip),%rdi        # f252 <_IO_stdin_used+0x252>
void render_game(GameState *state, double tempo_decorrido) { 
    e6c6:	64 48 8b 04 25 28 00 	mov    %fs:0x28,%rax
    e6cd:	00 00 
    e6cf:	48 89 44 24 78       	mov    %rax,0x78(%rsp)
    e6d4:	31 c0                	xor    %eax,%eax
    if (system("clear") != 0) { 
    e6d6:	e8 d5 3f ff ff       	call   26b0 <system@plt>
    e6db:	85 c0                	test   %eax,%eax
    e6dd:	0f 85 36 03 00 00    	jne    ea19 <render_game+0x379>
    e6e3:	48 8d 5c 24 10       	lea    0x10(%rsp),%rbx
    e6e8:	48 8d 6c 24 74       	lea    0x74(%rsp),%rbp
void render_game(GameState *state, double tempo_decorrido) { 
    e6ed:	48 89 d8             	mov    %rbx,%rax
  return __builtin___sprintf_chk (__s, __USE_FORTIFY_LEVEL - 1,
    e6f0:	c7 00 20 20 20 20    	movl   $0x20202020,(%rax)
        fprintf(stderr, "Falha ao limpar tela\n"); 
    } 
    char pista_visual[ALTURA_DA_PISTA][5]; 
    for (int i = 0; i < ALTURA_DA_PISTA; i++) { 
    e6f6:	48 83 c0 05          	add    $0x5,%rax
    e6fa:	c6 40 ff 00          	movb   $0x0,-0x1(%rax)
    e6fe:	48 39 e8             	cmp    %rbp,%rax
    e701:	75 ed                	jne    e6f0 <render_game+0x50>
        sprintf(pista_visual[i], "    "); 
    } 
    double tempo_ajustado = tempo_decorrido > 0.5f ? tempo_decorrido - 0.5f : 0; 
    e703:	f2 0f 10 05 25 31 00 	movsd  0x3125(%rip),%xmm0        # 11830 <g_pow43+0x410>
    e70a:	00 
    e70b:	66 49 0f 6e ec       	movq   %r12,%xmm5
    e710:	66 0f 2f e8          	comisd %xmm0,%xmm5
    e714:	0f 86 8a 02 00 00    	jbe    e9a4 <render_game+0x304>
    e71a:	66 49 0f 6e f4       	movq   %r12,%xmm6
    e71f:	f2 0f 5c f0          	subsd  %xmm0,%xmm6
    e723:	f2 0f 11 34 24       	movsd  %xmm6,(%rsp)
    for (int i = 0; i < state->note_count; i++) { 
    e728:	48 8b 44 24 08       	mov    0x8(%rsp),%rax
    e72d:	48 63 90 a0 bb 00 00 	movslq 0xbba0(%rax),%rdx
    e734:	85 d2                	test   %edx,%edx
    e736:	0f 8e 8d 00 00 00    	jle    e7c9 <render_game+0x129>
    e73c:	48 83 c0 20          	add    $0x20,%rax
    e740:	48 8d 14 52          	lea    (%rdx,%rdx,2),%rdx
        if (!state->level_notes[i].foi_processada) { 
            float tempo_da_nota = state->level_notes[i].timestamp; 
            float dist_temporal = tempo_da_nota - tempo_ajustado; 
            if (dist_temporal >= 0 && dist_temporal < TEMPO_DE_ANTEVISAO) { 
    e744:	66 0f ef c9          	pxor   %xmm1,%xmm1
    e748:	f3 0f 10 15 c4 09 00 	movss  0x9c4(%rip),%xmm2        # f114 <_IO_stdin_used+0x114>
    e74f:	00 
                int linha = ALTURA_DA_PISTA - 1 - (int)((dist_temporal / TEMPO_DE_ANTEVISAO) * ALTURA_DA_PISTA); 
    e750:	f3 0f 10 1d c0 09 00 	movss  0x9c0(%rip),%xmm3        # f118 <_IO_stdin_used+0x118>
    e757:	00 
    e758:	48 8d 14 d0          	lea    (%rax,%rdx,8),%rdx
    e75c:	bf 13 00 00 00       	mov    $0x13,%edi
    e761:	0f 1f 80 00 00 00 00 	nopl   0x0(%rax)
        if (!state->level_notes[i].foi_processada) { 
    e768:	8b 48 10             	mov    0x10(%rax),%ecx
    e76b:	85 c9                	test   %ecx,%ecx
    e76d:	75 51                	jne    e7c0 <render_game+0x120>
            float dist_temporal = tempo_da_nota - tempo_ajustado; 
    e76f:	66 0f ef c0          	pxor   %xmm0,%xmm0
    e773:	f3 0f 5a 00          	cvtss2sd (%rax),%xmm0
    e777:	f2 0f 5c 04 24       	subsd  (%rsp),%xmm0
    e77c:	f2 0f 5a c0          	cvtsd2ss %xmm0,%xmm0
            if (dist_temporal >= 0 && dist_temporal < TEMPO_DE_ANTEVISAO) { 
    e780:	0f 2f c1             	comiss %xmm1,%xmm0
    e783:	72 3b                	jb     e7c0 <render_game+0x120>
    e785:	0f 2f d0             	comiss %xmm0,%xmm2
    e788:	76 36                	jbe    e7c0 <render_game+0x120>
                int linha = ALTURA_DA_PISTA - 1 - (int)((dist_temporal / TEMPO_DE_ANTEVISAO) * ALTURA_DA_PISTA); 
    e78a:	f3 0f 5e c2          	divss  %xmm2,%xmm0
    e78e:	89 f9                	mov    %edi,%ecx
    e790:	f3 0f 59 c3          	mulss  %xmm3,%xmm0
    e794:	f3 0f 2c f0          	cvttss2si %xmm0,%esi
    e798:	29 f1                	sub    %esi,%ecx
                if (linha >= 0 && linha < ALTURA_DA_PISTA) { 
    e79a:	83 f9 13             	cmp    $0x13,%ecx
    e79d:	77 21                	ja     e7c0 <render_game+0x120>
                    int pista_da_nota = state->level_notes[i].note_index; 
    e79f:	4c 63 40 0c          	movslq 0xc(%rax),%r8
                    pista_visual[linha][pista_da_nota] = (pista_da_nota + 1) + '0'; 
    e7a3:	48 63 c9             	movslq %ecx,%rcx
    e7a6:	48 8d 0c 89          	lea    (%rcx,%rcx,4),%rcx
                    int pista_da_nota = state->level_notes[i].note_index; 
    e7aa:	4c 89 c6             	mov    %r8,%rsi
                    pista_visual[linha][pista_da_nota] = (pista_da_nota + 1) + '0'; 
    e7ad:	48 83 e9 80          	sub    $0xffffffffffffff80,%rcx
    e7b1:	48 01 e1             	add    %rsp,%rcx
    e7b4:	83 c6 31             	add    $0x31,%esi
    e7b7:	41 88 74 08 90       	mov    %sil,-0x70(%r8,%rcx,1)
    e7bc:	0f 1f 40 00          	nopl   0x0(%rax)
    for (int i = 0; i < state->note_count; i++) { 
    e7c0:	48 83 c0 18          	add    $0x18,%rax
    e7c4:	48 39 d0             	cmp    %rdx,%rax
    e7c7:	75 9f                	jne    e768 <render_game+0xc8>
  return __printf_chk (__USE_FORTIFY_LEVEL - 1, __fmt, __va_arg_pack ());
    e7c9:	48 8d 35 18 0d 00 00 	lea    0xd18(%rip),%rsi        # f4e8 <_IO_stdin_used+0x4e8>
    e7d0:	bf 02 00 00 00       	mov    $0x2,%edi
    e7d5:	31 c0                	xor    %eax,%eax
    e7d7:	e8 24 3e ff ff       	call   2600 <__printf_chk@plt>
    e7dc:	48 8d 3d 8b 0a 00 00 	lea    0xa8b(%rip),%rdi        # f26e <_IO_stdin_used+0x26e>
    e7e3:	4c 8d 3d a7 0a 00 00 	lea    0xaa7(%rip),%r15        # f291 <_IO_stdin_used+0x291>
    e7ea:	e8 e1 3d ff ff       	call   25d0 <puts@plt>
    e7ef:	4c 8d 35 a7 0a 00 00 	lea    0xaa7(%rip),%r14        # f29d <_IO_stdin_used+0x29d>
    e7f6:	4c 8d 2d 88 0a 00 00 	lea    0xa88(%rip),%r13        # f285 <_IO_stdin_used+0x285>
    e7fd:	0f 1f 00             	nopl   (%rax)
    e800:	bf 7c 00 00 00       	mov    $0x7c,%edi
    e805:	45 31 e4             	xor    %r12d,%r12d
    e808:	e8 53 3e ff ff       	call   2660 <putchar@plt>
            COLOR_YELLOW "4\n" COLOR_RESET); 
    printf("+--------+\n"); 
    for (int i = 0; i < ALTURA_DA_PISTA; i++) { 
        printf("|"); 
        for (int j = 0; j < 4; j++) { 
            char note = pista_visual[i][j]; 
    e80d:	42 0f be 14 23       	movsbl (%rbx,%r12,1),%edx
            if (note != ' ') { 
    e812:	80 fa 20             	cmp    $0x20,%dl
    e815:	74 51                	je     e868 <render_game+0x1c8>
                switch (j) { 
    e817:	49 83 fc 02          	cmp    $0x2,%r12
    e81b:	0f 84 5f 01 00 00    	je     e980 <render_game+0x2e0>
    e821:	49 83 fc 03          	cmp    $0x3,%r12
    e825:	0f 84 2d 01 00 00    	je     e958 <render_game+0x2b8>
    e82b:	49 83 fc 01          	cmp    $0x1,%r12
    e82f:	0f 84 fb 00 00 00    	je     e930 <render_game+0x290>
    e835:	48 8d 35 3d 0a 00 00 	lea    0xa3d(%rip),%rsi        # f279 <_IO_stdin_used+0x279>
    e83c:	bf 02 00 00 00       	mov    $0x2,%edi
    e841:	31 c0                	xor    %eax,%eax
        for (int j = 0; j < 4; j++) { 
    e843:	41 bc 01 00 00 00    	mov    $0x1,%r12d
    e849:	e8 b2 3d ff ff       	call   2600 <__printf_chk@plt>
    e84e:	bf 7c 00 00 00       	mov    $0x7c,%edi
    e853:	e8 08 3e ff ff       	call   2660 <putchar@plt>
            char note = pista_visual[i][j]; 
    e858:	42 0f be 14 23       	movsbl (%rbx,%r12,1),%edx
            if (note != ' ') { 
    e85d:	80 fa 20             	cmp    $0x20,%dl
    e860:	75 b5                	jne    e817 <render_game+0x177>
    e862:	66 0f 1f 44 00 00    	nopw   0x0(%rax,%rax,1)
    e868:	bf 20 00 00 00       	mov    $0x20,%edi
        for (int j = 0; j < 4; j++) { 
    e86d:	49 83 c4 01          	add    $0x1,%r12
    e871:	e8 ea 3d ff ff       	call   2660 <putchar@plt>
    e876:	bf 7c 00 00 00       	mov    $0x7c,%edi
    e87b:	e8 e0 3d ff ff       	call   2660 <putchar@plt>
    e880:	49 83 fc 04          	cmp    $0x4,%r12
    e884:	75 87                	jne    e80d <render_game+0x16d>
    e886:	bf 0a 00 00 00       	mov    $0xa,%edi
    for (int i = 0; i < ALTURA_DA_PISTA; i++) { 
    e88b:	48 83 c3 05          	add    $0x5,%rbx
    e88f:	e8 cc 3d ff ff       	call   2660 <putchar@plt>
    e894:	48 39 eb             	cmp    %rbp,%rbx
    e897:	0f 85 63 ff ff ff    	jne    e800 <render_game+0x160>
    e89d:	48 8d 3d 84 0c 00 00 	lea    0xc84(%rip),%rdi        # f528 <_IO_stdin_used+0x528>
    e8a4:	e8 27 3d ff ff       	call   25d0 <puts@plt>
    e8a9:	48 8b 5c 24 08       	mov    0x8(%rsp),%rbx
    e8ae:	f2 0f 10 04 24       	movsd  (%rsp),%xmm0
    e8b3:	41 b9 14 00 00 00    	mov    $0x14,%r9d
    e8b9:	48 8d 35 88 0c 00 00 	lea    0xc88(%rip),%rsi        # f548 <_IO_stdin_used+0x548>
    e8c0:	bf 02 00 00 00       	mov    $0x2,%edi
    e8c5:	b8 01 00 00 00       	mov    $0x1,%eax
    e8ca:	8b 13                	mov    (%rbx),%edx
    e8cc:	8b 4b 04             	mov    0x4(%rbx),%ecx
    e8cf:	44 8b 43 08          	mov    0x8(%rbx),%r8d
    e8d3:	e8 28 3d ff ff       	call   2600 <__printf_chk@plt>
    } 
    printf("+--------+  <-- ZONA DE ACERTO\n"); 
    printf("Tempo: %.2f s | Pontos: %d | Combo: x%d | Erros: %d/%d\n",  
            tempo_ajustado, state->score, state->combo,  
            state->consecutive_misses, MAX_MISSES); 
    if (state->game_over) { 
    e8d8:	8b 53 0c             	mov    0xc(%rbx),%edx
    e8db:	85 d2                	test   %edx,%edx
    e8dd:	0f 85 02 01 00 00    	jne    e9e5 <render_game+0x345>
        printf("\n\033[31mGAME OVER! Você errou 20 vezes consecutivas.\033[0m\n"); 
        printf("\033[33mPontuação final: %d\033[0m\n", state->score); 
        printf("Pressione qualquer tecla para sair...\n"); 
    } else if (game_should_exit) {
    e8e3:	8b 05 37 59 00 00    	mov    0x5937(%rip),%eax        # 14220 <game_should_exit>
    e8e9:	85 c0                	test   %eax,%eax
    e8eb:	0f 85 c0 00 00 00    	jne    e9b1 <render_game+0x311>
        printf("\n\033[31mJogo encerrado pelo usuário.\033[0m\n");
        printf("Pressione qualquer tecla para sair...\n");
    }
    
    // Certifique-se de que a tela não é atualizada se o jogo já terminou ou foi encerrado
    if (state->game_over || game_should_exit) {
    e8f1:	8b 05 29 59 00 00    	mov    0x5929(%rip),%eax        # 14220 <game_should_exit>
        fflush(stdout);
        // Não faz nada para não piscar a tela
    } else {
        fflush(stdout);
    e8f7:	48 8b 3d c2 58 00 00 	mov    0x58c2(%rip),%rdi        # 141c0 <stdout@GLIBC_2.2.5>
    e8fe:	e8 ad 3b ff ff       	call   24b0 <fflush@plt>
    }
} 
    e903:	48 8b 44 24 78       	mov    0x78(%rsp),%rax
    e908:	64 48 2b 04 25 28 00 	sub    %fs:0x28,%rax
    e90f:	00 00 
    e911:	0f 85 24 01 00 00    	jne    ea3b <render_game+0x39b>
    e917:	48 81 c4 88 00 00 00 	add    $0x88,%rsp
    e91e:	5b                   	pop    %rbx
    e91f:	5d                   	pop    %rbp
    e920:	41 5c                	pop    %r12
    e922:	41 5d                	pop    %r13
    e924:	41 5e                	pop    %r14
    e926:	41 5f                	pop    %r15
    e928:	c3                   	ret
    e929:	0f 1f 80 00 00 00 00 	nopl   0x0(%rax)
    e930:	4c 89 ee             	mov    %r13,%rsi
    e933:	bf 02 00 00 00       	mov    $0x2,%edi
    e938:	31 c0                	xor    %eax,%eax
        for (int j = 0; j < 4; j++) { 
    e93a:	41 bc 02 00 00 00    	mov    $0x2,%r12d
    e940:	e8 bb 3c ff ff       	call   2600 <__printf_chk@plt>
    e945:	bf 7c 00 00 00       	mov    $0x7c,%edi
    e94a:	e8 11 3d ff ff       	call   2660 <putchar@plt>
    e94f:	e9 b9 fe ff ff       	jmp    e80d <render_game+0x16d>
    e954:	0f 1f 40 00          	nopl   0x0(%rax)
    e958:	4c 89 f6             	mov    %r14,%rsi
    e95b:	bf 02 00 00 00       	mov    $0x2,%edi
    e960:	31 c0                	xor    %eax,%eax
    e962:	e8 99 3c ff ff       	call   2600 <__printf_chk@plt>
    e967:	bf 7c 00 00 00       	mov    $0x7c,%edi
    e96c:	e8 ef 3c ff ff       	call   2660 <putchar@plt>
    e971:	e9 10 ff ff ff       	jmp    e886 <render_game+0x1e6>
    e976:	66 2e 0f 1f 84 00 00 	cs nopw 0x0(%rax,%rax,1)
    e97d:	00 00 00 
    e980:	4c 89 fe             	mov    %r15,%rsi
    e983:	bf 02 00 00 00       	mov    $0x2,%edi
    e988:	31 c0                	xor    %eax,%eax
    e98a:	41 bc 03 00 00 00    	mov    $0x3,%r12d
    e990:	e8 6b 3c ff ff       	call   2600 <__printf_chk@plt>
    e995:	bf 7c 00 00 00       	mov    $0x7c,%edi
    e99a:	e8 c1 3c ff ff       	call   2660 <putchar@plt>
    e99f:	e9 69 fe ff ff       	jmp    e80d <render_game+0x16d>
    double tempo_ajustado = tempo_decorrido > 0.5f ? tempo_decorrido - 0.5f : 0; 
    e9a4:	48 c7 04 24 00 00 00 	movq   $0x0,(%rsp)
    e9ab:	00 
    e9ac:	e9 77 fd ff ff       	jmp    e728 <render_game+0x88>
    e9b1:	48 8d 3d 48 0c 00 00 	lea    0xc48(%rip),%rdi        # f600 <_IO_stdin_used+0x600>
    e9b8:	e8 13 3c ff ff       	call   25d0 <puts@plt>
    e9bd:	48 8d 3d 14 0c 00 00 	lea    0xc14(%rip),%rdi        # f5d8 <_IO_stdin_used+0x5d8>
    e9c4:	e8 07 3c ff ff       	call   25d0 <puts@plt>
    if (state->game_over || game_should_exit) {
    e9c9:	48 8b 44 24 08       	mov    0x8(%rsp),%rax
    e9ce:	8b 40 0c             	mov    0xc(%rax),%eax
    e9d1:	85 c0                	test   %eax,%eax
    e9d3:	0f 84 18 ff ff ff    	je     e8f1 <render_game+0x251>
    e9d9:	48 8b 3d e0 57 00 00 	mov    0x57e0(%rip),%rdi        # 141c0 <stdout@GLIBC_2.2.5>
        fflush(stdout);
    e9e0:	e9 19 ff ff ff       	jmp    e8fe <render_game+0x25e>
    e9e5:	48 8d 3d 94 0b 00 00 	lea    0xb94(%rip),%rdi        # f580 <_IO_stdin_used+0x580>
    e9ec:	e8 df 3b ff ff       	call   25d0 <puts@plt>
    e9f1:	48 8b 44 24 08       	mov    0x8(%rsp),%rax
    e9f6:	bf 02 00 00 00       	mov    $0x2,%edi
    e9fb:	48 8d 35 b6 0b 00 00 	lea    0xbb6(%rip),%rsi        # f5b8 <_IO_stdin_used+0x5b8>
    ea02:	8b 10                	mov    (%rax),%edx
    ea04:	31 c0                	xor    %eax,%eax
    ea06:	e8 f5 3b ff ff       	call   2600 <__printf_chk@plt>
    ea0b:	48 8d 3d c6 0b 00 00 	lea    0xbc6(%rip),%rdi        # f5d8 <_IO_stdin_used+0x5d8>
    ea12:	e8 b9 3b ff ff       	call   25d0 <puts@plt>
    ea17:	eb b0                	jmp    e9c9 <render_game+0x329>
  return __fprintf_chk (__stream, __USE_FORTIFY_LEVEL - 1, __fmt,
    ea19:	48 8b 0d c0 57 00 00 	mov    0x57c0(%rip),%rcx        # 141e0 <stderr@GLIBC_2.2.5>
    ea20:	ba 15 00 00 00       	mov    $0x15,%edx
    ea25:	be 01 00 00 00       	mov    $0x1,%esi
    ea2a:	48 8d 3d 27 08 00 00 	lea    0x827(%rip),%rdi        # f258 <_IO_stdin_used+0x258>
    ea31:	e8 0a 3c ff ff       	call   2640 <fwrite@plt>
    for (int i = 0; i < ALTURA_DA_PISTA; i++) { 
    ea36:	e9 a8 fc ff ff       	jmp    e6e3 <render_game+0x43>
} 
    ea3b:	e8 d0 39 ff ff       	call   2410 <__stack_chk_fail@plt>

000000000000ea40 <finalizar_jogo>:

void finalizar_jogo(GameState *state) { 
    ea40:	f3 0f 1e fa          	endbr64
    ea44:	53                   	push   %rbx
    if (state->musica_playing) { 
    ea45:	8b 47 14             	mov    0x14(%rdi),%eax
void finalizar_jogo(GameState *state) { 
    ea48:	48 89 fb             	mov    %rdi,%rbx
    if (state->musica_playing) { 
    ea4b:	85 c0                	test   %eax,%eax
    ea4d:	75 61                	jne    eab0 <finalizar_jogo+0x70>
        Mix_HaltMusic(); 
    } 
    close_hardware(state->fd_hardware); 
    ea4f:	8b bb ac bb 00 00    	mov    0xbbac(%rbx),%edi
    if (fd != -1) { 
    ea55:	83 ff ff             	cmp    $0xffffffff,%edi
    ea58:	74 05                	je     ea5f <finalizar_jogo+0x1f>
    ea5a:	e8 c1 ee ff ff       	call   d920 <close_hardware.part.0>
    if (state->joy_fd != -1) close(state->joy_fd); 
    ea5f:	8b bb a4 bb 00 00    	mov    0xbba4(%rbx),%edi
    ea65:	83 ff ff             	cmp    $0xffffffff,%edi
    ea68:	74 05                	je     ea6f <finalizar_jogo+0x2f>
    ea6a:	e8 71 39 ff ff       	call   23e0 <close@plt>
    if (state->musica != NULL) Mix_FreeMusic(state->musica); 
    ea6f:	48 8b 7b 18          	mov    0x18(%rbx),%rdi
    ea73:	48 85 ff             	test   %rdi,%rdi
    ea76:	74 05                	je     ea7d <finalizar_jogo+0x3d>
    ea78:	e8 f3 3a ff ff       	call   2570 <Mix_FreeMusic@plt>
    Mix_CloseAudio(); 
    ea7d:	e8 ae 3a ff ff       	call   2530 <Mix_CloseAudio@plt>
    SDL_Quit(); 
    ea82:	e8 b9 39 ff ff       	call   2440 <SDL_Quit@plt>
    tcsetattr(STDIN_FILENO, TCSAFLUSH, &orig_termios); 
    ea87:	be 02 00 00 00       	mov    $0x2,%esi
    ea8c:	31 ff                	xor    %edi,%edi
    ea8e:	48 8d 15 ab 57 00 00 	lea    0x57ab(%rip),%rdx        # 14240 <orig_termios>
    ea95:	e8 46 3a ff ff       	call   24e0 <tcsetattr@plt>
  return __printf_chk (__USE_FORTIFY_LEVEL - 1, __fmt, __va_arg_pack ());
    ea9a:	48 8d 35 4c 07 00 00 	lea    0x74c(%rip),%rsi        # f1ed <_IO_stdin_used+0x1ed>
    eaa1:	31 c0                	xor    %eax,%eax
    disableRawMode(); 
    eaa3:	5b                   	pop    %rbx
    eaa4:	bf 02 00 00 00       	mov    $0x2,%edi
    eaa9:	e9 52 3b ff ff       	jmp    2600 <__printf_chk@plt>
    eaae:	66 90                	xchg   %ax,%ax
        Mix_HaltMusic(); 
    eab0:	e8 db 3a ff ff       	call   2590 <Mix_HaltMusic@plt>
    eab5:	eb 98                	jmp    ea4f <finalizar_jogo+0xf>
    eab7:	66 0f 1f 84 00 00 00 	nopw   0x0(%rax,%rax,1)
    eabe:	00 00 

000000000000eac0 <atexit>:
    eac0:	f3 0f 1e fa          	endbr64
    eac4:	48 8b 15 3d 55 00 00 	mov    0x553d(%rip),%rdx        # 14008 <__dso_handle>
    eacb:	31 f6                	xor    %esi,%esi
    eacd:	e9 de 3a ff ff       	jmp    25b0 <__cxa_atexit@plt>

Disassembly of section .fini:

000000000000ead4 <_fini>:
    ead4:	f3 0f 1e fa          	endbr64
    ead8:	48 83 ec 08          	sub    $0x8,%rsp
    eadc:	48 83 c4 08          	add    $0x8,%rsp
    eae0:	c3                   	ret
